Archive member included because of file (symbol)

/opt/altera/13.0sp1/nios2eds/bin/gnu/H-i686-pc-linux-gnu/bin/../lib/gcc/nios2-elf/4.1.2/mno-hw-mul/pg/libgcc.a(_floatundidf.o)
                              obj/default/cpu_0.o (__floatundidf)
/opt/altera/13.0sp1/nios2eds/bin/gnu/H-i686-pc-linux-gnu/bin/../lib/gcc/nios2-elf/4.1.2/mno-hw-mul/pg/libgcc.a(_addsub_df.o)
                              /opt/altera/13.0sp1/nios2eds/bin/gnu/H-i686-pc-linux-gnu/bin/../lib/gcc/nios2-elf/4.1.2/mno-hw-mul/pg/libgcc.a(_floatundidf.o) (__adddf3)
/opt/altera/13.0sp1/nios2eds/bin/gnu/H-i686-pc-linux-gnu/bin/../lib/gcc/nios2-elf/4.1.2/mno-hw-mul/pg/libgcc.a(_mul_df.o)
                              /opt/altera/13.0sp1/nios2eds/bin/gnu/H-i686-pc-linux-gnu/bin/../lib/gcc/nios2-elf/4.1.2/mno-hw-mul/pg/libgcc.a(_floatundidf.o) (__muldf3)
/opt/altera/13.0sp1/nios2eds/bin/gnu/H-i686-pc-linux-gnu/bin/../lib/gcc/nios2-elf/4.1.2/mno-hw-mul/pg/libgcc.a(_div_df.o)
                              obj/default/cpu_0.o (__divdf3)
/opt/altera/13.0sp1/nios2eds/bin/gnu/H-i686-pc-linux-gnu/bin/../lib/gcc/nios2-elf/4.1.2/mno-hw-mul/pg/libgcc.a(_thenan_df.o)
                              /opt/altera/13.0sp1/nios2eds/bin/gnu/H-i686-pc-linux-gnu/bin/../lib/gcc/nios2-elf/4.1.2/mno-hw-mul/pg/libgcc.a(_addsub_df.o) (__thenan_df)
/opt/altera/13.0sp1/nios2eds/bin/gnu/H-i686-pc-linux-gnu/bin/../lib/gcc/nios2-elf/4.1.2/mno-hw-mul/pg/libgcc.a(_usi_to_df.o)
                              obj/default/cpu_0.o (__floatunsidf)
/opt/altera/13.0sp1/nios2eds/bin/gnu/H-i686-pc-linux-gnu/bin/../lib/gcc/nios2-elf/4.1.2/mno-hw-mul/pg/libgcc.a(lib2-divmod.o)
                              obj/default/cpu_0.o (__divsi3)
/opt/altera/13.0sp1/nios2eds/bin/gnu/H-i686-pc-linux-gnu/bin/../lib/gcc/nios2-elf/4.1.2/mno-hw-mul/pg/libgcc.a(lib2-mul.o)
                              obj/default/cpu_0.o (__mulsi3)
/opt/altera/13.0sp1/nios2eds/bin/gnu/H-i686-pc-linux-gnu/bin/../lib/gcc/nios2-elf/4.1.2/mno-hw-mul/pg/libgcc.a(_muldi3.o)
                              /opt/altera/13.0sp1/nios2eds/bin/gnu/H-i686-pc-linux-gnu/bin/../lib/gcc/nios2-elf/4.1.2/mno-hw-mul/pg/libgcc.a(_mul_df.o) (__muldi3)
/opt/altera/13.0sp1/nios2eds/bin/gnu/H-i686-pc-linux-gnu/bin/../lib/gcc/nios2-elf/4.1.2/mno-hw-mul/pg/libgcc.a(_clzsi2.o)
                              /opt/altera/13.0sp1/nios2eds/bin/gnu/H-i686-pc-linux-gnu/bin/../lib/gcc/nios2-elf/4.1.2/mno-hw-mul/pg/libgcc.a(_usi_to_df.o) (__clzsi2)
/opt/altera/13.0sp1/nios2eds/bin/gnu/H-i686-pc-linux-gnu/bin/../lib/gcc/nios2-elf/4.1.2/mno-hw-mul/pg/libgcc.a(_pack_df.o)
                              /opt/altera/13.0sp1/nios2eds/bin/gnu/H-i686-pc-linux-gnu/bin/../lib/gcc/nios2-elf/4.1.2/mno-hw-mul/pg/libgcc.a(_addsub_df.o) (__pack_d)
/opt/altera/13.0sp1/nios2eds/bin/gnu/H-i686-pc-linux-gnu/bin/../lib/gcc/nios2-elf/4.1.2/mno-hw-mul/pg/libgcc.a(_unpack_df.o)
                              /opt/altera/13.0sp1/nios2eds/bin/gnu/H-i686-pc-linux-gnu/bin/../lib/gcc/nios2-elf/4.1.2/mno-hw-mul/pg/libgcc.a(_addsub_df.o) (__unpack_d)
/opt/altera/13.0sp1/nios2eds/bin/gnu/H-i686-pc-linux-gnu/bin/../lib/gcc/nios2-elf/4.1.2/mno-hw-mul/pg/libgcc.a(_clz.o)
                              /opt/altera/13.0sp1/nios2eds/bin/gnu/H-i686-pc-linux-gnu/bin/../lib/gcc/nios2-elf/4.1.2/mno-hw-mul/pg/libgcc.a(_clzsi2.o) (__clz_tab)
/opt/altera/13.0sp1/nios2eds/bin/gnu/H-i686-pc-linux-gnu/bin/../lib/gcc/nios2-elf/4.1.2/../../../../nios2-elf/lib/mno-hw-mul/pg/libc.a(lib_a-printf.o)
                              obj/default/cpu_0.o (printf)
/opt/altera/13.0sp1/nios2eds/bin/gnu/H-i686-pc-linux-gnu/bin/../lib/gcc/nios2-elf/4.1.2/../../../../nios2-elf/lib/mno-hw-mul/pg/libc.a(lib_a-putchar.o)
                              obj/default/cpu_0.o (putchar)
/opt/altera/13.0sp1/nios2eds/bin/gnu/H-i686-pc-linux-gnu/bin/../lib/gcc/nios2-elf/4.1.2/../../../../nios2-elf/lib/mno-hw-mul/pg/libc.a(lib_a-puts.o)
                              obj/default/cpu_0.o (puts)
/opt/altera/13.0sp1/nios2eds/bin/gnu/H-i686-pc-linux-gnu/bin/../lib/gcc/nios2-elf/4.1.2/../../../../nios2-elf/lib/mno-hw-mul/pg/libc.a(lib_a-strlen.o)
                              /opt/altera/13.0sp1/nios2eds/bin/gnu/H-i686-pc-linux-gnu/bin/../lib/gcc/nios2-elf/4.1.2/../../../../nios2-elf/lib/mno-hw-mul/pg/libc.a(lib_a-puts.o) (strlen)
/opt/altera/13.0sp1/nios2eds/bin/gnu/H-i686-pc-linux-gnu/bin/../lib/gcc/nios2-elf/4.1.2/../../../../nios2-elf/lib/mno-hw-mul/pg/libc.a(lib_a-vfprintf.o)
                              /opt/altera/13.0sp1/nios2eds/bin/gnu/H-i686-pc-linux-gnu/bin/../lib/gcc/nios2-elf/4.1.2/../../../../nios2-elf/lib/mno-hw-mul/pg/libc.a(lib_a-printf.o) (___vfprintf_internal_r)
/opt/altera/13.0sp1/nios2eds/bin/gnu/H-i686-pc-linux-gnu/bin/../lib/gcc/nios2-elf/4.1.2/../../../../nios2-elf/lib/mno-hw-mul/pg/libc.a(lib_a-wsetup.o)
                              /opt/altera/13.0sp1/nios2eds/bin/gnu/H-i686-pc-linux-gnu/bin/../lib/gcc/nios2-elf/4.1.2/../../../../nios2-elf/lib/mno-hw-mul/pg/libc.a(lib_a-vfprintf.o) (__swsetup_r)
/opt/altera/13.0sp1/nios2eds/bin/gnu/H-i686-pc-linux-gnu/bin/../lib/gcc/nios2-elf/4.1.2/../../../../nios2-elf/lib/mno-hw-mul/pg/libc.a(lib_a-dtoa.o)
                              /opt/altera/13.0sp1/nios2eds/bin/gnu/H-i686-pc-linux-gnu/bin/../lib/gcc/nios2-elf/4.1.2/../../../../nios2-elf/lib/mno-hw-mul/pg/libc.a(lib_a-vfprintf.o) (_dtoa_r)
/opt/altera/13.0sp1/nios2eds/bin/gnu/H-i686-pc-linux-gnu/bin/../lib/gcc/nios2-elf/4.1.2/../../../../nios2-elf/lib/mno-hw-mul/pg/libc.a(lib_a-fflush.o)
                              /opt/altera/13.0sp1/nios2eds/bin/gnu/H-i686-pc-linux-gnu/bin/../lib/gcc/nios2-elf/4.1.2/../../../../nios2-elf/lib/mno-hw-mul/pg/libc.a(lib_a-vfprintf.o) (_fflush_r)
/opt/altera/13.0sp1/nios2eds/bin/gnu/H-i686-pc-linux-gnu/bin/../lib/gcc/nios2-elf/4.1.2/../../../../nios2-elf/lib/mno-hw-mul/pg/libc.a(lib_a-findfp.o)
                              /opt/altera/13.0sp1/nios2eds/bin/gnu/H-i686-pc-linux-gnu/bin/../lib/gcc/nios2-elf/4.1.2/../../../../nios2-elf/lib/mno-hw-mul/pg/libc.a(lib_a-vfprintf.o) (__sinit)
/opt/altera/13.0sp1/nios2eds/bin/gnu/H-i686-pc-linux-gnu/bin/../lib/gcc/nios2-elf/4.1.2/../../../../nios2-elf/lib/mno-hw-mul/pg/libc.a(lib_a-freer.o)
                              /opt/altera/13.0sp1/nios2eds/bin/gnu/H-i686-pc-linux-gnu/bin/../lib/gcc/nios2-elf/4.1.2/../../../../nios2-elf/lib/mno-hw-mul/pg/libc.a(lib_a-wsetup.o) (_free_r)
/opt/altera/13.0sp1/nios2eds/bin/gnu/H-i686-pc-linux-gnu/bin/../lib/gcc/nios2-elf/4.1.2/../../../../nios2-elf/lib/mno-hw-mul/pg/libc.a(lib_a-fvwrite.o)
                              /opt/altera/13.0sp1/nios2eds/bin/gnu/H-i686-pc-linux-gnu/bin/../lib/gcc/nios2-elf/4.1.2/../../../../nios2-elf/lib/mno-hw-mul/pg/libc.a(lib_a-puts.o) (__sfvwrite_r)
/opt/altera/13.0sp1/nios2eds/bin/gnu/H-i686-pc-linux-gnu/bin/../lib/gcc/nios2-elf/4.1.2/../../../../nios2-elf/lib/mno-hw-mul/pg/libc.a(lib_a-fwalk.o)
                              /opt/altera/13.0sp1/nios2eds/bin/gnu/H-i686-pc-linux-gnu/bin/../lib/gcc/nios2-elf/4.1.2/../../../../nios2-elf/lib/mno-hw-mul/pg/libc.a(lib_a-fflush.o) (_fwalk_reent)
/opt/altera/13.0sp1/nios2eds/bin/gnu/H-i686-pc-linux-gnu/bin/../lib/gcc/nios2-elf/4.1.2/../../../../nios2-elf/lib/mno-hw-mul/pg/libc.a(lib_a-impure.o)
                              /opt/altera/13.0sp1/nios2eds/bin/gnu/H-i686-pc-linux-gnu/bin/../lib/gcc/nios2-elf/4.1.2/../../../../nios2-elf/lib/mno-hw-mul/pg/libc.a(lib_a-printf.o) (_impure_ptr)
/opt/altera/13.0sp1/nios2eds/bin/gnu/H-i686-pc-linux-gnu/bin/../lib/gcc/nios2-elf/4.1.2/../../../../nios2-elf/lib/mno-hw-mul/pg/libc.a(lib_a-locale.o)
                              /opt/altera/13.0sp1/nios2eds/bin/gnu/H-i686-pc-linux-gnu/bin/../lib/gcc/nios2-elf/4.1.2/../../../../nios2-elf/lib/mno-hw-mul/pg/libc.a(lib_a-vfprintf.o) (_localeconv_r)
/opt/altera/13.0sp1/nios2eds/bin/gnu/H-i686-pc-linux-gnu/bin/../lib/gcc/nios2-elf/4.1.2/../../../../nios2-elf/lib/mno-hw-mul/pg/libc.a(lib_a-makebuf.o)
                              /opt/altera/13.0sp1/nios2eds/bin/gnu/H-i686-pc-linux-gnu/bin/../lib/gcc/nios2-elf/4.1.2/../../../../nios2-elf/lib/mno-hw-mul/pg/libc.a(lib_a-wsetup.o) (__smakebuf_r)
/opt/altera/13.0sp1/nios2eds/bin/gnu/H-i686-pc-linux-gnu/bin/../lib/gcc/nios2-elf/4.1.2/../../../../nios2-elf/lib/mno-hw-mul/pg/libc.a(lib_a-mallocr.o)
                              /opt/altera/13.0sp1/nios2eds/bin/gnu/H-i686-pc-linux-gnu/bin/../lib/gcc/nios2-elf/4.1.2/../../../../nios2-elf/lib/mno-hw-mul/pg/libc.a(lib_a-findfp.o) (_malloc_r)
/opt/altera/13.0sp1/nios2eds/bin/gnu/H-i686-pc-linux-gnu/bin/../lib/gcc/nios2-elf/4.1.2/../../../../nios2-elf/lib/mno-hw-mul/pg/libc.a(lib_a-memchr.o)
                              /opt/altera/13.0sp1/nios2eds/bin/gnu/H-i686-pc-linux-gnu/bin/../lib/gcc/nios2-elf/4.1.2/../../../../nios2-elf/lib/mno-hw-mul/pg/libc.a(lib_a-vfprintf.o) (memchr)
/opt/altera/13.0sp1/nios2eds/bin/gnu/H-i686-pc-linux-gnu/bin/../lib/gcc/nios2-elf/4.1.2/../../../../nios2-elf/lib/mno-hw-mul/pg/libc.a(lib_a-memcpy.o)
                              /opt/altera/13.0sp1/nios2eds/bin/gnu/H-i686-pc-linux-gnu/bin/../lib/gcc/nios2-elf/4.1.2/../../../../nios2-elf/lib/mno-hw-mul/pg/libc.a(lib_a-dtoa.o) (memcpy)
/opt/altera/13.0sp1/nios2eds/bin/gnu/H-i686-pc-linux-gnu/bin/../lib/gcc/nios2-elf/4.1.2/../../../../nios2-elf/lib/mno-hw-mul/pg/libc.a(lib_a-memmove.o)
                              /opt/altera/13.0sp1/nios2eds/bin/gnu/H-i686-pc-linux-gnu/bin/../lib/gcc/nios2-elf/4.1.2/../../../../nios2-elf/lib/mno-hw-mul/pg/libc.a(lib_a-fvwrite.o) (memmove)
/opt/altera/13.0sp1/nios2eds/bin/gnu/H-i686-pc-linux-gnu/bin/../lib/gcc/nios2-elf/4.1.2/../../../../nios2-elf/lib/mno-hw-mul/pg/libc.a(lib_a-memset.o)
                              /opt/altera/13.0sp1/nios2eds/bin/gnu/H-i686-pc-linux-gnu/bin/../lib/gcc/nios2-elf/4.1.2/../../../../nios2-elf/lib/mno-hw-mul/pg/libc.a(lib_a-findfp.o) (memset)
/opt/altera/13.0sp1/nios2eds/bin/gnu/H-i686-pc-linux-gnu/bin/../lib/gcc/nios2-elf/4.1.2/../../../../nios2-elf/lib/mno-hw-mul/pg/libc.a(lib_a-mprec.o)
                              /opt/altera/13.0sp1/nios2eds/bin/gnu/H-i686-pc-linux-gnu/bin/../lib/gcc/nios2-elf/4.1.2/../../../../nios2-elf/lib/mno-hw-mul/pg/libc.a(lib_a-dtoa.o) (_Bfree)
/opt/altera/13.0sp1/nios2eds/bin/gnu/H-i686-pc-linux-gnu/bin/../lib/gcc/nios2-elf/4.1.2/../../../../nios2-elf/lib/mno-hw-mul/pg/libc.a(lib_a-putc.o)
                              /opt/altera/13.0sp1/nios2eds/bin/gnu/H-i686-pc-linux-gnu/bin/../lib/gcc/nios2-elf/4.1.2/../../../../nios2-elf/lib/mno-hw-mul/pg/libc.a(lib_a-putchar.o) (_putc_r)
/opt/altera/13.0sp1/nios2eds/bin/gnu/H-i686-pc-linux-gnu/bin/../lib/gcc/nios2-elf/4.1.2/../../../../nios2-elf/lib/mno-hw-mul/pg/libc.a(lib_a-reallocr.o)
                              /opt/altera/13.0sp1/nios2eds/bin/gnu/H-i686-pc-linux-gnu/bin/../lib/gcc/nios2-elf/4.1.2/../../../../nios2-elf/lib/mno-hw-mul/pg/libc.a(lib_a-fvwrite.o) (_realloc_r)
/opt/altera/13.0sp1/nios2eds/bin/gnu/H-i686-pc-linux-gnu/bin/../lib/gcc/nios2-elf/4.1.2/../../../../nios2-elf/lib/mno-hw-mul/pg/libc.a(lib_a-s_isinfd.o)
                              /opt/altera/13.0sp1/nios2eds/bin/gnu/H-i686-pc-linux-gnu/bin/../lib/gcc/nios2-elf/4.1.2/../../../../nios2-elf/lib/mno-hw-mul/pg/libc.a(lib_a-vfprintf.o) (__isinfd)
/opt/altera/13.0sp1/nios2eds/bin/gnu/H-i686-pc-linux-gnu/bin/../lib/gcc/nios2-elf/4.1.2/../../../../nios2-elf/lib/mno-hw-mul/pg/libc.a(lib_a-s_isnand.o)
                              /opt/altera/13.0sp1/nios2eds/bin/gnu/H-i686-pc-linux-gnu/bin/../lib/gcc/nios2-elf/4.1.2/../../../../nios2-elf/lib/mno-hw-mul/pg/libc.a(lib_a-vfprintf.o) (__isnand)
/opt/altera/13.0sp1/nios2eds/bin/gnu/H-i686-pc-linux-gnu/bin/../lib/gcc/nios2-elf/4.1.2/../../../../nios2-elf/lib/mno-hw-mul/pg/libc.a(lib_a-sbrkr.o)
                              /opt/altera/13.0sp1/nios2eds/bin/gnu/H-i686-pc-linux-gnu/bin/../lib/gcc/nios2-elf/4.1.2/../../../../nios2-elf/lib/mno-hw-mul/pg/libc.a(lib_a-freer.o) (_sbrk_r)
/opt/altera/13.0sp1/nios2eds/bin/gnu/H-i686-pc-linux-gnu/bin/../lib/gcc/nios2-elf/4.1.2/../../../../nios2-elf/lib/mno-hw-mul/pg/libc.a(lib_a-stdio.o)
                              /opt/altera/13.0sp1/nios2eds/bin/gnu/H-i686-pc-linux-gnu/bin/../lib/gcc/nios2-elf/4.1.2/../../../../nios2-elf/lib/mno-hw-mul/pg/libc.a(lib_a-findfp.o) (__sclose)
/opt/altera/13.0sp1/nios2eds/bin/gnu/H-i686-pc-linux-gnu/bin/../lib/gcc/nios2-elf/4.1.2/../../../../nios2-elf/lib/mno-hw-mul/pg/libc.a(lib_a-strcmp.o)
                              /opt/altera/13.0sp1/nios2eds/bin/gnu/H-i686-pc-linux-gnu/bin/../lib/gcc/nios2-elf/4.1.2/../../../../nios2-elf/lib/mno-hw-mul/pg/libc.a(lib_a-locale.o) (strcmp)
/opt/altera/13.0sp1/nios2eds/bin/gnu/H-i686-pc-linux-gnu/bin/../lib/gcc/nios2-elf/4.1.2/../../../../nios2-elf/lib/mno-hw-mul/pg/libc.a(lib_a-wbuf.o)
                              /opt/altera/13.0sp1/nios2eds/bin/gnu/H-i686-pc-linux-gnu/bin/../lib/gcc/nios2-elf/4.1.2/../../../../nios2-elf/lib/mno-hw-mul/pg/libc.a(lib_a-putc.o) (__swbuf_r)
/opt/altera/13.0sp1/nios2eds/bin/gnu/H-i686-pc-linux-gnu/bin/../lib/gcc/nios2-elf/4.1.2/../../../../nios2-elf/lib/mno-hw-mul/pg/libc.a(lib_a-writer.o)
                              /opt/altera/13.0sp1/nios2eds/bin/gnu/H-i686-pc-linux-gnu/bin/../lib/gcc/nios2-elf/4.1.2/../../../../nios2-elf/lib/mno-hw-mul/pg/libc.a(lib_a-stdio.o) (_write_r)
/opt/altera/13.0sp1/nios2eds/bin/gnu/H-i686-pc-linux-gnu/bin/../lib/gcc/nios2-elf/4.1.2/../../../../nios2-elf/lib/mno-hw-mul/pg/libc.a(lib_a-callocr.o)
                              /opt/altera/13.0sp1/nios2eds/bin/gnu/H-i686-pc-linux-gnu/bin/../lib/gcc/nios2-elf/4.1.2/../../../../nios2-elf/lib/mno-hw-mul/pg/libc.a(lib_a-mprec.o) (_calloc_r)
/opt/altera/13.0sp1/nios2eds/bin/gnu/H-i686-pc-linux-gnu/bin/../lib/gcc/nios2-elf/4.1.2/../../../../nios2-elf/lib/mno-hw-mul/pg/libc.a(lib_a-closer.o)
                              /opt/altera/13.0sp1/nios2eds/bin/gnu/H-i686-pc-linux-gnu/bin/../lib/gcc/nios2-elf/4.1.2/../../../../nios2-elf/lib/mno-hw-mul/pg/libc.a(lib_a-stdio.o) (_close_r)
/opt/altera/13.0sp1/nios2eds/bin/gnu/H-i686-pc-linux-gnu/bin/../lib/gcc/nios2-elf/4.1.2/../../../../nios2-elf/lib/mno-hw-mul/pg/libc.a(lib_a-fclose.o)
                              /opt/altera/13.0sp1/nios2eds/bin/gnu/H-i686-pc-linux-gnu/bin/../lib/gcc/nios2-elf/4.1.2/../../../../nios2-elf/lib/mno-hw-mul/pg/libc.a(lib_a-findfp.o) (fclose)
/opt/altera/13.0sp1/nios2eds/bin/gnu/H-i686-pc-linux-gnu/bin/../lib/gcc/nios2-elf/4.1.2/../../../../nios2-elf/lib/mno-hw-mul/pg/libc.a(lib_a-fstatr.o)
                              /opt/altera/13.0sp1/nios2eds/bin/gnu/H-i686-pc-linux-gnu/bin/../lib/gcc/nios2-elf/4.1.2/../../../../nios2-elf/lib/mno-hw-mul/pg/libc.a(lib_a-makebuf.o) (_fstat_r)
/opt/altera/13.0sp1/nios2eds/bin/gnu/H-i686-pc-linux-gnu/bin/../lib/gcc/nios2-elf/4.1.2/../../../../nios2-elf/lib/mno-hw-mul/pg/libc.a(lib_a-int_errno.o)
                              /opt/altera/13.0sp1/nios2eds/bin/gnu/H-i686-pc-linux-gnu/bin/../lib/gcc/nios2-elf/4.1.2/../../../../nios2-elf/lib/mno-hw-mul/pg/libc.a(lib_a-sbrkr.o) (errno)
/opt/altera/13.0sp1/nios2eds/bin/gnu/H-i686-pc-linux-gnu/bin/../lib/gcc/nios2-elf/4.1.2/../../../../nios2-elf/lib/mno-hw-mul/pg/libc.a(lib_a-isattyr.o)
                              /opt/altera/13.0sp1/nios2eds/bin/gnu/H-i686-pc-linux-gnu/bin/../lib/gcc/nios2-elf/4.1.2/../../../../nios2-elf/lib/mno-hw-mul/pg/libc.a(lib_a-makebuf.o) (_isatty_r)
/opt/altera/13.0sp1/nios2eds/bin/gnu/H-i686-pc-linux-gnu/bin/../lib/gcc/nios2-elf/4.1.2/../../../../nios2-elf/lib/mno-hw-mul/pg/libc.a(lib_a-lseekr.o)
                              /opt/altera/13.0sp1/nios2eds/bin/gnu/H-i686-pc-linux-gnu/bin/../lib/gcc/nios2-elf/4.1.2/../../../../nios2-elf/lib/mno-hw-mul/pg/libc.a(lib_a-stdio.o) (_lseek_r)
/opt/altera/13.0sp1/nios2eds/bin/gnu/H-i686-pc-linux-gnu/bin/../lib/gcc/nios2-elf/4.1.2/../../../../nios2-elf/lib/mno-hw-mul/pg/libc.a(lib_a-readr.o)
                              /opt/altera/13.0sp1/nios2eds/bin/gnu/H-i686-pc-linux-gnu/bin/../lib/gcc/nios2-elf/4.1.2/../../../../nios2-elf/lib/mno-hw-mul/pg/libc.a(lib_a-stdio.o) (_read_r)
/opt/altera/13.0sp1/nios2eds/bin/gnu/H-i686-pc-linux-gnu/bin/../lib/gcc/nios2-elf/4.1.2/mno-hw-mul/pg/libgcc.a(_udivdi3.o)
                              /opt/altera/13.0sp1/nios2eds/bin/gnu/H-i686-pc-linux-gnu/bin/../lib/gcc/nios2-elf/4.1.2/../../../../nios2-elf/lib/mno-hw-mul/pg/libc.a(lib_a-vfprintf.o) (__udivdi3)
/opt/altera/13.0sp1/nios2eds/bin/gnu/H-i686-pc-linux-gnu/bin/../lib/gcc/nios2-elf/4.1.2/mno-hw-mul/pg/libgcc.a(_umoddi3.o)
                              /opt/altera/13.0sp1/nios2eds/bin/gnu/H-i686-pc-linux-gnu/bin/../lib/gcc/nios2-elf/4.1.2/../../../../nios2-elf/lib/mno-hw-mul/pg/libc.a(lib_a-vfprintf.o) (__umoddi3)
/opt/altera/13.0sp1/nios2eds/bin/gnu/H-i686-pc-linux-gnu/bin/../lib/gcc/nios2-elf/4.1.2/mno-hw-mul/pg/libgcc.a(_eq_df.o)
                              /opt/altera/13.0sp1/nios2eds/bin/gnu/H-i686-pc-linux-gnu/bin/../lib/gcc/nios2-elf/4.1.2/../../../../nios2-elf/lib/mno-hw-mul/pg/libc.a(lib_a-vfprintf.o) (__eqdf2)
/opt/altera/13.0sp1/nios2eds/bin/gnu/H-i686-pc-linux-gnu/bin/../lib/gcc/nios2-elf/4.1.2/mno-hw-mul/pg/libgcc.a(_ne_df.o)
                              /opt/altera/13.0sp1/nios2eds/bin/gnu/H-i686-pc-linux-gnu/bin/../lib/gcc/nios2-elf/4.1.2/../../../../nios2-elf/lib/mno-hw-mul/pg/libc.a(lib_a-vfprintf.o) (__nedf2)
/opt/altera/13.0sp1/nios2eds/bin/gnu/H-i686-pc-linux-gnu/bin/../lib/gcc/nios2-elf/4.1.2/mno-hw-mul/pg/libgcc.a(_gt_df.o)
                              /opt/altera/13.0sp1/nios2eds/bin/gnu/H-i686-pc-linux-gnu/bin/../lib/gcc/nios2-elf/4.1.2/../../../../nios2-elf/lib/mno-hw-mul/pg/libc.a(lib_a-dtoa.o) (__gtdf2)
/opt/altera/13.0sp1/nios2eds/bin/gnu/H-i686-pc-linux-gnu/bin/../lib/gcc/nios2-elf/4.1.2/mno-hw-mul/pg/libgcc.a(_ge_df.o)
                              /opt/altera/13.0sp1/nios2eds/bin/gnu/H-i686-pc-linux-gnu/bin/../lib/gcc/nios2-elf/4.1.2/../../../../nios2-elf/lib/mno-hw-mul/pg/libc.a(lib_a-dtoa.o) (__gedf2)
/opt/altera/13.0sp1/nios2eds/bin/gnu/H-i686-pc-linux-gnu/bin/../lib/gcc/nios2-elf/4.1.2/mno-hw-mul/pg/libgcc.a(_lt_df.o)
                              /opt/altera/13.0sp1/nios2eds/bin/gnu/H-i686-pc-linux-gnu/bin/../lib/gcc/nios2-elf/4.1.2/../../../../nios2-elf/lib/mno-hw-mul/pg/libc.a(lib_a-vfprintf.o) (__ltdf2)
/opt/altera/13.0sp1/nios2eds/bin/gnu/H-i686-pc-linux-gnu/bin/../lib/gcc/nios2-elf/4.1.2/mno-hw-mul/pg/libgcc.a(_si_to_df.o)
                              /opt/altera/13.0sp1/nios2eds/bin/gnu/H-i686-pc-linux-gnu/bin/../lib/gcc/nios2-elf/4.1.2/../../../../nios2-elf/lib/mno-hw-mul/pg/libc.a(lib_a-dtoa.o) (__floatsidf)
/opt/altera/13.0sp1/nios2eds/bin/gnu/H-i686-pc-linux-gnu/bin/../lib/gcc/nios2-elf/4.1.2/mno-hw-mul/pg/libgcc.a(_df_to_si.o)
                              /opt/altera/13.0sp1/nios2eds/bin/gnu/H-i686-pc-linux-gnu/bin/../lib/gcc/nios2-elf/4.1.2/../../../../nios2-elf/lib/mno-hw-mul/pg/libc.a(lib_a-dtoa.o) (__fixdfsi)
/opt/altera/13.0sp1/nios2eds/bin/gnu/H-i686-pc-linux-gnu/bin/../lib/gcc/nios2-elf/4.1.2/mno-hw-mul/pg/libgcc.a(_fpcmp_parts_df.o)
                              /opt/altera/13.0sp1/nios2eds/bin/gnu/H-i686-pc-linux-gnu/bin/../lib/gcc/nios2-elf/4.1.2/mno-hw-mul/pg/libgcc.a(_eq_df.o) (__fpcmp_parts_d)
../il2212-rtos_bsp//libucosii_bsp.a(alt_alarm_start.o)
                              obj/default/cpu_0.o (alt_alarm_start)
../il2212-rtos_bsp//libucosii_bsp.a(alt_close.o)
                              /opt/altera/13.0sp1/nios2eds/bin/gnu/H-i686-pc-linux-gnu/bin/../lib/gcc/nios2-elf/4.1.2/../../../../nios2-elf/lib/mno-hw-mul/pg/libc.a(lib_a-closer.o) (close)
../il2212-rtos_bsp//libucosii_bsp.a(alt_dev.o)
                              ../il2212-rtos_bsp//libucosii_bsp.a(alt_close.o) (alt_fd_list)
../il2212-rtos_bsp//libucosii_bsp.a(alt_errno.o)
                              ../il2212-rtos_bsp//libucosii_bsp.a(alt_close.o) (alt_errno)
../il2212-rtos_bsp//libucosii_bsp.a(alt_fstat.o)
                              /opt/altera/13.0sp1/nios2eds/bin/gnu/H-i686-pc-linux-gnu/bin/../lib/gcc/nios2-elf/4.1.2/../../../../nios2-elf/lib/mno-hw-mul/pg/libc.a(lib_a-fstatr.o) (fstat)
../il2212-rtos_bsp//libucosii_bsp.a(alt_isatty.o)
                              /opt/altera/13.0sp1/nios2eds/bin/gnu/H-i686-pc-linux-gnu/bin/../lib/gcc/nios2-elf/4.1.2/../../../../nios2-elf/lib/mno-hw-mul/pg/libc.a(lib_a-isattyr.o) (isatty)
../il2212-rtos_bsp//libucosii_bsp.a(alt_load.o)
                              ../il2212-rtos_bsp//obj/HAL/src/crt0.o (alt_load)
../il2212-rtos_bsp//libucosii_bsp.a(alt_lseek.o)
                              /opt/altera/13.0sp1/nios2eds/bin/gnu/H-i686-pc-linux-gnu/bin/../lib/gcc/nios2-elf/4.1.2/../../../../nios2-elf/lib/mno-hw-mul/pg/libc.a(lib_a-lseekr.o) (lseek)
../il2212-rtos_bsp//libucosii_bsp.a(alt_main.o)
                              ../il2212-rtos_bsp//obj/HAL/src/crt0.o (alt_main)
../il2212-rtos_bsp//libucosii_bsp.a(alt_mcount.o)
                              obj/default/cpu_0.o (_mcount)
../il2212-rtos_bsp//libucosii_bsp.a(alt_read.o)
                              /opt/altera/13.0sp1/nios2eds/bin/gnu/H-i686-pc-linux-gnu/bin/../lib/gcc/nios2-elf/4.1.2/../../../../nios2-elf/lib/mno-hw-mul/pg/libc.a(lib_a-readr.o) (read)
../il2212-rtos_bsp//libucosii_bsp.a(alt_release_fd.o)
                              ../il2212-rtos_bsp//libucosii_bsp.a(alt_close.o) (alt_release_fd)
../il2212-rtos_bsp//libucosii_bsp.a(alt_sbrk.o)
                              /opt/altera/13.0sp1/nios2eds/bin/gnu/H-i686-pc-linux-gnu/bin/../lib/gcc/nios2-elf/4.1.2/../../../../nios2-elf/lib/mno-hw-mul/pg/libc.a(lib_a-sbrkr.o) (sbrk)
../il2212-rtos_bsp//libucosii_bsp.a(alt_tick.o)
                              obj/default/cpu_0.o (_alt_tick_rate)
../il2212-rtos_bsp//libucosii_bsp.a(alt_write.o)
                              /opt/altera/13.0sp1/nios2eds/bin/gnu/H-i686-pc-linux-gnu/bin/../lib/gcc/nios2-elf/4.1.2/../../../../nios2-elf/lib/mno-hw-mul/pg/libc.a(lib_a-writer.o) (write)
../il2212-rtos_bsp//libucosii_bsp.a(alt_env_lock.o)
                              ../il2212-rtos_bsp//libucosii_bsp.a(alt_main.o) (alt_envsem)
../il2212-rtos_bsp//libucosii_bsp.a(alt_malloc_lock.o)
                              /opt/altera/13.0sp1/nios2eds/bin/gnu/H-i686-pc-linux-gnu/bin/../lib/gcc/nios2-elf/4.1.2/../../../../nios2-elf/lib/mno-hw-mul/pg/libc.a(lib_a-freer.o) (__malloc_lock)
../il2212-rtos_bsp//libucosii_bsp.a(os_core.o)
                              ../il2212-rtos_bsp//libucosii_bsp.a(alt_main.o) (OSInit)
../il2212-rtos_bsp//libucosii_bsp.a(os_dbg.o)
                              ../il2212-rtos_bsp//libucosii_bsp.a(os_core.o) (OSDebugInit)
../il2212-rtos_bsp//libucosii_bsp.a(os_flag.o)
                              ../il2212-rtos_bsp//libucosii_bsp.a(os_core.o) (OS_FlagInit)
../il2212-rtos_bsp//libucosii_bsp.a(os_mem.o)
                              ../il2212-rtos_bsp//libucosii_bsp.a(os_core.o) (OS_MemInit)
../il2212-rtos_bsp//libucosii_bsp.a(os_q.o)
                              ../il2212-rtos_bsp//libucosii_bsp.a(os_core.o) (OS_QInit)
../il2212-rtos_bsp//libucosii_bsp.a(os_sem.o)
                              obj/default/cpu_0.o (OSSemCreate)
../il2212-rtos_bsp//libucosii_bsp.a(os_task.o)
                              obj/default/cpu_0.o (OSTaskCreateExt)
../il2212-rtos_bsp//libucosii_bsp.a(os_time.o)
                              ../il2212-rtos_bsp//libucosii_bsp.a(os_core.o) (OSTimeDly)
../il2212-rtos_bsp//libucosii_bsp.a(os_tmr.o)
                              obj/default/cpu_0.o (OSTmrSignal)
../il2212-rtos_bsp//libucosii_bsp.a(alt_sys_init.o)
                              ../il2212-rtos_bsp//libucosii_bsp.a(alt_main.o) (alt_irq_init)
../il2212-rtos_bsp//libucosii_bsp.a(altera_avalon_jtag_uart_fd.o)
                              ../il2212-rtos_bsp//libucosii_bsp.a(alt_sys_init.o) (altera_avalon_jtag_uart_read_fd)
../il2212-rtos_bsp//libucosii_bsp.a(altera_avalon_jtag_uart_init.o)
                              ../il2212-rtos_bsp//libucosii_bsp.a(alt_sys_init.o) (altera_avalon_jtag_uart_init)
../il2212-rtos_bsp//libucosii_bsp.a(altera_avalon_jtag_uart_ioctl.o)
                              ../il2212-rtos_bsp//libucosii_bsp.a(altera_avalon_jtag_uart_fd.o) (altera_avalon_jtag_uart_ioctl)
../il2212-rtos_bsp//libucosii_bsp.a(altera_avalon_jtag_uart_read.o)
                              ../il2212-rtos_bsp//libucosii_bsp.a(altera_avalon_jtag_uart_fd.o) (altera_avalon_jtag_uart_read)
../il2212-rtos_bsp//libucosii_bsp.a(altera_avalon_jtag_uart_write.o)
                              ../il2212-rtos_bsp//libucosii_bsp.a(altera_avalon_jtag_uart_fd.o) (altera_avalon_jtag_uart_write)
../il2212-rtos_bsp//libucosii_bsp.a(altera_avalon_mutex.o)
                              ../il2212-rtos_bsp//libucosii_bsp.a(alt_sys_init.o) (alt_mutex_list)
../il2212-rtos_bsp//libucosii_bsp.a(altera_avalon_performance_counter.o)
                              obj/default/cpu_0.o (perf_get_section_time)
../il2212-rtos_bsp//libucosii_bsp.a(altera_avalon_timer_sc.o)
                              ../il2212-rtos_bsp//libucosii_bsp.a(alt_sys_init.o) (alt_avalon_timer_sc_init)
../il2212-rtos_bsp//libucosii_bsp.a(altera_avalon_timer_vars.o)
                              ../il2212-rtos_bsp//libucosii_bsp.a(alt_sys_init.o) (altera_avalon_timer_ts_base)
../il2212-rtos_bsp//libucosii_bsp.a(perf_print_formatted_report.o)
                              obj/default/cpu_0.o (perf_print_formatted_report)
../il2212-rtos_bsp//libucosii_bsp.a(alt_dcache_flush_all.o)
                              ../il2212-rtos_bsp//libucosii_bsp.a(alt_load.o) (alt_dcache_flush_all)
../il2212-rtos_bsp//libucosii_bsp.a(alt_dev_llist_insert.o)
                              ../il2212-rtos_bsp//libucosii_bsp.a(alt_sys_init.o) (alt_dev_llist_insert)
../il2212-rtos_bsp//libucosii_bsp.a(alt_do_ctors.o)
                              ../il2212-rtos_bsp//libucosii_bsp.a(alt_main.o) (_do_ctors)
../il2212-rtos_bsp//libucosii_bsp.a(alt_do_dtors.o)
                              ../il2212-rtos_bsp//libucosii_bsp.a(alt_main.o) (_do_dtors)
../il2212-rtos_bsp//libucosii_bsp.a(alt_find_dev.o)
                              ../il2212-rtos_bsp//libucosii_bsp.a(altera_avalon_mutex.o) (alt_find_dev)
../il2212-rtos_bsp//libucosii_bsp.a(alt_gmon.o)
                              ../il2212-rtos_bsp//libucosii_bsp.a(alt_mcount.o) (__mcount_fn_head)
../il2212-rtos_bsp//libucosii_bsp.a(alt_icache_flush_all.o)
                              ../il2212-rtos_bsp//libucosii_bsp.a(alt_load.o) (alt_icache_flush_all)
../il2212-rtos_bsp//libucosii_bsp.a(alt_io_redirect.o)
                              ../il2212-rtos_bsp//libucosii_bsp.a(alt_main.o) (alt_io_redirect)
../il2212-rtos_bsp//libucosii_bsp.a(alt_irq_register.o)
                              ../il2212-rtos_bsp//libucosii_bsp.a(altera_avalon_jtag_uart_init.o) (alt_irq_register)
../il2212-rtos_bsp//libucosii_bsp.a(alt_irq_vars.o)
                              ../il2212-rtos_bsp//libucosii_bsp.a(alt_irq_register.o) (alt_irq_active)
../il2212-rtos_bsp//libucosii_bsp.a(alt_open.o)
                              ../il2212-rtos_bsp//libucosii_bsp.a(alt_io_redirect.o) (open)
../il2212-rtos_bsp//libucosii_bsp.a(altera_nios2_qsys_irq.o)
                              ../il2212-rtos_bsp//libucosii_bsp.a(alt_sys_init.o) (altera_nios2_qsys_irq_init)
../il2212-rtos_bsp//libucosii_bsp.a(os_cpu_a.o)
                              ../il2212-rtos_bsp//libucosii_bsp.a(os_core.o) (OSIntCtxSw)
../il2212-rtos_bsp//libucosii_bsp.a(os_cpu_c.o)
                              ../il2212-rtos_bsp//libucosii_bsp.a(os_task.o) (OSTaskStkInit)
../il2212-rtos_bsp//libucosii_bsp.a(alt_find_file.o)
                              ../il2212-rtos_bsp//libucosii_bsp.a(alt_open.o) (alt_find_file)
../il2212-rtos_bsp//libucosii_bsp.a(alt_get_fd.o)
                              ../il2212-rtos_bsp//libucosii_bsp.a(alt_open.o) (alt_get_fd)
../il2212-rtos_bsp//libucosii_bsp.a(alt_irq_entry.o)
                              ../il2212-rtos_bsp//libucosii_bsp.a(alt_irq_register.o) (alt_irq_entry)
../il2212-rtos_bsp//libucosii_bsp.a(alt_irq_handler.o)
                              ../il2212-rtos_bsp//libucosii_bsp.a(alt_irq_register.o) (alt_irq_handler)
../il2212-rtos_bsp//libucosii_bsp.a(alt_exception_entry.o)
                              ../il2212-rtos_bsp//libucosii_bsp.a(alt_irq_entry.o) (alt_exception)
/opt/altera/13.0sp1/nios2eds/bin/gnu/H-i686-pc-linux-gnu/bin/../lib/gcc/nios2-elf/4.1.2/../../../../nios2-elf/lib/mno-hw-mul/pg/libc.a(lib_a-atexit.o)
                              ../il2212-rtos_bsp//libucosii_bsp.a(alt_main.o) (atexit)
/opt/altera/13.0sp1/nios2eds/bin/gnu/H-i686-pc-linux-gnu/bin/../lib/gcc/nios2-elf/4.1.2/../../../../nios2-elf/lib/mno-hw-mul/pg/libc.a(lib_a-exit.o)
                              ../il2212-rtos_bsp//libucosii_bsp.a(alt_main.o) (exit)
/opt/altera/13.0sp1/nios2eds/bin/gnu/H-i686-pc-linux-gnu/bin/../lib/gcc/nios2-elf/4.1.2/../../../../nios2-elf/lib/mno-hw-mul/pg/libc.a(lib_a-memcmp.o)
                              ../il2212-rtos_bsp//libucosii_bsp.a(alt_find_dev.o) (memcmp)
/opt/altera/13.0sp1/nios2eds/bin/gnu/H-i686-pc-linux-gnu/bin/../lib/gcc/nios2-elf/4.1.2/../../../../nios2-elf/lib/mno-hw-mul/pg/libc.a(lib_a-__atexit.o)
                              /opt/altera/13.0sp1/nios2eds/bin/gnu/H-i686-pc-linux-gnu/bin/../lib/gcc/nios2-elf/4.1.2/../../../../nios2-elf/lib/mno-hw-mul/pg/libc.a(lib_a-atexit.o) (__register_exitproc)
/opt/altera/13.0sp1/nios2eds/bin/gnu/H-i686-pc-linux-gnu/bin/../lib/gcc/nios2-elf/4.1.2/../../../../nios2-elf/lib/mno-hw-mul/pg/libc.a(lib_a-__call_atexit.o)
                              /opt/altera/13.0sp1/nios2eds/bin/gnu/H-i686-pc-linux-gnu/bin/../lib/gcc/nios2-elf/4.1.2/../../../../nios2-elf/lib/mno-hw-mul/pg/libc.a(lib_a-exit.o) (__call_exitprocs)
/opt/altera/13.0sp1/nios2eds/bin/gnu/H-i686-pc-linux-gnu/bin/../lib/gcc/nios2-elf/4.1.2/mno-hw-mul/pg/libgcc.a(_fixunsdfsi.o)
                              ../il2212-rtos_bsp//libucosii_bsp.a(os_time.o) (__fixunsdfsi)
../il2212-rtos_bsp//libucosii_bsp.a(alt_exit.o)
                              /opt/altera/13.0sp1/nios2eds/bin/gnu/H-i686-pc-linux-gnu/bin/../lib/gcc/nios2-elf/4.1.2/../../../../nios2-elf/lib/mno-hw-mul/pg/libc.a(lib_a-exit.o) (_exit)

Allocating common symbols
Common symbol       size              file

OSTmrFreeList       0x4               ../il2212-rtos_bsp//libucosii_bsp.a(os_core.o)
alt_irq             0x100             ../il2212-rtos_bsp//libucosii_bsp.a(alt_irq_handler.o)
OSTmrWheelTbl       0x10              ../il2212-rtos_bsp//libucosii_bsp.a(os_core.o)
task1_stk           0x2000            obj/default/cpu_0.o
OSLockNesting       0x1               ../il2212-rtos_bsp//libucosii_bsp.a(os_core.o)
OSTmrSemSignal      0x4               ../il2212-rtos_bsp//libucosii_bsp.a(os_core.o)
PosMaxSem           0x4               obj/default/cpu_0.o
OSRunning           0x1               ../il2212-rtos_bsp//libucosii_bsp.a(os_core.o)
OSIdleCtr           0x4               ../il2212-rtos_bsp//libucosii_bsp.a(os_core.o)
OSTmrUsed           0x2               ../il2212-rtos_bsp//libucosii_bsp.a(os_core.o)
OSPrioHighRdy       0x1               ../il2212-rtos_bsp//libucosii_bsp.a(os_core.o)
errno               0x4               /opt/altera/13.0sp1/nios2eds/bin/gnu/H-i686-pc-linux-gnu/bin/../lib/gcc/nios2-elf/4.1.2/../../../../nios2-elf/lib/mno-hw-mul/pg/libc.a(lib_a-int_errno.o)
alt_heapsem         0x4               ../il2212-rtos_bsp//libucosii_bsp.a(alt_malloc_lock.o)
OSFlagTbl           0x370             ../il2212-rtos_bsp//libucosii_bsp.a(os_core.o)
OSTmrTbl            0x340             ../il2212-rtos_bsp//libucosii_bsp.a(os_core.o)
OSPrioCur           0x1               ../il2212-rtos_bsp//libucosii_bsp.a(os_core.o)
OSTCBList           0x4               ../il2212-rtos_bsp//libucosii_bsp.a(os_core.o)
alt_fd_list_lock    0x4               ../il2212-rtos_bsp//libucosii_bsp.a(alt_dev.o)
OSMemTbl            0xc30             ../il2212-rtos_bsp//libucosii_bsp.a(os_core.o)
OSTickStepState     0x1               ../il2212-rtos_bsp//libucosii_bsp.a(os_core.o)
OSTaskStatStk       0x800             ../il2212-rtos_bsp//libucosii_bsp.a(os_core.o)
CalcCoordSem        0x4               obj/default/cpu_0.o
objectPosSem        0x4               obj/default/cpu_0.o
OSCtxSwCtr          0x4               ../il2212-rtos_bsp//libucosii_bsp.a(os_core.o)
OSTmrFree           0x2               ../il2212-rtos_bsp//libucosii_bsp.a(os_core.o)
OSIdleCtrMax        0x4               ../il2212-rtos_bsp//libucosii_bsp.a(os_core.o)
xCorr2Task_stk      0x2000            obj/default/cpu_0.o
GrayTask_stk        0x2000            obj/default/cpu_0.o
OSTCBFreeList       0x4               ../il2212-rtos_bsp//libucosii_bsp.a(os_core.o)
xCorr2Sem           0x4               obj/default/cpu_0.o
OSCPUUsage          0x1               ../il2212-rtos_bsp//libucosii_bsp.a(os_core.o)
CropSem             0x4               obj/default/cpu_0.o
OSTaskCtr           0x1               ../il2212-rtos_bsp//libucosii_bsp.a(os_core.o)
OSMemFreeList       0x4               ../il2212-rtos_bsp//libucosii_bsp.a(os_core.o)
OSQTbl              0x1e0             ../il2212-rtos_bsp//libucosii_bsp.a(os_core.o)
CropTask_stk        0x2000            obj/default/cpu_0.o
OSTCBHighRdy        0x4               ../il2212-rtos_bsp//libucosii_bsp.a(os_core.o)
OSQFreeList         0x4               ../il2212-rtos_bsp//libucosii_bsp.a(os_core.o)
OSRdyGrp            0x1               ../il2212-rtos_bsp//libucosii_bsp.a(os_core.o)
err                 0x1               obj/default/cpu_0.o
_atexit0            0x190             /opt/altera/13.0sp1/nios2eds/bin/gnu/H-i686-pc-linux-gnu/bin/../lib/gcc/nios2-elf/4.1.2/../../../../nios2-elf/lib/mno-hw-mul/pg/libc.a(lib_a-atexit.o)
StartTask_Stack     0x2000            obj/default/cpu_0.o
OSRdyTbl            0x3               ../il2212-rtos_bsp//libucosii_bsp.a(os_core.o)
ObjectPosTask_stk   0x2000            obj/default/cpu_0.o
delay               0x4               obj/default/cpu_0.o
OSTmrTaskStk        0x800             ../il2212-rtos_bsp//libucosii_bsp.a(os_core.o)
Task1TmrSem         0x4               obj/default/cpu_0.o
GrayedSem           0x4               obj/default/cpu_0.o
OSEventFreeList     0x4               ../il2212-rtos_bsp//libucosii_bsp.a(os_core.o)
PosMaxTask_stk      0x2000            obj/default/cpu_0.o
OSIntNesting        0x1               ../il2212-rtos_bsp//libucosii_bsp.a(os_core.o)
OSTCBCur            0x4               ../il2212-rtos_bsp//libucosii_bsp.a(os_core.o)
OSTmrTime           0x4               ../il2212-rtos_bsp//libucosii_bsp.a(os_core.o)
OSTime              0x4               ../il2212-rtos_bsp//libucosii_bsp.a(os_core.o)
OSTmrSem            0x4               ../il2212-rtos_bsp//libucosii_bsp.a(os_core.o)
OSTaskIdleStk       0x800             ../il2212-rtos_bsp//libucosii_bsp.a(os_core.o)
CalcCoordTask_stk   0x2000            obj/default/cpu_0.o
__mcount_fn_head    0x100             ../il2212-rtos_bsp//libucosii_bsp.a(alt_gmon.o)
OSEventTbl          0xb40             ../il2212-rtos_bsp//libucosii_bsp.a(os_core.o)
OSTCBTbl            0x510             ../il2212-rtos_bsp//libucosii_bsp.a(os_core.o)
OSFlagFreeList      0x4               ../il2212-rtos_bsp//libucosii_bsp.a(os_core.o)
OSStatRdy           0x1               ../il2212-rtos_bsp//libucosii_bsp.a(os_core.o)
OSTCBPrioTbl        0x54              ../il2212-rtos_bsp//libucosii_bsp.a(os_core.o)
alt_envsem          0x4               ../il2212-rtos_bsp//libucosii_bsp.a(alt_env_lock.o)
OSIdleCtrRun        0x4               ../il2212-rtos_bsp//libucosii_bsp.a(os_core.o)
Task1Sem            0x4               obj/default/cpu_0.o

Memory Configuration

Name             Origin             Length             Attributes
reset            0x00080000         0x00000020
sram             0x00080020         0x0007ffe0
shared_onchip    0x00102000         0x00002000
sdram            0x01000000         0x00800000
*default*        0x00000000         0xffffffff

Linker script and memory map

LOAD ../il2212-rtos_bsp//obj/HAL/src/crt0.o
LOAD obj/default/cpu_0.o
LOAD /opt/altera/13.0sp1/nios2eds/bin/gnu/H-i686-pc-linux-gnu/bin/../lib/gcc/nios2-elf/4.1.2/../../../../nios2-elf/lib/mno-hw-mul/pg/libstdc++.a
LOAD /opt/altera/13.0sp1/nios2eds/bin/gnu/H-i686-pc-linux-gnu/bin/../lib/gcc/nios2-elf/4.1.2/../../../../nios2-elf/lib/mno-hw-mul/pg/libm.a
LOAD /opt/altera/13.0sp1/nios2eds/bin/gnu/H-i686-pc-linux-gnu/bin/../lib/gcc/nios2-elf/4.1.2/mno-hw-mul/pg/libgcc.a
START GROUP
LOAD /opt/altera/13.0sp1/nios2eds/bin/gnu/H-i686-pc-linux-gnu/bin/../lib/gcc/nios2-elf/4.1.2/../../../../nios2-elf/lib/mno-hw-mul/pg/libc.a
LOAD /opt/altera/13.0sp1/nios2eds/bin/gnu/H-i686-pc-linux-gnu/bin/../lib/gcc/nios2-elf/4.1.2/mno-hw-mul/pg/libgcc.a
LOAD ../il2212-rtos_bsp//libucosii_bsp.a
END GROUP
LOAD /opt/altera/13.0sp1/nios2eds/bin/gnu/H-i686-pc-linux-gnu/bin/../lib/gcc/nios2-elf/4.1.2/mno-hw-mul/pg/libgcc.a
                0x00080000                __alt_mem_sram = 0x80000
                0x00102000                __alt_mem_shared_onchip = 0x102000
                0x01000000                __alt_mem_sdram = 0x1000000

.entry          0x00080000       0x20
 *(.entry)
 .entry         0x00080000       0x20 ../il2212-rtos_bsp//obj/HAL/src/crt0.o
                0x00080000                __reset

.exceptions     0x00080020      0x1ac load address 0x01000000
                0x00080020                PROVIDE (__ram_exceptions_start, ABSOLUTE (.))
                0x00080020                . = ALIGN (0x20)
 *(.irq)
 *(.exceptions.entry.label)
 .exceptions.entry.label
                0x00080020        0x0 ../il2212-rtos_bsp//libucosii_bsp.a(alt_irq_entry.o)
                0x00080020                alt_irq_entry
 .exceptions.entry.label
                0x00080020        0x0 ../il2212-rtos_bsp//libucosii_bsp.a(alt_exception_entry.o)
                0x00080020                alt_exception
 *(.exceptions.entry.user)
 *(.exceptions.entry)
 .exceptions.entry
                0x00080020       0x54 ../il2212-rtos_bsp//libucosii_bsp.a(alt_exception_entry.o)
 *(.exceptions.irqtest.user)
 *(.exceptions.irqtest)
 .exceptions.irqtest
                0x00080074       0x10 ../il2212-rtos_bsp//libucosii_bsp.a(alt_irq_entry.o)
 *(.exceptions.irqhandler.user)
 *(.exceptions.irqhandler)
 .exceptions.irqhandler
                0x00080084        0x4 ../il2212-rtos_bsp//libucosii_bsp.a(alt_irq_entry.o)
 *(.exceptions.irqreturn.user)
 *(.exceptions.irqreturn)
 .exceptions.irqreturn
                0x00080088        0x4 ../il2212-rtos_bsp//libucosii_bsp.a(alt_irq_entry.o)
 *(.exceptions.notirq.label)
 .exceptions.notirq.label
                0x0008008c        0x0 ../il2212-rtos_bsp//libucosii_bsp.a(alt_irq_entry.o)
 *(.exceptions.notirq.user)
 *(.exceptions.notirq)
 .exceptions.notirq
                0x0008008c        0x8 ../il2212-rtos_bsp//libucosii_bsp.a(alt_exception_entry.o)
 *(.exceptions.soft.user)
 *(.exceptions.soft)
 *(.exceptions.unknown.user)
 *(.exceptions.unknown)
 .exceptions.unknown
                0x00080094        0x4 ../il2212-rtos_bsp//libucosii_bsp.a(alt_exception_entry.o)
 *(.exceptions.exit.label)
 .exceptions.exit.label
                0x00080098        0x0 ../il2212-rtos_bsp//libucosii_bsp.a(alt_irq_entry.o)
 .exceptions.exit.label
                0x00080098        0x0 ../il2212-rtos_bsp//libucosii_bsp.a(alt_exception_entry.o)
 *(.exceptions.exit.user)
 *(.exceptions.exit)
 .exceptions.exit
                0x00080098       0x54 ../il2212-rtos_bsp//libucosii_bsp.a(alt_exception_entry.o)
 *(.exceptions)
 .exceptions    0x000800ec       0xe0 ../il2212-rtos_bsp//libucosii_bsp.a(alt_irq_handler.o)
                0x000800ec                alt_irq_handler
                0x000801cc                PROVIDE (__ram_exceptions_end, ABSOLUTE (.))
                0x01000000                PROVIDE (__flash_exceptions_start, LOADADDR (.exceptions))

.text           0x010001ac    0x19c1c
                0x010001ac                PROVIDE (stext, ABSOLUTE (.))
 *(.interp)
 *(.hash)
 *(.dynsym)
 *(.dynstr)
 *(.gnu.version)
 *(.gnu.version_d)
 *(.gnu.version_r)
 *(.rel.init)
 *(.rela.init)
 *(.rel.text .rel.text.* .rel.gnu.linkonce.t.*)
 *(.rela.text .rela.text.* .rela.gnu.linkonce.t.*)
 *(.rel.fini)
 *(.rela.fini)
 *(.rel.rodata .rel.rodata.* .rel.gnu.linkonce.r.*)
 *(.rela.rodata .rela.rodata.* .rela.gnu.linkonce.r.*)
 *(.rel.data .rel.data.* .rel.gnu.linkonce.d.*)
 *(.rela.data .rela.data.* .rela.gnu.linkonce.d.*)
 *(.rel.tdata .rel.tdata.* .rel.gnu.linkonce.td.*)
 *(.rela.tdata .rela.tdata.* .rela.gnu.linkonce.td.*)
 *(.rel.tbss .rel.tbss.* .rel.gnu.linkonce.tb.*)
 *(.rela.tbss .rela.tbss.* .rela.gnu.linkonce.tb.*)
 *(.rel.ctors)
 *(.rela.ctors)
 *(.rel.dtors)
 *(.rela.dtors)
 *(.rel.got)
 *(.rela.got)
 *(.rel.sdata .rel.sdata.* .rel.gnu.linkonce.s.*)
 *(.rela.sdata .rela.sdata.* .rela.gnu.linkonce.s.*)
 *(.rel.sbss .rel.sbss.* .rel.gnu.linkonce.sb.*)
 *(.rela.sbss .rela.sbss.* .rela.gnu.linkonce.sb.*)
 *(.rel.sdata2 .rel.sdata2.* .rel.gnu.linkonce.s2.*)
 *(.rela.sdata2 .rela.sdata2.* .rela.gnu.linkonce.s2.*)
 *(.rel.sbss2 .rel.sbss2.* .rel.gnu.linkonce.sb2.*)
 *(.rela.sbss2 .rela.sbss2.* .rela.gnu.linkonce.sb2.*)
 *(.rel.bss .rel.bss.* .rel.gnu.linkonce.b.*)
 *(.rela.bss .rela.bss.* .rela.gnu.linkonce.b.*)
 *(.rel.plt)
 *(.rela.plt)
 *(.rel.dyn)
 *(.init)
 *(.plt)
 *(.text .stub .text.* .gnu.linkonce.t.*)
 .text          0x010001ac       0x3c ../il2212-rtos_bsp//obj/HAL/src/crt0.o
                0x010001ac                _start
 .text          0x010001e8     0x1568 obj/default/cpu_0.o
                0x010001e8                printAscii
                0x010002fc                printAsciiHidden
                0x010004c4                alarm_handler
                0x01000500                task1
                0x0100060c                Grayscale
                0x010007d8                GrayTask
                0x010009cc                CalcCoord
                0x01000b2c                CalcCoordTask
                0x01000bac                crop
                0x01000cc8                CropTask
                0x01000d3c                stencilmat
                0x01000f3c                xCorr2
                0x01001090                xCorr2Task
                0x010010e0                posMax
                0x0100127c                PosMaxTask
                0x010012cc                objectPos
                0x01001350                ObjectPosTask
                0x010013e0                StartTask
                0x01001688                main
 .text          0x01001750       0x94 /opt/altera/13.0sp1/nios2eds/bin/gnu/H-i686-pc-linux-gnu/bin/../lib/gcc/nios2-elf/4.1.2/mno-hw-mul/pg/libgcc.a(_floatundidf.o)
                0x01001750                __floatundidf
 .text          0x010017e4      0x528 /opt/altera/13.0sp1/nios2eds/bin/gnu/H-i686-pc-linux-gnu/bin/../lib/gcc/nios2-elf/4.1.2/mno-hw-mul/pg/libgcc.a(_addsub_df.o)
                0x01001c00                __subdf3
                0x01001c8c                __adddf3
 .text          0x01001d0c      0x3d0 /opt/altera/13.0sp1/nios2eds/bin/gnu/H-i686-pc-linux-gnu/bin/../lib/gcc/nios2-elf/4.1.2/mno-hw-mul/pg/libgcc.a(_mul_df.o)
                0x01001d0c                __muldf3
 .text          0x010020dc      0x264 /opt/altera/13.0sp1/nios2eds/bin/gnu/H-i686-pc-linux-gnu/bin/../lib/gcc/nios2-elf/4.1.2/mno-hw-mul/pg/libgcc.a(_div_df.o)
                0x010020dc                __divdf3
 .text          0x01002340        0x0 /opt/altera/13.0sp1/nios2eds/bin/gnu/H-i686-pc-linux-gnu/bin/../lib/gcc/nios2-elf/4.1.2/mno-hw-mul/pg/libgcc.a(_thenan_df.o)
 .text          0x01002340      0x1a0 /opt/altera/13.0sp1/nios2eds/bin/gnu/H-i686-pc-linux-gnu/bin/../lib/gcc/nios2-elf/4.1.2/mno-hw-mul/pg/libgcc.a(_usi_to_df.o)
                0x01002340                __floatunsidf
 .text          0x010024e0      0x188 /opt/altera/13.0sp1/nios2eds/bin/gnu/H-i686-pc-linux-gnu/bin/../lib/gcc/nios2-elf/4.1.2/mno-hw-mul/pg/libgcc.a(lib2-divmod.o)
                0x01002568                __divsi3
                0x010025d4                __modsi3
                0x01002640                __udivsi3
                0x01002654                __umodsi3
 .text          0x01002668       0x44 /opt/altera/13.0sp1/nios2eds/bin/gnu/H-i686-pc-linux-gnu/bin/../lib/gcc/nios2-elf/4.1.2/mno-hw-mul/pg/libgcc.a(lib2-mul.o)
                0x01002668                __mulsi3
 .text          0x010026ac      0x130 /opt/altera/13.0sp1/nios2eds/bin/gnu/H-i686-pc-linux-gnu/bin/../lib/gcc/nios2-elf/4.1.2/mno-hw-mul/pg/libgcc.a(_muldi3.o)
                0x010026ac                __muldi3
 .text          0x010027dc       0x8c /opt/altera/13.0sp1/nios2eds/bin/gnu/H-i686-pc-linux-gnu/bin/../lib/gcc/nios2-elf/4.1.2/mno-hw-mul/pg/libgcc.a(_clzsi2.o)
                0x010027dc                __clzsi2
 .text          0x01002868      0x320 /opt/altera/13.0sp1/nios2eds/bin/gnu/H-i686-pc-linux-gnu/bin/../lib/gcc/nios2-elf/4.1.2/mno-hw-mul/pg/libgcc.a(_pack_df.o)
                0x01002868                __pack_d
 .text          0x01002b88      0x144 /opt/altera/13.0sp1/nios2eds/bin/gnu/H-i686-pc-linux-gnu/bin/../lib/gcc/nios2-elf/4.1.2/mno-hw-mul/pg/libgcc.a(_unpack_df.o)
                0x01002b88                __unpack_d
 .text          0x01002ccc        0x0 /opt/altera/13.0sp1/nios2eds/bin/gnu/H-i686-pc-linux-gnu/bin/../lib/gcc/nios2-elf/4.1.2/mno-hw-mul/pg/libgcc.a(_clz.o)
 .text          0x01002ccc       0x90 /opt/altera/13.0sp1/nios2eds/bin/gnu/H-i686-pc-linux-gnu/bin/../lib/gcc/nios2-elf/4.1.2/../../../../nios2-elf/lib/mno-hw-mul/pg/libc.a(lib_a-printf.o)
                0x01002ccc                printf
                0x01002d1c                _printf_r
 .text          0x01002d5c       0x3c /opt/altera/13.0sp1/nios2eds/bin/gnu/H-i686-pc-linux-gnu/bin/../lib/gcc/nios2-elf/4.1.2/../../../../nios2-elf/lib/mno-hw-mul/pg/libc.a(lib_a-putchar.o)
                0x01002d5c                putchar
                0x01002d84                _putchar_r
 .text          0x01002d98       0xcc /opt/altera/13.0sp1/nios2eds/bin/gnu/H-i686-pc-linux-gnu/bin/../lib/gcc/nios2-elf/4.1.2/../../../../nios2-elf/lib/mno-hw-mul/pg/libc.a(lib_a-puts.o)
                0x01002d98                _puts_r
                0x01002e44                puts
 .text          0x01002e64       0x80 /opt/altera/13.0sp1/nios2eds/bin/gnu/H-i686-pc-linux-gnu/bin/../lib/gcc/nios2-elf/4.1.2/../../../../nios2-elf/lib/mno-hw-mul/pg/libc.a(lib_a-strlen.o)
                0x01002e64                strlen
 .text          0x01002ee4     0x1f64 /opt/altera/13.0sp1/nios2eds/bin/gnu/H-i686-pc-linux-gnu/bin/../lib/gcc/nios2-elf/4.1.2/../../../../nios2-elf/lib/mno-hw-mul/pg/libc.a(lib_a-vfprintf.o)
                0x01002f48                ___vfprintf_internal_r
                0x01004e18                __vfprintf_internal
 .text          0x01004e48      0x148 /opt/altera/13.0sp1/nios2eds/bin/gnu/H-i686-pc-linux-gnu/bin/../lib/gcc/nios2-elf/4.1.2/../../../../nios2-elf/lib/mno-hw-mul/pg/libc.a(lib_a-wsetup.o)
                0x01004e48                __swsetup_r
 .text          0x01004f90     0x1810 /opt/altera/13.0sp1/nios2eds/bin/gnu/H-i686-pc-linux-gnu/bin/../lib/gcc/nios2-elf/4.1.2/../../../../nios2-elf/lib/mno-hw-mul/pg/libc.a(lib_a-dtoa.o)
                0x010051e0                _dtoa_r
 .text          0x010067a0      0x248 /opt/altera/13.0sp1/nios2eds/bin/gnu/H-i686-pc-linux-gnu/bin/../lib/gcc/nios2-elf/4.1.2/../../../../nios2-elf/lib/mno-hw-mul/pg/libc.a(lib_a-fflush.o)
                0x010067a0                _fflush_r
                0x010069a8                fflush
 .text          0x010069e8      0x39c /opt/altera/13.0sp1/nios2eds/bin/gnu/H-i686-pc-linux-gnu/bin/../lib/gcc/nios2-elf/4.1.2/../../../../nios2-elf/lib/mno-hw-mul/pg/libc.a(lib_a-findfp.o)
                0x01006a4c                __sfp_lock_acquire
                0x01006a5c                __sfp_lock_release
                0x01006a6c                __sinit_lock_acquire
                0x01006a7c                __sinit_lock_release
                0x01006a8c                __sinit
                0x01006b64                __fp_unlock_all
                0x01006b88                __fp_lock_all
                0x01006bac                _cleanup_r
                0x01006bc4                _cleanup
                0x01006be0                __sfmoreglue
                0x01006c88                __sfp
 .text          0x01006d84      0x458 /opt/altera/13.0sp1/nios2eds/bin/gnu/H-i686-pc-linux-gnu/bin/../lib/gcc/nios2-elf/4.1.2/../../../../nios2-elf/lib/mno-hw-mul/pg/libc.a(lib_a-freer.o)
                0x01006d84                _malloc_trim_r
                0x01006ebc                _free_r
 .text          0x010071dc      0x4a8 /opt/altera/13.0sp1/nios2eds/bin/gnu/H-i686-pc-linux-gnu/bin/../lib/gcc/nios2-elf/4.1.2/../../../../nios2-elf/lib/mno-hw-mul/pg/libc.a(lib_a-fvwrite.o)
                0x010071dc                __sfvwrite_r
 .text          0x01007684      0x198 /opt/altera/13.0sp1/nios2eds/bin/gnu/H-i686-pc-linux-gnu/bin/../lib/gcc/nios2-elf/4.1.2/../../../../nios2-elf/lib/mno-hw-mul/pg/libc.a(lib_a-fwalk.o)
                0x01007684                _fwalk_reent
                0x01007758                _fwalk
 .text          0x0100781c        0x0 /opt/altera/13.0sp1/nios2eds/bin/gnu/H-i686-pc-linux-gnu/bin/../lib/gcc/nios2-elf/4.1.2/../../../../nios2-elf/lib/mno-hw-mul/pg/libc.a(lib_a-impure.o)
 .text          0x0100781c      0x100 /opt/altera/13.0sp1/nios2eds/bin/gnu/H-i686-pc-linux-gnu/bin/../lib/gcc/nios2-elf/4.1.2/../../../../nios2-elf/lib/mno-hw-mul/pg/libc.a(lib_a-locale.o)
                0x0100781c                __locale_charset
                0x01007830                _localeconv_r
                0x01007848                localeconv
                0x01007864                _setlocale_r
                0x010078f4                setlocale
 .text          0x0100791c      0x1a0 /opt/altera/13.0sp1/nios2eds/bin/gnu/H-i686-pc-linux-gnu/bin/../lib/gcc/nios2-elf/4.1.2/../../../../nios2-elf/lib/mno-hw-mul/pg/libc.a(lib_a-makebuf.o)
                0x0100791c                __smakebuf_r
 .text          0x01007abc      0x74c /opt/altera/13.0sp1/nios2eds/bin/gnu/H-i686-pc-linux-gnu/bin/../lib/gcc/nios2-elf/4.1.2/../../../../nios2-elf/lib/mno-hw-mul/pg/libc.a(lib_a-mallocr.o)
                0x01007abc                _malloc_r
 .text          0x01008208       0xf0 /opt/altera/13.0sp1/nios2eds/bin/gnu/H-i686-pc-linux-gnu/bin/../lib/gcc/nios2-elf/4.1.2/../../../../nios2-elf/lib/mno-hw-mul/pg/libc.a(lib_a-memchr.o)
                0x01008208                memchr
 .text          0x010082f8       0xac /opt/altera/13.0sp1/nios2eds/bin/gnu/H-i686-pc-linux-gnu/bin/../lib/gcc/nios2-elf/4.1.2/../../../../nios2-elf/lib/mno-hw-mul/pg/libc.a(lib_a-memcpy.o)
                0x010082f8                memcpy
 .text          0x010083a4       0xec /opt/altera/13.0sp1/nios2eds/bin/gnu/H-i686-pc-linux-gnu/bin/../lib/gcc/nios2-elf/4.1.2/../../../../nios2-elf/lib/mno-hw-mul/pg/libc.a(lib_a-memmove.o)
                0x010083a4                memmove
 .text          0x01008490       0xa4 /opt/altera/13.0sp1/nios2eds/bin/gnu/H-i686-pc-linux-gnu/bin/../lib/gcc/nios2-elf/4.1.2/../../../../nios2-elf/lib/mno-hw-mul/pg/libc.a(lib_a-memset.o)
                0x01008490                memset
 .text          0x01008534     0x1174 /opt/altera/13.0sp1/nios2eds/bin/gnu/H-i686-pc-linux-gnu/bin/../lib/gcc/nios2-elf/4.1.2/../../../../nios2-elf/lib/mno-hw-mul/pg/libc.a(lib_a-mprec.o)
                0x01008534                _Bfree
                0x01008568                __hi0bits
                0x010085e4                __lo0bits
                0x010086b4                __mcmp
                0x01008720                __ulp
                0x010087ac                __b2d
                0x010088d8                __ratio
                0x01008994                _mprec_log10
                0x01008a34                __copybits
                0x01008a98                __any_on
                0x01008b30                _Balloc
                0x01008bf8                __d2b
                0x01008d80                __mdiff
                0x01008f18                __lshift
                0x01009070                __multiply
                0x010092d0                __i2b
                0x01009318                __multadd
                0x01009450                __pow5mult
                0x0100957c                __s2b
 .text          0x010096a8      0x204 /opt/altera/13.0sp1/nios2eds/bin/gnu/H-i686-pc-linux-gnu/bin/../lib/gcc/nios2-elf/4.1.2/../../../../nios2-elf/lib/mno-hw-mul/pg/libc.a(lib_a-putc.o)
                0x010096a8                putc
                0x010097b8                _putc_r
 .text          0x010098ac      0x600 /opt/altera/13.0sp1/nios2eds/bin/gnu/H-i686-pc-linux-gnu/bin/../lib/gcc/nios2-elf/4.1.2/../../../../nios2-elf/lib/mno-hw-mul/pg/libc.a(lib_a-reallocr.o)
                0x010098ac                _realloc_r
 .text          0x01009eac       0x4c /opt/altera/13.0sp1/nios2eds/bin/gnu/H-i686-pc-linux-gnu/bin/../lib/gcc/nios2-elf/4.1.2/../../../../nios2-elf/lib/mno-hw-mul/pg/libc.a(lib_a-s_isinfd.o)
                0x01009eac                __isinfd
 .text          0x01009ef8       0x3c /opt/altera/13.0sp1/nios2eds/bin/gnu/H-i686-pc-linux-gnu/bin/../lib/gcc/nios2-elf/4.1.2/../../../../nios2-elf/lib/mno-hw-mul/pg/libc.a(lib_a-s_isnand.o)
                0x01009ef8                __isnand
 .text          0x01009f34       0x7c /opt/altera/13.0sp1/nios2eds/bin/gnu/H-i686-pc-linux-gnu/bin/../lib/gcc/nios2-elf/4.1.2/../../../../nios2-elf/lib/mno-hw-mul/pg/libc.a(lib_a-sbrkr.o)
                0x01009f34                _sbrk_r
 .text          0x01009fb0      0x17c /opt/altera/13.0sp1/nios2eds/bin/gnu/H-i686-pc-linux-gnu/bin/../lib/gcc/nios2-elf/4.1.2/../../../../nios2-elf/lib/mno-hw-mul/pg/libc.a(lib_a-stdio.o)
                0x01009fb0                __sclose
                0x01009fc4                __sseek
                0x0100a038                __swrite
                0x0100a0c0                __sread
 .text          0x0100a12c       0xc8 /opt/altera/13.0sp1/nios2eds/bin/gnu/H-i686-pc-linux-gnu/bin/../lib/gcc/nios2-elf/4.1.2/../../../../nios2-elf/lib/mno-hw-mul/pg/libc.a(lib_a-strcmp.o)
                0x0100a12c                strcmp
 .text          0x0100a1f4      0x164 /opt/altera/13.0sp1/nios2eds/bin/gnu/H-i686-pc-linux-gnu/bin/../lib/gcc/nios2-elf/4.1.2/../../../../nios2-elf/lib/mno-hw-mul/pg/libc.a(lib_a-wbuf.o)
                0x0100a1f4                __swbuf_r
                0x0100a330                __swbuf
 .text          0x0100a358       0x84 /opt/altera/13.0sp1/nios2eds/bin/gnu/H-i686-pc-linux-gnu/bin/../lib/gcc/nios2-elf/4.1.2/../../../../nios2-elf/lib/mno-hw-mul/pg/libc.a(lib_a-writer.o)
                0x0100a358                _write_r
 .text          0x0100a3dc       0xd4 /opt/altera/13.0sp1/nios2eds/bin/gnu/H-i686-pc-linux-gnu/bin/../lib/gcc/nios2-elf/4.1.2/../../../../nios2-elf/lib/mno-hw-mul/pg/libc.a(lib_a-callocr.o)
                0x0100a3dc                _calloc_r
 .text          0x0100a4b0       0x7c /opt/altera/13.0sp1/nios2eds/bin/gnu/H-i686-pc-linux-gnu/bin/../lib/gcc/nios2-elf/4.1.2/../../../../nios2-elf/lib/mno-hw-mul/pg/libc.a(lib_a-closer.o)
                0x0100a4b0                _close_r
 .text          0x0100a52c      0x13c /opt/altera/13.0sp1/nios2eds/bin/gnu/H-i686-pc-linux-gnu/bin/../lib/gcc/nios2-elf/4.1.2/../../../../nios2-elf/lib/mno-hw-mul/pg/libc.a(lib_a-fclose.o)
                0x0100a52c                _fclose_r
                0x0100a648                fclose
 .text          0x0100a668       0x80 /opt/altera/13.0sp1/nios2eds/bin/gnu/H-i686-pc-linux-gnu/bin/../lib/gcc/nios2-elf/4.1.2/../../../../nios2-elf/lib/mno-hw-mul/pg/libc.a(lib_a-fstatr.o)
                0x0100a668                _fstat_r
 .text          0x0100a6e8        0x0 /opt/altera/13.0sp1/nios2eds/bin/gnu/H-i686-pc-linux-gnu/bin/../lib/gcc/nios2-elf/4.1.2/../../../../nios2-elf/lib/mno-hw-mul/pg/libc.a(lib_a-int_errno.o)
 .text          0x0100a6e8       0x7c /opt/altera/13.0sp1/nios2eds/bin/gnu/H-i686-pc-linux-gnu/bin/../lib/gcc/nios2-elf/4.1.2/../../../../nios2-elf/lib/mno-hw-mul/pg/libc.a(lib_a-isattyr.o)
                0x0100a6e8                _isatty_r
 .text          0x0100a764       0x84 /opt/altera/13.0sp1/nios2eds/bin/gnu/H-i686-pc-linux-gnu/bin/../lib/gcc/nios2-elf/4.1.2/../../../../nios2-elf/lib/mno-hw-mul/pg/libc.a(lib_a-lseekr.o)
                0x0100a764                _lseek_r
 .text          0x0100a7e8       0x84 /opt/altera/13.0sp1/nios2eds/bin/gnu/H-i686-pc-linux-gnu/bin/../lib/gcc/nios2-elf/4.1.2/../../../../nios2-elf/lib/mno-hw-mul/pg/libc.a(lib_a-readr.o)
                0x0100a7e8                _read_r
 .text          0x0100a86c      0x678 /opt/altera/13.0sp1/nios2eds/bin/gnu/H-i686-pc-linux-gnu/bin/../lib/gcc/nios2-elf/4.1.2/mno-hw-mul/pg/libgcc.a(_udivdi3.o)
                0x0100a86c                __udivdi3
 .text          0x0100aee4      0x66c /opt/altera/13.0sp1/nios2eds/bin/gnu/H-i686-pc-linux-gnu/bin/../lib/gcc/nios2-elf/4.1.2/mno-hw-mul/pg/libgcc.a(_umoddi3.o)
                0x0100aee4                __umoddi3
 .text          0x0100b550       0x94 /opt/altera/13.0sp1/nios2eds/bin/gnu/H-i686-pc-linux-gnu/bin/../lib/gcc/nios2-elf/4.1.2/mno-hw-mul/pg/libgcc.a(_eq_df.o)
                0x0100b550                __eqdf2
 .text          0x0100b5e4       0x94 /opt/altera/13.0sp1/nios2eds/bin/gnu/H-i686-pc-linux-gnu/bin/../lib/gcc/nios2-elf/4.1.2/mno-hw-mul/pg/libgcc.a(_ne_df.o)
                0x0100b5e4                __nedf2
 .text          0x0100b678       0x94 /opt/altera/13.0sp1/nios2eds/bin/gnu/H-i686-pc-linux-gnu/bin/../lib/gcc/nios2-elf/4.1.2/mno-hw-mul/pg/libgcc.a(_gt_df.o)
                0x0100b678                __gtdf2
 .text          0x0100b70c       0x94 /opt/altera/13.0sp1/nios2eds/bin/gnu/H-i686-pc-linux-gnu/bin/../lib/gcc/nios2-elf/4.1.2/mno-hw-mul/pg/libgcc.a(_ge_df.o)
                0x0100b70c                __gedf2
 .text          0x0100b7a0       0x94 /opt/altera/13.0sp1/nios2eds/bin/gnu/H-i686-pc-linux-gnu/bin/../lib/gcc/nios2-elf/4.1.2/mno-hw-mul/pg/libgcc.a(_lt_df.o)
                0x0100b7a0                __ltdf2
 .text          0x0100b834      0x104 /opt/altera/13.0sp1/nios2eds/bin/gnu/H-i686-pc-linux-gnu/bin/../lib/gcc/nios2-elf/4.1.2/mno-hw-mul/pg/libgcc.a(_si_to_df.o)
                0x0100b834                __floatsidf
 .text          0x0100b938       0xe4 /opt/altera/13.0sp1/nios2eds/bin/gnu/H-i686-pc-linux-gnu/bin/../lib/gcc/nios2-elf/4.1.2/mno-hw-mul/pg/libgcc.a(_df_to_si.o)
                0x0100b938                __fixdfsi
 .text          0x0100ba1c       0xdc /opt/altera/13.0sp1/nios2eds/bin/gnu/H-i686-pc-linux-gnu/bin/../lib/gcc/nios2-elf/4.1.2/mno-hw-mul/pg/libgcc.a(_fpcmp_parts_df.o)
                0x0100ba1c                __fpcmp_parts_d
 .text          0x0100baf8      0x160 ../il2212-rtos_bsp//libucosii_bsp.a(alt_alarm_start.o)
                0x0100baf8                alt_alarm_start
 .text          0x0100bc58      0x178 ../il2212-rtos_bsp//libucosii_bsp.a(alt_close.o)
                0x0100bc58                close
 .text          0x0100bdd0       0x38 ../il2212-rtos_bsp//libucosii_bsp.a(alt_dev.o)
 .text          0x0100be08        0x0 ../il2212-rtos_bsp//libucosii_bsp.a(alt_errno.o)
 .text          0x0100be08      0x150 ../il2212-rtos_bsp//libucosii_bsp.a(alt_fstat.o)
                0x0100be08                fstat
 .text          0x0100bf58      0x13c ../il2212-rtos_bsp//libucosii_bsp.a(alt_isatty.o)
                0x0100bf58                isatty
 .text          0x0100c094      0x104 ../il2212-rtos_bsp//libucosii_bsp.a(alt_load.o)
                0x0100c094                alt_load
 .text          0x0100c198      0x16c ../il2212-rtos_bsp//libucosii_bsp.a(alt_lseek.o)
                0x0100c198                lseek
 .text          0x0100c304       0xd4 ../il2212-rtos_bsp//libucosii_bsp.a(alt_main.o)
                0x0100c304                alt_main
 .text          0x0100c3d8       0x9c ../il2212-rtos_bsp//libucosii_bsp.a(alt_mcount.o)
                0x0100c3d8                mcount
                0x0100c3d8                _mcount
 .text          0x0100c474      0x19c ../il2212-rtos_bsp//libucosii_bsp.a(alt_read.o)
                0x0100c474                read
 .text          0x0100c610       0x84 ../il2212-rtos_bsp//libucosii_bsp.a(alt_release_fd.o)
                0x0100c610                alt_release_fd
 .text          0x0100c694       0xbc ../il2212-rtos_bsp//libucosii_bsp.a(alt_sbrk.o)
                0x0100c694                sbrk
 .text          0x0100c750      0x1c0 ../il2212-rtos_bsp//libucosii_bsp.a(alt_tick.o)
                0x0100c750                alt_alarm_stop
                0x0100c7f4                alt_tick
 .text          0x0100c910      0x19c ../il2212-rtos_bsp//libucosii_bsp.a(alt_write.o)
                0x0100c910                write
 .text          0x0100caac      0x120 ../il2212-rtos_bsp//libucosii_bsp.a(alt_env_lock.o)
                0x0100caac                __env_lock
                0x0100cb64                __env_unlock
 .text          0x0100cbcc      0x1f0 ../il2212-rtos_bsp//libucosii_bsp.a(alt_malloc_lock.o)
                0x0100cbcc                __malloc_lock
                0x0100cce0                __malloc_unlock
 .text          0x0100cdbc     0x22d0 ../il2212-rtos_bsp//libucosii_bsp.a(os_core.o)
                0x0100cdbc                OSEventNameGet
                0x0100cef8                OSEventNameSet
                0x0100d048                OSEventPendMulti
                0x0100d708                OSInit
                0x0100d76c                OSIntEnter
                0x0100d7f4                OSIntExit
                0x0100d900                OSSchedLock
                0x0100d998                OSSchedUnlock
                0x0100da88                OSStart
                0x0100db04                OSStatInit
                0x0100dbbc                OSTimeTick
                0x0100de08                OSVersion
                0x0100de34                OS_Dummy
                0x0100de5c                OS_EventTaskRdy
                0x0100dffc                OS_EventTaskWait
                0x0100e118                OS_EventTaskWaitMulti
                0x0100e278                OS_EventTaskRemove
                0x0100e33c                OS_EventTaskRemoveMulti
                0x0100e44c                OS_EventWaitListInit
                0x0100e86c                OS_MemClr
                0x0100e8cc                OS_MemCopy
                0x0100e944                OS_Sched
                0x0100eaa0                OS_StrCopy
                0x0100eb2c                OS_StrLen
                0x0100eb90                OS_TaskIdle
                0x0100ebf8                OS_TaskStat
                0x0100eccc                OS_TaskStatStkChk
                0x0100eda0                OS_TCBInit
 .text          0x0100f08c      0x1f8 ../il2212-rtos_bsp//libucosii_bsp.a(os_dbg.o)
                0x0100f08c                OSDebugInit
 .text          0x0100f284     0x19d8 ../il2212-rtos_bsp//libucosii_bsp.a(os_flag.o)
                0x0100f284                OSFlagAccept
                0x0100f5c4                OSFlagCreate
                0x0100f70c                OSFlagDel
                0x0100f9c0                OSFlagNameGet
                0x0100fb10                OSFlagNameSet
                0x0100fc70                OSFlagPend
                0x010102c0                OSFlagPendGetFlagsRdy
                0x01010334                OSFlagPost
                0x010106e8                OSFlagQuery
                0x01010998                OS_FlagInit
                0x01010ba4                OS_FlagUnlink
 .text          0x01010c5c      0x860 ../il2212-rtos_bsp//libucosii_bsp.a(os_mem.o)
                0x01010c5c                OSMemCreate
                0x01010e84                OSMemGet
                0x01010f94                OSMemNameGet
                0x010110ac                OSMemNameSet
                0x010111d8                OSMemPut
                0x010112d4                OSMemQuery
                0x010113dc                OS_MemInit
 .text          0x010114bc     0x13b8 ../il2212-rtos_bsp//libucosii_bsp.a(os_q.o)
                0x010114bc                OSQAccept
                0x0101161c                OSQCreate
                0x0101183c                OSQDel
                0x01011b48                OSQFlush
                0x01011c1c                OSQPend
                0x01011f48                OSQPendAbort
                0x010120d0                OSQPost
                0x0101225c                OSQPostFront
                0x010123f0                OSQPostOpt
                0x01012630                OSQQuery
                0x010127bc                OS_QInit
 .text          0x01012874      0xc28 ../il2212-rtos_bsp//libucosii_bsp.a(os_sem.o)
                0x01012874                OSSemAccept
                0x01012940                OSSemCreate
                0x01012a60                OSSemDel
                0x01012d0c                OSSemPend
                0x01012f94                OSSemPendAbort
                0x0101311c                OSSemPost
                0x01013250                OSSemQuery
                0x0101338c                OSSemSet
 .text          0x0101349c     0x1ad0 ../il2212-rtos_bsp//libucosii_bsp.a(os_task.o)
                0x0101349c                OSTaskChangePrio
                0x01013a1c                OSTaskCreate
                0x01013bfc                OSTaskCreateExt
                0x01013e08                OSTaskDel
                0x01014220                OSTaskDelReq
                0x0101439c                OSTaskNameGet
                0x01014560                OSTaskNameSet
                0x01014730                OSTaskResume
                0x01014954                OSTaskStkChk
                0x01014b5c                OSTaskSuspend
                0x01014d94                OSTaskQuery
                0x01014ee4                OS_TaskStkClr
 .text          0x01014f6c      0x6b8 ../il2212-rtos_bsp//libucosii_bsp.a(os_time.o)
                0x01014f6c                OSTimeDly
                0x010150c4                OSTimeDlyHMSM
                0x01015328                OSTimeDlyResume
                0x01015544                OSTimeGet
                0x010155b4                OSTimeSet
 .text          0x01015624     0x141c ../il2212-rtos_bsp//libucosii_bsp.a(os_tmr.o)
                0x01015624                OSTmrCreate
                0x01015814                OSTmrDel
                0x01015998                OSTmrNameGet
                0x01015b10                OSTmrRemainGet
                0x01015d18                OSTmrStateGet
                0x01015e20                OSTmrStart
                0x01015fac                OSTmrStop
                0x010161e4                OSTmrSignal
                0x010163d0                OSTmr_Init
 .text          0x01016a40      0x2b0 ../il2212-rtos_bsp//libucosii_bsp.a(alt_sys_init.o)
                0x01016a40                alt_irq_init
                0x01016a80                alt_sys_init
 .text          0x01016cf0      0x178 ../il2212-rtos_bsp//libucosii_bsp.a(altera_avalon_jtag_uart_fd.o)
                0x01016cf0                altera_avalon_jtag_uart_read_fd
                0x01016d54                altera_avalon_jtag_uart_write_fd
                0x01016db8                altera_avalon_jtag_uart_close_fd
                0x01016e0c                altera_avalon_jtag_uart_ioctl_fd
 .text          0x01016e68      0x5b0 ../il2212-rtos_bsp//libucosii_bsp.a(altera_avalon_jtag_uart_init.o)
                0x01016e68                altera_avalon_jtag_uart_init
                0x01017398                altera_avalon_jtag_uart_close
 .text          0x01017418      0x100 ../il2212-rtos_bsp//libucosii_bsp.a(altera_avalon_jtag_uart_ioctl.o)
                0x01017418                altera_avalon_jtag_uart_ioctl
 .text          0x01017518      0x2cc ../il2212-rtos_bsp//libucosii_bsp.a(altera_avalon_jtag_uart_read.o)
                0x01017518                altera_avalon_jtag_uart_read
 .text          0x010177e4      0x2e8 ../il2212-rtos_bsp//libucosii_bsp.a(altera_avalon_jtag_uart_write.o)
                0x010177e4                altera_avalon_jtag_uart_write
 .text          0x01017acc      0x3dc ../il2212-rtos_bsp//libucosii_bsp.a(altera_avalon_mutex.o)
                0x01017b54                altera_avalon_mutex_open
                0x01017c24                altera_avalon_mutex_close
                0x01017c50                altera_avalon_mutex_lock
                0x01017cbc                altera_avalon_mutex_trylock
                0x01017d40                altera_avalon_mutex_unlock
                0x01017dbc                altera_avalon_mutex_is_mine
                0x01017e44                altera_avalon_mutex_first_lock
 .text          0x01017ea8      0x1c8 ../il2212-rtos_bsp//libucosii_bsp.a(altera_avalon_performance_counter.o)
                0x01017ea8                perf_get_section_time
                0x01017f64                perf_get_total_time
                0x01017fc4                perf_get_num_starts
                0x01018010                alt_get_performance_counter_base
                0x01018040                alt_get_cpu_freq
 .text          0x01018070      0x114 ../il2212-rtos_bsp//libucosii_bsp.a(altera_avalon_timer_sc.o)
                0x010180f0                alt_avalon_timer_sc_init
 .text          0x01018184        0x0 ../il2212-rtos_bsp//libucosii_bsp.a(altera_avalon_timer_vars.o)
 .text          0x01018184      0x2a0 ../il2212-rtos_bsp//libucosii_bsp.a(perf_print_formatted_report.o)
                0x01018184                perf_print_formatted_report
 .text          0x01018424       0x28 ../il2212-rtos_bsp//libucosii_bsp.a(alt_dcache_flush_all.o)
                0x01018424                alt_dcache_flush_all
 .text          0x0101844c      0x12c ../il2212-rtos_bsp//libucosii_bsp.a(alt_dev_llist_insert.o)
                0x0101844c                alt_dev_llist_insert
 .text          0x01018578       0x70 ../il2212-rtos_bsp//libucosii_bsp.a(alt_do_ctors.o)
                0x01018578                _do_ctors
 .text          0x010185e8       0x70 ../il2212-rtos_bsp//libucosii_bsp.a(alt_do_dtors.o)
                0x010185e8                _do_dtors
 .text          0x01018658       0xa0 ../il2212-rtos_bsp//libucosii_bsp.a(alt_find_dev.o)
                0x01018658                alt_find_dev
 .text          0x010186f8      0x2e8 ../il2212-rtos_bsp//libucosii_bsp.a(alt_gmon.o)
                0x010186f8                __mcount_record
 .text          0x010189e0       0x28 ../il2212-rtos_bsp//libucosii_bsp.a(alt_icache_flush_all.o)
                0x010189e0                alt_icache_flush_all
 .text          0x01018a08      0x168 ../il2212-rtos_bsp//libucosii_bsp.a(alt_io_redirect.o)
                0x01018aec                alt_io_redirect
 .text          0x01018b70      0x1cc ../il2212-rtos_bsp//libucosii_bsp.a(alt_irq_register.o)
                0x01018b70                alt_irq_register
 .text          0x01018d3c        0x0 ../il2212-rtos_bsp//libucosii_bsp.a(alt_irq_vars.o)
 .text          0x01018d3c      0x308 ../il2212-rtos_bsp//libucosii_bsp.a(alt_open.o)
                0x01018e40                open
 .text          0x01019044       0x2c ../il2212-rtos_bsp//libucosii_bsp.a(altera_nios2_qsys_irq.o)
                0x01019044                altera_nios2_qsys_irq_init
 .text          0x01019070       0xd0 ../il2212-rtos_bsp//libucosii_bsp.a(os_cpu_a.o)
                0x01019070                OSCtxSw
                0x01019070                OSIntCtxSw
                0x010190fc                OSStartHighRdy
                0x0101911c                OSStartTsk
 .text          0x01019140      0x4e4 ../il2212-rtos_bsp//libucosii_bsp.a(os_cpu_c.o)
                0x01019140                OSTaskStkInit
                0x0101945c                OSTaskCreateHook
                0x01019488                OSTaskDelHook
                0x010194b4                OSTaskSwHook
                0x010194dc                OSTaskStatHook
                0x01019504                OSTimeTickHook
                0x0101957c                OSInitHookBegin
                0x010195a8                OSInitHookEnd
                0x010195d0                OSTaskIdleHook
                0x010195f8                OSTCBInitHook
 .text          0x01019624      0x12c ../il2212-rtos_bsp//libucosii_bsp.a(alt_find_file.o)
                0x01019624                alt_find_file
 .text          0x01019750      0x110 ../il2212-rtos_bsp//libucosii_bsp.a(alt_get_fd.o)
                0x01019750                alt_get_fd
 .text          0x01019860        0x0 ../il2212-rtos_bsp//libucosii_bsp.a(alt_irq_entry.o)
 .text          0x01019860        0x0 ../il2212-rtos_bsp//libucosii_bsp.a(alt_irq_handler.o)
 .text          0x01019860        0x0 ../il2212-rtos_bsp//libucosii_bsp.a(alt_exception_entry.o)
 .text          0x01019860       0x20 /opt/altera/13.0sp1/nios2eds/bin/gnu/H-i686-pc-linux-gnu/bin/../lib/gcc/nios2-elf/4.1.2/../../../../nios2-elf/lib/mno-hw-mul/pg/libc.a(lib_a-atexit.o)
                0x01019860                atexit
 .text          0x01019880       0x44 /opt/altera/13.0sp1/nios2eds/bin/gnu/H-i686-pc-linux-gnu/bin/../lib/gcc/nios2-elf/4.1.2/../../../../nios2-elf/lib/mno-hw-mul/pg/libc.a(lib_a-exit.o)
                0x01019880                exit
 .text          0x010198c4       0x80 /opt/altera/13.0sp1/nios2eds/bin/gnu/H-i686-pc-linux-gnu/bin/../lib/gcc/nios2-elf/4.1.2/../../../../nios2-elf/lib/mno-hw-mul/pg/libc.a(lib_a-memcmp.o)
                0x010198c4                memcmp
 .text          0x01019944      0x140 /opt/altera/13.0sp1/nios2eds/bin/gnu/H-i686-pc-linux-gnu/bin/../lib/gcc/nios2-elf/4.1.2/../../../../nios2-elf/lib/mno-hw-mul/pg/libc.a(lib_a-__atexit.o)
                0x01019944                __register_exitproc
 .text          0x01019a84      0x1cc /opt/altera/13.0sp1/nios2eds/bin/gnu/H-i686-pc-linux-gnu/bin/../lib/gcc/nios2-elf/4.1.2/../../../../nios2-elf/lib/mno-hw-mul/pg/libc.a(lib_a-__call_atexit.o)
                0x01019a94                __call_exitprocs
 .text          0x01019c50       0xb0 /opt/altera/13.0sp1/nios2eds/bin/gnu/H-i686-pc-linux-gnu/bin/../lib/gcc/nios2-elf/4.1.2/mno-hw-mul/pg/libgcc.a(_fixunsdfsi.o)
                0x01019c50                __fixunsdfsi
 .text          0x01019d00       0xc4 ../il2212-rtos_bsp//libucosii_bsp.a(alt_exit.o)
                0x01019d8c                _exit
 *(.gnu.warning.*)
 *(.fini)
                0x01019dc4                PROVIDE (__etext, ABSOLUTE (.))
                0x01019dc4                PROVIDE (_etext, ABSOLUTE (.))
                0x01019dc4                PROVIDE (etext, ABSOLUTE (.))
 *(.eh_frame_hdr)
                0x01019dc4                . = ALIGN (0x4)
                0x01019dc4                PROVIDE (__preinit_array_start, ABSOLUTE (.))
 *(.preinit_array)
                0x01019dc4                PROVIDE (__preinit_array_end, ABSOLUTE (.))
                0x01019dc4                PROVIDE (__init_array_start, ABSOLUTE (.))
 *(.init_array)
                0x01019dc4                PROVIDE (__init_array_end, ABSOLUTE (.))
                0x01019dc4                PROVIDE (__fini_array_start, ABSOLUTE (.))
 *(.fini_array)
                0x01019dc4                PROVIDE (__fini_array_end, ABSOLUTE (.))
 *(.eh_frame)
 *(.gcc_except_table)
 *(.dynamic)
                0x01019dc4                PROVIDE (__CTOR_LIST__, ABSOLUTE (.))
 *(.ctors)
 *(SORT(.ctors.*))
 .ctors.65535   0x01019dc4        0x4 /opt/altera/13.0sp1/nios2eds/bin/gnu/H-i686-pc-linux-gnu/bin/../lib/gcc/nios2-elf/4.1.2/../../../../nios2-elf/lib/mno-hw-mul/pg/libc.a(lib_a-__call_atexit.o)
                0x01019dc8                PROVIDE (__CTOR_END__, ABSOLUTE (.))
                0x01019dc8                PROVIDE (__DTOR_LIST__, ABSOLUTE (.))
 *(.dtors)
 *(SORT(.dtors.*))
                0x01019dc8                PROVIDE (__DTOR_END__, ABSOLUTE (.))
 *(.jcr)
                0x01019dc8                . = ALIGN (0x4)

.rodata         0x01019dc8      0x6f0
                0x01019dc8                PROVIDE (__ram_rodata_start, ABSOLUTE (.))
                0x01019dc8                . = ALIGN (0x4)
 *(.rodata .rodata.* .gnu.linkonce.r.*)
 .rodata        0x01019dc8       0xd0 obj/default/cpu_0.o
 .rodata        0x01019e98       0x14 /opt/altera/13.0sp1/nios2eds/bin/gnu/H-i686-pc-linux-gnu/bin/../lib/gcc/nios2-elf/4.1.2/mno-hw-mul/pg/libgcc.a(_thenan_df.o)
                0x01019e98                __thenan_df
 .rodata        0x01019eac      0x100 /opt/altera/13.0sp1/nios2eds/bin/gnu/H-i686-pc-linux-gnu/bin/../lib/gcc/nios2-elf/4.1.2/mno-hw-mul/pg/libgcc.a(_clz.o)
                0x01019eac                __clz_tab
 .rodata.str1.4
                0x01019fac        0x2 /opt/altera/13.0sp1/nios2eds/bin/gnu/H-i686-pc-linux-gnu/bin/../lib/gcc/nios2-elf/4.1.2/../../../../nios2-elf/lib/mno-hw-mul/pg/libc.a(lib_a-puts.o)
                                  0x4 (size before relaxing)
 *fill*         0x01019fae        0x2 00
 .rodata.str1.4
                0x01019fb0       0x5e /opt/altera/13.0sp1/nios2eds/bin/gnu/H-i686-pc-linux-gnu/bin/../lib/gcc/nios2-elf/4.1.2/../../../../nios2-elf/lib/mno-hw-mul/pg/libc.a(lib_a-vfprintf.o)
                                 0x60 (size before relaxing)
 .rodata        0x0101a00e       0x20 /opt/altera/13.0sp1/nios2eds/bin/gnu/H-i686-pc-linux-gnu/bin/../lib/gcc/nios2-elf/4.1.2/../../../../nios2-elf/lib/mno-hw-mul/pg/libc.a(lib_a-vfprintf.o)
 *fill*         0x0101a02e        0x2 00
 .rodata.str1.4
                0x0101a030       0x10 /opt/altera/13.0sp1/nios2eds/bin/gnu/H-i686-pc-linux-gnu/bin/../lib/gcc/nios2-elf/4.1.2/../../../../nios2-elf/lib/mno-hw-mul/pg/libc.a(lib_a-dtoa.o)
                                 0x14 (size before relaxing)
 .rodata.str1.4
                0x0101a040        0x2 /opt/altera/13.0sp1/nios2eds/bin/gnu/H-i686-pc-linux-gnu/bin/../lib/gcc/nios2-elf/4.1.2/../../../../nios2-elf/lib/mno-hw-mul/pg/libc.a(lib_a-impure.o)
                                  0x4 (size before relaxing)
 *fill*         0x0101a042        0x2 00
 .rodata.str1.4
                0x0101a044       0x10 /opt/altera/13.0sp1/nios2eds/bin/gnu/H-i686-pc-linux-gnu/bin/../lib/gcc/nios2-elf/4.1.2/../../../../nios2-elf/lib/mno-hw-mul/pg/libc.a(lib_a-locale.o)
                                 0x18 (size before relaxing)
 .rodata        0x0101a054       0x30 /opt/altera/13.0sp1/nios2eds/bin/gnu/H-i686-pc-linux-gnu/bin/../lib/gcc/nios2-elf/4.1.2/../../../../nios2-elf/lib/mno-hw-mul/pg/libc.a(lib_a-locale.o)
 .rodata        0x0101a084      0x124 /opt/altera/13.0sp1/nios2eds/bin/gnu/H-i686-pc-linux-gnu/bin/../lib/gcc/nios2-elf/4.1.2/../../../../nios2-elf/lib/mno-hw-mul/pg/libc.a(lib_a-mprec.o)
                0x0101a084                __mprec_tens
                0x0101a14c                __mprec_bigtens
                0x0101a174                __mprec_tinytens
 .rodata        0x0101a1a8        0xc ../il2212-rtos_bsp//libucosii_bsp.a(alt_dev.o)
 .rodata        0x0101a1b4       0x14 ../il2212-rtos_bsp//libucosii_bsp.a(alt_main.o)
 .rodata        0x0101a1c8      0x120 ../il2212-rtos_bsp//libucosii_bsp.a(os_core.o)
                0x0101a1c8                OSUnMapTbl
 .rodata        0x0101a2e8       0x38 ../il2212-rtos_bsp//libucosii_bsp.a(os_tmr.o)
 .rodata        0x0101a320       0x94 ../il2212-rtos_bsp//libucosii_bsp.a(alt_sys_init.o)
 .rodata        0x0101a3b4      0x100 ../il2212-rtos_bsp//libucosii_bsp.a(perf_print_formatted_report.o)
 .rodata        0x0101a4b4        0x4 ../il2212-rtos_bsp//libucosii_bsp.a(os_cpu_c.o)
 *(.rodata1)
                0x0101a4b8                . = ALIGN (0x4)
                0x0101a4b8                PROVIDE (__ram_rodata_end, ABSOLUTE (.))
                0x01019dc8                PROVIDE (__flash_rodata_start, LOADADDR (.rodata))

.rwdata         0x0101a4b8     0xdc34 load address 0x010280ec
                0x0101a4b8                PROVIDE (__ram_rwdata_start, ABSOLUTE (.))
                0x0101a4b8                . = ALIGN (0x4)
 *(.got.plt)
 *(.got)
 *(.data1)
 *(.data .data.* .gnu.linkonce.d.*)
 .data          0x0101a4b8        0x0 ../il2212-rtos_bsp//obj/HAL/src/crt0.o
 .data          0x0101a4b8     0xc02c obj/default/cpu_0.o
                0x0101a4b8                asciiChars
                0x0101a4c8                test_ppm_1
                0x0101d4cb                test_ppm_2
                0x010204ce                test_ppm_3
                0x010234d1                test_ppm_4
                0x010264d4                image_sequence
 .data          0x010264e4        0x0 /opt/altera/13.0sp1/nios2eds/bin/gnu/H-i686-pc-linux-gnu/bin/../lib/gcc/nios2-elf/4.1.2/mno-hw-mul/pg/libgcc.a(_floatundidf.o)
 .data          0x010264e4        0x0 /opt/altera/13.0sp1/nios2eds/bin/gnu/H-i686-pc-linux-gnu/bin/../lib/gcc/nios2-elf/4.1.2/mno-hw-mul/pg/libgcc.a(_addsub_df.o)
 .data          0x010264e4        0x0 /opt/altera/13.0sp1/nios2eds/bin/gnu/H-i686-pc-linux-gnu/bin/../lib/gcc/nios2-elf/4.1.2/mno-hw-mul/pg/libgcc.a(_mul_df.o)
 .data          0x010264e4        0x0 /opt/altera/13.0sp1/nios2eds/bin/gnu/H-i686-pc-linux-gnu/bin/../lib/gcc/nios2-elf/4.1.2/mno-hw-mul/pg/libgcc.a(_div_df.o)
 .data          0x010264e4        0x0 /opt/altera/13.0sp1/nios2eds/bin/gnu/H-i686-pc-linux-gnu/bin/../lib/gcc/nios2-elf/4.1.2/mno-hw-mul/pg/libgcc.a(_thenan_df.o)
 .data          0x010264e4        0x0 /opt/altera/13.0sp1/nios2eds/bin/gnu/H-i686-pc-linux-gnu/bin/../lib/gcc/nios2-elf/4.1.2/mno-hw-mul/pg/libgcc.a(_usi_to_df.o)
 .data          0x010264e4        0x0 /opt/altera/13.0sp1/nios2eds/bin/gnu/H-i686-pc-linux-gnu/bin/../lib/gcc/nios2-elf/4.1.2/mno-hw-mul/pg/libgcc.a(lib2-divmod.o)
 .data          0x010264e4        0x0 /opt/altera/13.0sp1/nios2eds/bin/gnu/H-i686-pc-linux-gnu/bin/../lib/gcc/nios2-elf/4.1.2/mno-hw-mul/pg/libgcc.a(lib2-mul.o)
 .data          0x010264e4        0x0 /opt/altera/13.0sp1/nios2eds/bin/gnu/H-i686-pc-linux-gnu/bin/../lib/gcc/nios2-elf/4.1.2/mno-hw-mul/pg/libgcc.a(_muldi3.o)
 .data          0x010264e4        0x0 /opt/altera/13.0sp1/nios2eds/bin/gnu/H-i686-pc-linux-gnu/bin/../lib/gcc/nios2-elf/4.1.2/mno-hw-mul/pg/libgcc.a(_clzsi2.o)
 .data          0x010264e4        0x0 /opt/altera/13.0sp1/nios2eds/bin/gnu/H-i686-pc-linux-gnu/bin/../lib/gcc/nios2-elf/4.1.2/mno-hw-mul/pg/libgcc.a(_pack_df.o)
 .data          0x010264e4        0x0 /opt/altera/13.0sp1/nios2eds/bin/gnu/H-i686-pc-linux-gnu/bin/../lib/gcc/nios2-elf/4.1.2/mno-hw-mul/pg/libgcc.a(_unpack_df.o)
 .data          0x010264e4        0x0 /opt/altera/13.0sp1/nios2eds/bin/gnu/H-i686-pc-linux-gnu/bin/../lib/gcc/nios2-elf/4.1.2/mno-hw-mul/pg/libgcc.a(_clz.o)
 .data          0x010264e4        0x0 /opt/altera/13.0sp1/nios2eds/bin/gnu/H-i686-pc-linux-gnu/bin/../lib/gcc/nios2-elf/4.1.2/../../../../nios2-elf/lib/mno-hw-mul/pg/libc.a(lib_a-printf.o)
 .data          0x010264e4        0x0 /opt/altera/13.0sp1/nios2eds/bin/gnu/H-i686-pc-linux-gnu/bin/../lib/gcc/nios2-elf/4.1.2/../../../../nios2-elf/lib/mno-hw-mul/pg/libc.a(lib_a-putchar.o)
 .data          0x010264e4        0x0 /opt/altera/13.0sp1/nios2eds/bin/gnu/H-i686-pc-linux-gnu/bin/../lib/gcc/nios2-elf/4.1.2/../../../../nios2-elf/lib/mno-hw-mul/pg/libc.a(lib_a-puts.o)
 .data          0x010264e4        0x0 /opt/altera/13.0sp1/nios2eds/bin/gnu/H-i686-pc-linux-gnu/bin/../lib/gcc/nios2-elf/4.1.2/../../../../nios2-elf/lib/mno-hw-mul/pg/libc.a(lib_a-strlen.o)
 .data          0x010264e4        0x0 /opt/altera/13.0sp1/nios2eds/bin/gnu/H-i686-pc-linux-gnu/bin/../lib/gcc/nios2-elf/4.1.2/../../../../nios2-elf/lib/mno-hw-mul/pg/libc.a(lib_a-vfprintf.o)
 .data          0x010264e4        0x0 /opt/altera/13.0sp1/nios2eds/bin/gnu/H-i686-pc-linux-gnu/bin/../lib/gcc/nios2-elf/4.1.2/../../../../nios2-elf/lib/mno-hw-mul/pg/libc.a(lib_a-wsetup.o)
 .data          0x010264e4        0x0 /opt/altera/13.0sp1/nios2eds/bin/gnu/H-i686-pc-linux-gnu/bin/../lib/gcc/nios2-elf/4.1.2/../../../../nios2-elf/lib/mno-hw-mul/pg/libc.a(lib_a-dtoa.o)
 .data          0x010264e4        0x0 /opt/altera/13.0sp1/nios2eds/bin/gnu/H-i686-pc-linux-gnu/bin/../lib/gcc/nios2-elf/4.1.2/../../../../nios2-elf/lib/mno-hw-mul/pg/libc.a(lib_a-fflush.o)
 .data          0x010264e4        0x0 /opt/altera/13.0sp1/nios2eds/bin/gnu/H-i686-pc-linux-gnu/bin/../lib/gcc/nios2-elf/4.1.2/../../../../nios2-elf/lib/mno-hw-mul/pg/libc.a(lib_a-findfp.o)
 .data          0x010264e4        0x0 /opt/altera/13.0sp1/nios2eds/bin/gnu/H-i686-pc-linux-gnu/bin/../lib/gcc/nios2-elf/4.1.2/../../../../nios2-elf/lib/mno-hw-mul/pg/libc.a(lib_a-freer.o)
 .data          0x010264e4        0x0 /opt/altera/13.0sp1/nios2eds/bin/gnu/H-i686-pc-linux-gnu/bin/../lib/gcc/nios2-elf/4.1.2/../../../../nios2-elf/lib/mno-hw-mul/pg/libc.a(lib_a-fvwrite.o)
 .data          0x010264e4        0x0 /opt/altera/13.0sp1/nios2eds/bin/gnu/H-i686-pc-linux-gnu/bin/../lib/gcc/nios2-elf/4.1.2/../../../../nios2-elf/lib/mno-hw-mul/pg/libc.a(lib_a-fwalk.o)
 .data          0x010264e4      0x400 /opt/altera/13.0sp1/nios2eds/bin/gnu/H-i686-pc-linux-gnu/bin/../lib/gcc/nios2-elf/4.1.2/../../../../nios2-elf/lib/mno-hw-mul/pg/libc.a(lib_a-impure.o)
 .data          0x010268e4        0xc /opt/altera/13.0sp1/nios2eds/bin/gnu/H-i686-pc-linux-gnu/bin/../lib/gcc/nios2-elf/4.1.2/../../../../nios2-elf/lib/mno-hw-mul/pg/libc.a(lib_a-locale.o)
                0x010268e4                __lc_ctype
 .data          0x010268f0        0x0 /opt/altera/13.0sp1/nios2eds/bin/gnu/H-i686-pc-linux-gnu/bin/../lib/gcc/nios2-elf/4.1.2/../../../../nios2-elf/lib/mno-hw-mul/pg/libc.a(lib_a-makebuf.o)
 .data          0x010268f0      0x408 /opt/altera/13.0sp1/nios2eds/bin/gnu/H-i686-pc-linux-gnu/bin/../lib/gcc/nios2-elf/4.1.2/../../../../nios2-elf/lib/mno-hw-mul/pg/libc.a(lib_a-mallocr.o)
                0x010268f0                __malloc_av_
 .data          0x01026cf8        0x0 /opt/altera/13.0sp1/nios2eds/bin/gnu/H-i686-pc-linux-gnu/bin/../lib/gcc/nios2-elf/4.1.2/../../../../nios2-elf/lib/mno-hw-mul/pg/libc.a(lib_a-memchr.o)
 .data          0x01026cf8        0x0 /opt/altera/13.0sp1/nios2eds/bin/gnu/H-i686-pc-linux-gnu/bin/../lib/gcc/nios2-elf/4.1.2/../../../../nios2-elf/lib/mno-hw-mul/pg/libc.a(lib_a-memcpy.o)
 .data          0x01026cf8        0x0 /opt/altera/13.0sp1/nios2eds/bin/gnu/H-i686-pc-linux-gnu/bin/../lib/gcc/nios2-elf/4.1.2/../../../../nios2-elf/lib/mno-hw-mul/pg/libc.a(lib_a-memmove.o)
 .data          0x01026cf8        0x0 /opt/altera/13.0sp1/nios2eds/bin/gnu/H-i686-pc-linux-gnu/bin/../lib/gcc/nios2-elf/4.1.2/../../../../nios2-elf/lib/mno-hw-mul/pg/libc.a(lib_a-memset.o)
 .data          0x01026cf8        0x0 /opt/altera/13.0sp1/nios2eds/bin/gnu/H-i686-pc-linux-gnu/bin/../lib/gcc/nios2-elf/4.1.2/../../../../nios2-elf/lib/mno-hw-mul/pg/libc.a(lib_a-mprec.o)
 .data          0x01026cf8        0x0 /opt/altera/13.0sp1/nios2eds/bin/gnu/H-i686-pc-linux-gnu/bin/../lib/gcc/nios2-elf/4.1.2/../../../../nios2-elf/lib/mno-hw-mul/pg/libc.a(lib_a-putc.o)
 .data          0x01026cf8        0x0 /opt/altera/13.0sp1/nios2eds/bin/gnu/H-i686-pc-linux-gnu/bin/../lib/gcc/nios2-elf/4.1.2/../../../../nios2-elf/lib/mno-hw-mul/pg/libc.a(lib_a-reallocr.o)
 .data          0x01026cf8        0x0 /opt/altera/13.0sp1/nios2eds/bin/gnu/H-i686-pc-linux-gnu/bin/../lib/gcc/nios2-elf/4.1.2/../../../../nios2-elf/lib/mno-hw-mul/pg/libc.a(lib_a-s_isinfd.o)
 .data          0x01026cf8        0x0 /opt/altera/13.0sp1/nios2eds/bin/gnu/H-i686-pc-linux-gnu/bin/../lib/gcc/nios2-elf/4.1.2/../../../../nios2-elf/lib/mno-hw-mul/pg/libc.a(lib_a-s_isnand.o)
 .data          0x01026cf8        0x0 /opt/altera/13.0sp1/nios2eds/bin/gnu/H-i686-pc-linux-gnu/bin/../lib/gcc/nios2-elf/4.1.2/../../../../nios2-elf/lib/mno-hw-mul/pg/libc.a(lib_a-sbrkr.o)
 .data          0x01026cf8        0x0 /opt/altera/13.0sp1/nios2eds/bin/gnu/H-i686-pc-linux-gnu/bin/../lib/gcc/nios2-elf/4.1.2/../../../../nios2-elf/lib/mno-hw-mul/pg/libc.a(lib_a-stdio.o)
 .data          0x01026cf8        0x0 /opt/altera/13.0sp1/nios2eds/bin/gnu/H-i686-pc-linux-gnu/bin/../lib/gcc/nios2-elf/4.1.2/../../../../nios2-elf/lib/mno-hw-mul/pg/libc.a(lib_a-strcmp.o)
 .data          0x01026cf8        0x0 /opt/altera/13.0sp1/nios2eds/bin/gnu/H-i686-pc-linux-gnu/bin/../lib/gcc/nios2-elf/4.1.2/../../../../nios2-elf/lib/mno-hw-mul/pg/libc.a(lib_a-wbuf.o)
 .data          0x01026cf8        0x0 /opt/altera/13.0sp1/nios2eds/bin/gnu/H-i686-pc-linux-gnu/bin/../lib/gcc/nios2-elf/4.1.2/../../../../nios2-elf/lib/mno-hw-mul/pg/libc.a(lib_a-writer.o)
 .data          0x01026cf8        0x0 /opt/altera/13.0sp1/nios2eds/bin/gnu/H-i686-pc-linux-gnu/bin/../lib/gcc/nios2-elf/4.1.2/../../../../nios2-elf/lib/mno-hw-mul/pg/libc.a(lib_a-callocr.o)
 .data          0x01026cf8        0x0 /opt/altera/13.0sp1/nios2eds/bin/gnu/H-i686-pc-linux-gnu/bin/../lib/gcc/nios2-elf/4.1.2/../../../../nios2-elf/lib/mno-hw-mul/pg/libc.a(lib_a-closer.o)
 .data          0x01026cf8        0x0 /opt/altera/13.0sp1/nios2eds/bin/gnu/H-i686-pc-linux-gnu/bin/../lib/gcc/nios2-elf/4.1.2/../../../../nios2-elf/lib/mno-hw-mul/pg/libc.a(lib_a-fclose.o)
 .data          0x01026cf8        0x0 /opt/altera/13.0sp1/nios2eds/bin/gnu/H-i686-pc-linux-gnu/bin/../lib/gcc/nios2-elf/4.1.2/../../../../nios2-elf/lib/mno-hw-mul/pg/libc.a(lib_a-fstatr.o)
 .data          0x01026cf8        0x0 /opt/altera/13.0sp1/nios2eds/bin/gnu/H-i686-pc-linux-gnu/bin/../lib/gcc/nios2-elf/4.1.2/../../../../nios2-elf/lib/mno-hw-mul/pg/libc.a(lib_a-int_errno.o)
 .data          0x01026cf8        0x0 /opt/altera/13.0sp1/nios2eds/bin/gnu/H-i686-pc-linux-gnu/bin/../lib/gcc/nios2-elf/4.1.2/../../../../nios2-elf/lib/mno-hw-mul/pg/libc.a(lib_a-isattyr.o)
 .data          0x01026cf8        0x0 /opt/altera/13.0sp1/nios2eds/bin/gnu/H-i686-pc-linux-gnu/bin/../lib/gcc/nios2-elf/4.1.2/../../../../nios2-elf/lib/mno-hw-mul/pg/libc.a(lib_a-lseekr.o)
 .data          0x01026cf8        0x0 /opt/altera/13.0sp1/nios2eds/bin/gnu/H-i686-pc-linux-gnu/bin/../lib/gcc/nios2-elf/4.1.2/../../../../nios2-elf/lib/mno-hw-mul/pg/libc.a(lib_a-readr.o)
 .data          0x01026cf8        0x0 /opt/altera/13.0sp1/nios2eds/bin/gnu/H-i686-pc-linux-gnu/bin/../lib/gcc/nios2-elf/4.1.2/mno-hw-mul/pg/libgcc.a(_udivdi3.o)
 .data          0x01026cf8        0x0 /opt/altera/13.0sp1/nios2eds/bin/gnu/H-i686-pc-linux-gnu/bin/../lib/gcc/nios2-elf/4.1.2/mno-hw-mul/pg/libgcc.a(_umoddi3.o)
 .data          0x01026cf8        0x0 /opt/altera/13.0sp1/nios2eds/bin/gnu/H-i686-pc-linux-gnu/bin/../lib/gcc/nios2-elf/4.1.2/mno-hw-mul/pg/libgcc.a(_eq_df.o)
 .data          0x01026cf8        0x0 /opt/altera/13.0sp1/nios2eds/bin/gnu/H-i686-pc-linux-gnu/bin/../lib/gcc/nios2-elf/4.1.2/mno-hw-mul/pg/libgcc.a(_ne_df.o)
 .data          0x01026cf8        0x0 /opt/altera/13.0sp1/nios2eds/bin/gnu/H-i686-pc-linux-gnu/bin/../lib/gcc/nios2-elf/4.1.2/mno-hw-mul/pg/libgcc.a(_gt_df.o)
 .data          0x01026cf8        0x0 /opt/altera/13.0sp1/nios2eds/bin/gnu/H-i686-pc-linux-gnu/bin/../lib/gcc/nios2-elf/4.1.2/mno-hw-mul/pg/libgcc.a(_ge_df.o)
 .data          0x01026cf8        0x0 /opt/altera/13.0sp1/nios2eds/bin/gnu/H-i686-pc-linux-gnu/bin/../lib/gcc/nios2-elf/4.1.2/mno-hw-mul/pg/libgcc.a(_lt_df.o)
 .data          0x01026cf8        0x0 /opt/altera/13.0sp1/nios2eds/bin/gnu/H-i686-pc-linux-gnu/bin/../lib/gcc/nios2-elf/4.1.2/mno-hw-mul/pg/libgcc.a(_si_to_df.o)
 .data          0x01026cf8        0x0 /opt/altera/13.0sp1/nios2eds/bin/gnu/H-i686-pc-linux-gnu/bin/../lib/gcc/nios2-elf/4.1.2/mno-hw-mul/pg/libgcc.a(_df_to_si.o)
 .data          0x01026cf8        0x0 /opt/altera/13.0sp1/nios2eds/bin/gnu/H-i686-pc-linux-gnu/bin/../lib/gcc/nios2-elf/4.1.2/mno-hw-mul/pg/libgcc.a(_fpcmp_parts_df.o)
 .data          0x01026cf8        0x0 ../il2212-rtos_bsp//libucosii_bsp.a(alt_alarm_start.o)
 .data          0x01026cf8        0x0 ../il2212-rtos_bsp//libucosii_bsp.a(alt_close.o)
 .data          0x01026cf8      0x1a8 ../il2212-rtos_bsp//libucosii_bsp.a(alt_dev.o)
                0x01026cf8                alt_dev_null
                0x01026d20                alt_fd_list
 .data          0x01026ea0        0x0 ../il2212-rtos_bsp//libucosii_bsp.a(alt_errno.o)
 .data          0x01026ea0        0x0 ../il2212-rtos_bsp//libucosii_bsp.a(alt_fstat.o)
 .data          0x01026ea0        0x0 ../il2212-rtos_bsp//libucosii_bsp.a(alt_isatty.o)
 .data          0x01026ea0        0x0 ../il2212-rtos_bsp//libucosii_bsp.a(alt_load.o)
 .data          0x01026ea0        0x0 ../il2212-rtos_bsp//libucosii_bsp.a(alt_lseek.o)
 .data          0x01026ea0        0x0 ../il2212-rtos_bsp//libucosii_bsp.a(alt_main.o)
 .data          0x01026ea0        0x0 ../il2212-rtos_bsp//libucosii_bsp.a(alt_mcount.o)
 .data          0x01026ea0        0x0 ../il2212-rtos_bsp//libucosii_bsp.a(alt_read.o)
 .data          0x01026ea0        0x0 ../il2212-rtos_bsp//libucosii_bsp.a(alt_release_fd.o)
 .data          0x01026ea0        0x0 ../il2212-rtos_bsp//libucosii_bsp.a(alt_sbrk.o)
 .data          0x01026ea0        0x0 ../il2212-rtos_bsp//libucosii_bsp.a(alt_tick.o)
 .data          0x01026ea0        0x0 ../il2212-rtos_bsp//libucosii_bsp.a(alt_write.o)
 .data          0x01026ea0        0x0 ../il2212-rtos_bsp//libucosii_bsp.a(alt_env_lock.o)
 .data          0x01026ea0        0x0 ../il2212-rtos_bsp//libucosii_bsp.a(alt_malloc_lock.o)
 .data          0x01026ea0        0x0 ../il2212-rtos_bsp//libucosii_bsp.a(os_core.o)
 .data          0x01026ea0        0x0 ../il2212-rtos_bsp//libucosii_bsp.a(os_dbg.o)
 .data          0x01026ea0        0x0 ../il2212-rtos_bsp//libucosii_bsp.a(os_flag.o)
 .data          0x01026ea0        0x0 ../il2212-rtos_bsp//libucosii_bsp.a(os_mem.o)
 .data          0x01026ea0        0x0 ../il2212-rtos_bsp//libucosii_bsp.a(os_q.o)
 .data          0x01026ea0        0x0 ../il2212-rtos_bsp//libucosii_bsp.a(os_sem.o)
 .data          0x01026ea0        0x0 ../il2212-rtos_bsp//libucosii_bsp.a(os_task.o)
 .data          0x01026ea0        0x0 ../il2212-rtos_bsp//libucosii_bsp.a(os_time.o)
 .data          0x01026ea0        0x0 ../il2212-rtos_bsp//libucosii_bsp.a(os_tmr.o)
 .data          0x01026ea0     0x1154 ../il2212-rtos_bsp//libucosii_bsp.a(alt_sys_init.o)
 .data          0x01027ff4        0x0 ../il2212-rtos_bsp//libucosii_bsp.a(altera_avalon_jtag_uart_fd.o)
 .data          0x01027ff4        0x0 ../il2212-rtos_bsp//libucosii_bsp.a(altera_avalon_jtag_uart_init.o)
 .data          0x01027ff4        0x0 ../il2212-rtos_bsp//libucosii_bsp.a(altera_avalon_jtag_uart_ioctl.o)
 .data          0x01027ff4        0x0 ../il2212-rtos_bsp//libucosii_bsp.a(altera_avalon_jtag_uart_read.o)
 .data          0x01027ff4        0x0 ../il2212-rtos_bsp//libucosii_bsp.a(altera_avalon_jtag_uart_write.o)
 .data          0x01027ff4        0x0 ../il2212-rtos_bsp//libucosii_bsp.a(altera_avalon_mutex.o)
 .data          0x01027ff4        0x0 ../il2212-rtos_bsp//libucosii_bsp.a(altera_avalon_performance_counter.o)
 .data          0x01027ff4        0x0 ../il2212-rtos_bsp//libucosii_bsp.a(altera_avalon_timer_sc.o)
 .data          0x01027ff4        0x0 ../il2212-rtos_bsp//libucosii_bsp.a(altera_avalon_timer_vars.o)
 .data          0x01027ff4        0x0 ../il2212-rtos_bsp//libucosii_bsp.a(perf_print_formatted_report.o)
 .data          0x01027ff4        0x0 ../il2212-rtos_bsp//libucosii_bsp.a(alt_dcache_flush_all.o)
 .data          0x01027ff4        0x0 ../il2212-rtos_bsp//libucosii_bsp.a(alt_dev_llist_insert.o)
 .data          0x01027ff4        0x0 ../il2212-rtos_bsp//libucosii_bsp.a(alt_do_ctors.o)
 .data          0x01027ff4        0x0 ../il2212-rtos_bsp//libucosii_bsp.a(alt_do_dtors.o)
 .data          0x01027ff4        0x0 ../il2212-rtos_bsp//libucosii_bsp.a(alt_find_dev.o)
 .data          0x01027ff4       0x24 ../il2212-rtos_bsp//libucosii_bsp.a(alt_gmon.o)
                0x01027ff4                alt_gmon_data
 .data          0x01028018        0x0 ../il2212-rtos_bsp//libucosii_bsp.a(alt_icache_flush_all.o)
 .data          0x01028018        0x0 ../il2212-rtos_bsp//libucosii_bsp.a(alt_io_redirect.o)
 .data          0x01028018        0x0 ../il2212-rtos_bsp//libucosii_bsp.a(alt_irq_register.o)
 .data          0x01028018        0x0 ../il2212-rtos_bsp//libucosii_bsp.a(alt_irq_vars.o)
 .data          0x01028018        0x0 ../il2212-rtos_bsp//libucosii_bsp.a(alt_open.o)
 .data          0x01028018        0x0 ../il2212-rtos_bsp//libucosii_bsp.a(altera_nios2_qsys_irq.o)
 .data          0x01028018        0x0 ../il2212-rtos_bsp//libucosii_bsp.a(os_cpu_a.o)
 .data          0x01028018        0x0 ../il2212-rtos_bsp//libucosii_bsp.a(os_cpu_c.o)
 .data          0x01028018        0x0 ../il2212-rtos_bsp//libucosii_bsp.a(alt_find_file.o)
 .data          0x01028018        0x0 ../il2212-rtos_bsp//libucosii_bsp.a(alt_get_fd.o)
 .data          0x01028018        0x0 ../il2212-rtos_bsp//libucosii_bsp.a(alt_irq_entry.o)
 .data          0x01028018        0x0 ../il2212-rtos_bsp//libucosii_bsp.a(alt_irq_handler.o)
 .data          0x01028018        0x0 ../il2212-rtos_bsp//libucosii_bsp.a(alt_exception_entry.o)
 .data          0x01028018        0x0 /opt/altera/13.0sp1/nios2eds/bin/gnu/H-i686-pc-linux-gnu/bin/../lib/gcc/nios2-elf/4.1.2/../../../../nios2-elf/lib/mno-hw-mul/pg/libc.a(lib_a-atexit.o)
 .data          0x01028018        0x0 /opt/altera/13.0sp1/nios2eds/bin/gnu/H-i686-pc-linux-gnu/bin/../lib/gcc/nios2-elf/4.1.2/../../../../nios2-elf/lib/mno-hw-mul/pg/libc.a(lib_a-exit.o)
 .data          0x01028018        0x0 /opt/altera/13.0sp1/nios2eds/bin/gnu/H-i686-pc-linux-gnu/bin/../lib/gcc/nios2-elf/4.1.2/../../../../nios2-elf/lib/mno-hw-mul/pg/libc.a(lib_a-memcmp.o)
 .data          0x01028018        0x0 /opt/altera/13.0sp1/nios2eds/bin/gnu/H-i686-pc-linux-gnu/bin/../lib/gcc/nios2-elf/4.1.2/../../../../nios2-elf/lib/mno-hw-mul/pg/libc.a(lib_a-__atexit.o)
 .data          0x01028018        0x0 /opt/altera/13.0sp1/nios2eds/bin/gnu/H-i686-pc-linux-gnu/bin/../lib/gcc/nios2-elf/4.1.2/../../../../nios2-elf/lib/mno-hw-mul/pg/libc.a(lib_a-__call_atexit.o)
 .data          0x01028018        0x0 /opt/altera/13.0sp1/nios2eds/bin/gnu/H-i686-pc-linux-gnu/bin/../lib/gcc/nios2-elf/4.1.2/mno-hw-mul/pg/libgcc.a(_fixunsdfsi.o)
 .data          0x01028018        0x0 ../il2212-rtos_bsp//libucosii_bsp.a(alt_exit.o)
                0x01030018                _gp = ABSOLUTE ((. + 0x8000))
                0x01030018                PROVIDE (gp, _gp)
 *(.rwdata .rwdata.*)
 *(.sdata .sdata.* .gnu.linkonce.s.*)
 .sdata         0x01028018        0x4 obj/default/cpu_0.o
                0x01028018                NR_ASCII_CHARS
                0x01028019                sequence_length
                0x0102801a                dSPAN
                0x0102801b                cropSIZE
 .sdata         0x0102801c        0x8 /opt/altera/13.0sp1/nios2eds/bin/gnu/H-i686-pc-linux-gnu/bin/../lib/gcc/nios2-elf/4.1.2/../../../../nios2-elf/lib/mno-hw-mul/pg/libc.a(lib_a-impure.o)
                0x0102801c                _impure_ptr
                0x01028020                _global_impure_ptr
 .sdata         0x01028024        0x8 /opt/altera/13.0sp1/nios2eds/bin/gnu/H-i686-pc-linux-gnu/bin/../lib/gcc/nios2-elf/4.1.2/../../../../nios2-elf/lib/mno-hw-mul/pg/libc.a(lib_a-locale.o)
                0x01028024                __mb_cur_max
 .sdata         0x0102802c        0x8 /opt/altera/13.0sp1/nios2eds/bin/gnu/H-i686-pc-linux-gnu/bin/../lib/gcc/nios2-elf/4.1.2/../../../../nios2-elf/lib/mno-hw-mul/pg/libc.a(lib_a-mallocr.o)
                0x0102802c                __malloc_trim_threshold
                0x01028030                __malloc_sbrk_base
 .sdata         0x01028034       0x14 ../il2212-rtos_bsp//libucosii_bsp.a(alt_dev.o)
                0x01028034                alt_fs_list
                0x0102803c                alt_dev_list
                0x01028044                alt_max_fd
 .sdata         0x01028048        0x4 ../il2212-rtos_bsp//libucosii_bsp.a(alt_errno.o)
                0x01028048                alt_errno
 .sdata         0x0102804c        0x4 ../il2212-rtos_bsp//libucosii_bsp.a(alt_sbrk.o)
 .sdata         0x01028050        0x8 ../il2212-rtos_bsp//libucosii_bsp.a(alt_tick.o)
                0x01028050                alt_alarm_list
 .sdata         0x01028058        0x4 ../il2212-rtos_bsp//libucosii_bsp.a(alt_env_lock.o)
 .sdata         0x0102805c        0x4 ../il2212-rtos_bsp//libucosii_bsp.a(alt_malloc_lock.o)
 .sdata         0x01028060       0x74 ../il2212-rtos_bsp//libucosii_bsp.a(os_dbg.o)
                0x01028060                OSDebugEn
                0x01028064                OSEndiannessTest
                0x01028068                OSEventEn
                0x0102806a                OSEventMax
                0x0102806c                OSEventNameSize
                0x0102806e                OSEventSize
                0x01028070                OSEventTblSize
                0x01028072                OSEventMultiEn
                0x01028074                OSFlagEn
                0x01028076                OSFlagGrpSize
                0x01028078                OSFlagNodeSize
                0x0102807a                OSFlagWidth
                0x0102807c                OSFlagMax
                0x0102807e                OSFlagNameSize
                0x01028080                OSLowestPrio
                0x01028082                OSMboxEn
                0x01028084                OSMemEn
                0x01028086                OSMemMax
                0x01028088                OSMemNameSize
                0x0102808a                OSMemSize
                0x0102808c                OSMemTblSize
                0x0102808e                OSMutexEn
                0x01028090                OSPtrSize
                0x01028092                OSQEn
                0x01028094                OSQMax
                0x01028096                OSQSize
                0x01028098                OSRdyTblSize
                0x0102809a                OSSemEn
                0x0102809c                OSStkWidth
                0x0102809e                OSTaskCreateEn
                0x010280a0                OSTaskCreateExtEn
                0x010280a2                OSTaskDelEn
                0x010280a4                OSTaskIdleStkSize
                0x010280a6                OSTaskProfileEn
                0x010280a8                OSTaskMax
                0x010280aa                OSTaskNameSize
                0x010280ac                OSTaskStatEn
                0x010280ae                OSTaskStatStkSize
                0x010280b0                OSTaskStatStkChkEn
                0x010280b2                OSTaskSwHookEn
                0x010280b4                OSTCBPrioTblMax
                0x010280b6                OSTCBSize
                0x010280b8                OSTicksPerSec
                0x010280ba                OSTimeTickHookEn
                0x010280bc                OSVersionNbr
                0x010280be                OSTmrEn
                0x010280c0                OSTmrCfgMax
                0x010280c2                OSTmrCfgNameSize
                0x010280c4                OSTmrCfgWheelSize
                0x010280c6                OSTmrCfgTicksPerSec
                0x010280c8                OSTmrSize
                0x010280ca                OSTmrTblSize
                0x010280cc                OSTmrWheelSize
                0x010280ce                OSTmrWheelTblSize
                0x010280d0                OSDataSize
 .sdata         0x010280d4        0x8 ../il2212-rtos_bsp//libucosii_bsp.a(altera_avalon_mutex.o)
                0x010280d4                alt_mutex_list
 .sdata         0x010280dc        0xc ../il2212-rtos_bsp//libucosii_bsp.a(alt_gmon.o)
 .sdata         0x010280e8        0x4 ../il2212-rtos_bsp//libucosii_bsp.a(alt_irq_vars.o)
                0x010280e8                alt_priority_mask
 *(.sdata2 .sdata2.* .gnu.linkonce.s2.*)
                0x010280ec                . = ALIGN (0x4)
                0x010280ec                _edata = ABSOLUTE (.)
                0x010280ec                PROVIDE (edata, ABSOLUTE (.))
                0x010280ec                PROVIDE (__ram_rwdata_end, ABSOLUTE (.))
                0x010280ec                PROVIDE (__flash_rwdata_start, LOADADDR (.rwdata))

.bss            0x01035d20    0x14254
                0x01035d20                __bss_start = ABSOLUTE (.)
                0x01035d20                PROVIDE (__sbss_start, ABSOLUTE (.))
                0x01035d20                PROVIDE (___sbss_start, ABSOLUTE (.))
 *(.dynsbss)
 *(.sbss .sbss.* .gnu.linkonce.sb.*)
 .sbss          0x01035d20        0x8 obj/default/cpu_0.o
                0x01035d20                current_image
                0x01035d24                counter
 .sbss          0x01035d28       0x28 obj/default/cpu_0.o
                0x01035d28                PosMaxSem
                0x01035d2c                CalcCoordSem
                0x01035d30                objectPosSem
                0x01035d34                xCorr2Sem
                0x01035d38                CropSem
                0x01035d3c                err
                0x01035d40                delay
                0x01035d44                Task1TmrSem
                0x01035d48                GrayedSem
                0x01035d4c                Task1Sem
 .sbss          0x01035d50        0xc /opt/altera/13.0sp1/nios2eds/bin/gnu/H-i686-pc-linux-gnu/bin/../lib/gcc/nios2-elf/4.1.2/../../../../nios2-elf/lib/mno-hw-mul/pg/libc.a(lib_a-locale.o)
                0x01035d50                __nlocale_changed
                0x01035d54                __mlocale_changed
                0x01035d58                _PathLocale
 .sbss          0x01035d5c        0xc /opt/altera/13.0sp1/nios2eds/bin/gnu/H-i686-pc-linux-gnu/bin/../lib/gcc/nios2-elf/4.1.2/../../../../nios2-elf/lib/mno-hw-mul/pg/libc.a(lib_a-mallocr.o)
                0x01035d5c                __malloc_top_pad
                0x01035d60                __malloc_max_sbrked_mem
                0x01035d64                __malloc_max_total_mem
 .sbss          0x01035d68        0x4 /opt/altera/13.0sp1/nios2eds/bin/gnu/H-i686-pc-linux-gnu/bin/../lib/gcc/nios2-elf/4.1.2/../../../../nios2-elf/lib/mno-hw-mul/pg/libc.a(lib_a-int_errno.o)
                0x01035d68                errno
 .sbss          0x01035d6c        0x4 ../il2212-rtos_bsp//libucosii_bsp.a(alt_dev.o)
                0x01035d6c                alt_fd_list_lock
 .sbss          0x01035d70        0xc ../il2212-rtos_bsp//libucosii_bsp.a(alt_main.o)
                0x01035d70                alt_argc
                0x01035d74                alt_argv
                0x01035d78                alt_envp
 .sbss          0x01035d7c        0x8 ../il2212-rtos_bsp//libucosii_bsp.a(alt_tick.o)
                0x01035d7c                _alt_tick_rate
                0x01035d80                _alt_nticks
 .sbss          0x01035d84        0x8 ../il2212-rtos_bsp//libucosii_bsp.a(alt_env_lock.o)
                0x01035d88                alt_envsem
 .sbss          0x01035d8c        0x8 ../il2212-rtos_bsp//libucosii_bsp.a(alt_malloc_lock.o)
                0x01035d90                alt_heapsem
 .sbss          0x01035d94       0x68 ../il2212-rtos_bsp//libucosii_bsp.a(os_core.o)
                0x01035d94                OSTmrFreeList
                0x01035d98                OSLockNesting
                0x01035d9c                OSTmrSemSignal
                0x01035da0                OSRunning
                0x01035da4                OSIdleCtr
                0x01035da8                OSTmrUsed
                0x01035daa                OSPrioHighRdy
                0x01035dab                OSPrioCur
                0x01035dac                OSTCBList
                0x01035db0                OSTickStepState
                0x01035db4                OSCtxSwCtr
                0x01035db8                OSTmrFree
                0x01035dbc                OSIdleCtrMax
                0x01035dc0                OSTCBFreeList
                0x01035dc4                OSCPUUsage
                0x01035dc5                OSTaskCtr
                0x01035dc8                OSMemFreeList
                0x01035dcc                OSTCBHighRdy
                0x01035dd0                OSQFreeList
                0x01035dd4                OSRdyGrp
                0x01035dd5                OSRdyTbl
                0x01035dd8                OSEventFreeList
                0x01035ddc                OSIntNesting
                0x01035de0                OSTCBCur
                0x01035de4                OSTmrTime
                0x01035de8                OSTime
                0x01035dec                OSTmrSem
                0x01035df0                OSFlagFreeList
                0x01035df4                OSStatRdy
                0x01035df8                OSIdleCtrRun
 .sbss          0x01035dfc        0x8 ../il2212-rtos_bsp//libucosii_bsp.a(altera_avalon_timer_vars.o)
                0x01035dfc                altera_avalon_timer_ts_base
                0x01035e00                altera_avalon_timer_ts_freq
 .sbss          0x01035e04        0xc ../il2212-rtos_bsp//libucosii_bsp.a(alt_gmon.o)
 .sbss          0x01035e10        0x4 ../il2212-rtos_bsp//libucosii_bsp.a(alt_irq_vars.o)
                0x01035e10                alt_irq_active
 .sbss          0x01035e14        0x2 ../il2212-rtos_bsp//libucosii_bsp.a(os_cpu_c.o)
 *(.sbss2 .sbss2.* .gnu.linkonce.sb2.*)
 *(.scommon)
                0x01035e16                PROVIDE (__sbss_end, ABSOLUTE (.))
                0x01035e16                PROVIDE (___sbss_end, ABSOLUTE (.))
 *(.dynbss)
 *(.bss .bss.* .gnu.linkonce.b.*)
 .bss           0x01035e16        0x0 ../il2212-rtos_bsp//obj/HAL/src/crt0.o
 *fill*         0x01035e16        0x2 00
 .bss           0x01035e18       0x18 obj/default/cpu_0.o
 .bss           0x01035e30        0x0 /opt/altera/13.0sp1/nios2eds/bin/gnu/H-i686-pc-linux-gnu/bin/../lib/gcc/nios2-elf/4.1.2/mno-hw-mul/pg/libgcc.a(_floatundidf.o)
 .bss           0x01035e30        0x0 /opt/altera/13.0sp1/nios2eds/bin/gnu/H-i686-pc-linux-gnu/bin/../lib/gcc/nios2-elf/4.1.2/mno-hw-mul/pg/libgcc.a(_addsub_df.o)
 .bss           0x01035e30        0x0 /opt/altera/13.0sp1/nios2eds/bin/gnu/H-i686-pc-linux-gnu/bin/../lib/gcc/nios2-elf/4.1.2/mno-hw-mul/pg/libgcc.a(_mul_df.o)
 .bss           0x01035e30        0x0 /opt/altera/13.0sp1/nios2eds/bin/gnu/H-i686-pc-linux-gnu/bin/../lib/gcc/nios2-elf/4.1.2/mno-hw-mul/pg/libgcc.a(_div_df.o)
 .bss           0x01035e30        0x0 /opt/altera/13.0sp1/nios2eds/bin/gnu/H-i686-pc-linux-gnu/bin/../lib/gcc/nios2-elf/4.1.2/mno-hw-mul/pg/libgcc.a(_thenan_df.o)
 .bss           0x01035e30        0x0 /opt/altera/13.0sp1/nios2eds/bin/gnu/H-i686-pc-linux-gnu/bin/../lib/gcc/nios2-elf/4.1.2/mno-hw-mul/pg/libgcc.a(_usi_to_df.o)
 .bss           0x01035e30        0x0 /opt/altera/13.0sp1/nios2eds/bin/gnu/H-i686-pc-linux-gnu/bin/../lib/gcc/nios2-elf/4.1.2/mno-hw-mul/pg/libgcc.a(lib2-divmod.o)
 .bss           0x01035e30        0x0 /opt/altera/13.0sp1/nios2eds/bin/gnu/H-i686-pc-linux-gnu/bin/../lib/gcc/nios2-elf/4.1.2/mno-hw-mul/pg/libgcc.a(lib2-mul.o)
 .bss           0x01035e30        0x0 /opt/altera/13.0sp1/nios2eds/bin/gnu/H-i686-pc-linux-gnu/bin/../lib/gcc/nios2-elf/4.1.2/mno-hw-mul/pg/libgcc.a(_muldi3.o)
 .bss           0x01035e30        0x0 /opt/altera/13.0sp1/nios2eds/bin/gnu/H-i686-pc-linux-gnu/bin/../lib/gcc/nios2-elf/4.1.2/mno-hw-mul/pg/libgcc.a(_clzsi2.o)
 .bss           0x01035e30        0x0 /opt/altera/13.0sp1/nios2eds/bin/gnu/H-i686-pc-linux-gnu/bin/../lib/gcc/nios2-elf/4.1.2/mno-hw-mul/pg/libgcc.a(_pack_df.o)
 .bss           0x01035e30        0x0 /opt/altera/13.0sp1/nios2eds/bin/gnu/H-i686-pc-linux-gnu/bin/../lib/gcc/nios2-elf/4.1.2/mno-hw-mul/pg/libgcc.a(_unpack_df.o)
 .bss           0x01035e30        0x0 /opt/altera/13.0sp1/nios2eds/bin/gnu/H-i686-pc-linux-gnu/bin/../lib/gcc/nios2-elf/4.1.2/mno-hw-mul/pg/libgcc.a(_clz.o)
 .bss           0x01035e30        0x0 /opt/altera/13.0sp1/nios2eds/bin/gnu/H-i686-pc-linux-gnu/bin/../lib/gcc/nios2-elf/4.1.2/../../../../nios2-elf/lib/mno-hw-mul/pg/libc.a(lib_a-printf.o)
 .bss           0x01035e30        0x0 /opt/altera/13.0sp1/nios2eds/bin/gnu/H-i686-pc-linux-gnu/bin/../lib/gcc/nios2-elf/4.1.2/../../../../nios2-elf/lib/mno-hw-mul/pg/libc.a(lib_a-putchar.o)
 .bss           0x01035e30        0x0 /opt/altera/13.0sp1/nios2eds/bin/gnu/H-i686-pc-linux-gnu/bin/../lib/gcc/nios2-elf/4.1.2/../../../../nios2-elf/lib/mno-hw-mul/pg/libc.a(lib_a-puts.o)
 .bss           0x01035e30        0x0 /opt/altera/13.0sp1/nios2eds/bin/gnu/H-i686-pc-linux-gnu/bin/../lib/gcc/nios2-elf/4.1.2/../../../../nios2-elf/lib/mno-hw-mul/pg/libc.a(lib_a-strlen.o)
 .bss           0x01035e30        0x0 /opt/altera/13.0sp1/nios2eds/bin/gnu/H-i686-pc-linux-gnu/bin/../lib/gcc/nios2-elf/4.1.2/../../../../nios2-elf/lib/mno-hw-mul/pg/libc.a(lib_a-vfprintf.o)
 .bss           0x01035e30        0x0 /opt/altera/13.0sp1/nios2eds/bin/gnu/H-i686-pc-linux-gnu/bin/../lib/gcc/nios2-elf/4.1.2/../../../../nios2-elf/lib/mno-hw-mul/pg/libc.a(lib_a-wsetup.o)
 .bss           0x01035e30        0x0 /opt/altera/13.0sp1/nios2eds/bin/gnu/H-i686-pc-linux-gnu/bin/../lib/gcc/nios2-elf/4.1.2/../../../../nios2-elf/lib/mno-hw-mul/pg/libc.a(lib_a-dtoa.o)
 .bss           0x01035e30        0x0 /opt/altera/13.0sp1/nios2eds/bin/gnu/H-i686-pc-linux-gnu/bin/../lib/gcc/nios2-elf/4.1.2/../../../../nios2-elf/lib/mno-hw-mul/pg/libc.a(lib_a-fflush.o)
 .bss           0x01035e30        0x0 /opt/altera/13.0sp1/nios2eds/bin/gnu/H-i686-pc-linux-gnu/bin/../lib/gcc/nios2-elf/4.1.2/../../../../nios2-elf/lib/mno-hw-mul/pg/libc.a(lib_a-findfp.o)
 .bss           0x01035e30        0x0 /opt/altera/13.0sp1/nios2eds/bin/gnu/H-i686-pc-linux-gnu/bin/../lib/gcc/nios2-elf/4.1.2/../../../../nios2-elf/lib/mno-hw-mul/pg/libc.a(lib_a-freer.o)
 .bss           0x01035e30        0x0 /opt/altera/13.0sp1/nios2eds/bin/gnu/H-i686-pc-linux-gnu/bin/../lib/gcc/nios2-elf/4.1.2/../../../../nios2-elf/lib/mno-hw-mul/pg/libc.a(lib_a-fvwrite.o)
 .bss           0x01035e30        0x0 /opt/altera/13.0sp1/nios2eds/bin/gnu/H-i686-pc-linux-gnu/bin/../lib/gcc/nios2-elf/4.1.2/../../../../nios2-elf/lib/mno-hw-mul/pg/libc.a(lib_a-fwalk.o)
 .bss           0x01035e30        0x0 /opt/altera/13.0sp1/nios2eds/bin/gnu/H-i686-pc-linux-gnu/bin/../lib/gcc/nios2-elf/4.1.2/../../../../nios2-elf/lib/mno-hw-mul/pg/libc.a(lib_a-impure.o)
 .bss           0x01035e30        0x0 /opt/altera/13.0sp1/nios2eds/bin/gnu/H-i686-pc-linux-gnu/bin/../lib/gcc/nios2-elf/4.1.2/../../../../nios2-elf/lib/mno-hw-mul/pg/libc.a(lib_a-locale.o)
 .bss           0x01035e30        0x0 /opt/altera/13.0sp1/nios2eds/bin/gnu/H-i686-pc-linux-gnu/bin/../lib/gcc/nios2-elf/4.1.2/../../../../nios2-elf/lib/mno-hw-mul/pg/libc.a(lib_a-makebuf.o)
 .bss           0x01035e30       0x28 /opt/altera/13.0sp1/nios2eds/bin/gnu/H-i686-pc-linux-gnu/bin/../lib/gcc/nios2-elf/4.1.2/../../../../nios2-elf/lib/mno-hw-mul/pg/libc.a(lib_a-mallocr.o)
                0x01035e30                __malloc_current_mallinfo
 .bss           0x01035e58        0x0 /opt/altera/13.0sp1/nios2eds/bin/gnu/H-i686-pc-linux-gnu/bin/../lib/gcc/nios2-elf/4.1.2/../../../../nios2-elf/lib/mno-hw-mul/pg/libc.a(lib_a-memchr.o)
 .bss           0x01035e58        0x0 /opt/altera/13.0sp1/nios2eds/bin/gnu/H-i686-pc-linux-gnu/bin/../lib/gcc/nios2-elf/4.1.2/../../../../nios2-elf/lib/mno-hw-mul/pg/libc.a(lib_a-memcpy.o)
 .bss           0x01035e58        0x0 /opt/altera/13.0sp1/nios2eds/bin/gnu/H-i686-pc-linux-gnu/bin/../lib/gcc/nios2-elf/4.1.2/../../../../nios2-elf/lib/mno-hw-mul/pg/libc.a(lib_a-memmove.o)
 .bss           0x01035e58        0x0 /opt/altera/13.0sp1/nios2eds/bin/gnu/H-i686-pc-linux-gnu/bin/../lib/gcc/nios2-elf/4.1.2/../../../../nios2-elf/lib/mno-hw-mul/pg/libc.a(lib_a-memset.o)
 .bss           0x01035e58        0x0 /opt/altera/13.0sp1/nios2eds/bin/gnu/H-i686-pc-linux-gnu/bin/../lib/gcc/nios2-elf/4.1.2/../../../../nios2-elf/lib/mno-hw-mul/pg/libc.a(lib_a-mprec.o)
 .bss           0x01035e58        0x0 /opt/altera/13.0sp1/nios2eds/bin/gnu/H-i686-pc-linux-gnu/bin/../lib/gcc/nios2-elf/4.1.2/../../../../nios2-elf/lib/mno-hw-mul/pg/libc.a(lib_a-putc.o)
 .bss           0x01035e58        0x0 /opt/altera/13.0sp1/nios2eds/bin/gnu/H-i686-pc-linux-gnu/bin/../lib/gcc/nios2-elf/4.1.2/../../../../nios2-elf/lib/mno-hw-mul/pg/libc.a(lib_a-reallocr.o)
 .bss           0x01035e58        0x0 /opt/altera/13.0sp1/nios2eds/bin/gnu/H-i686-pc-linux-gnu/bin/../lib/gcc/nios2-elf/4.1.2/../../../../nios2-elf/lib/mno-hw-mul/pg/libc.a(lib_a-s_isinfd.o)
 .bss           0x01035e58        0x0 /opt/altera/13.0sp1/nios2eds/bin/gnu/H-i686-pc-linux-gnu/bin/../lib/gcc/nios2-elf/4.1.2/../../../../nios2-elf/lib/mno-hw-mul/pg/libc.a(lib_a-s_isnand.o)
 .bss           0x01035e58        0x0 /opt/altera/13.0sp1/nios2eds/bin/gnu/H-i686-pc-linux-gnu/bin/../lib/gcc/nios2-elf/4.1.2/../../../../nios2-elf/lib/mno-hw-mul/pg/libc.a(lib_a-sbrkr.o)
 .bss           0x01035e58        0x0 /opt/altera/13.0sp1/nios2eds/bin/gnu/H-i686-pc-linux-gnu/bin/../lib/gcc/nios2-elf/4.1.2/../../../../nios2-elf/lib/mno-hw-mul/pg/libc.a(lib_a-stdio.o)
 .bss           0x01035e58        0x0 /opt/altera/13.0sp1/nios2eds/bin/gnu/H-i686-pc-linux-gnu/bin/../lib/gcc/nios2-elf/4.1.2/../../../../nios2-elf/lib/mno-hw-mul/pg/libc.a(lib_a-strcmp.o)
 .bss           0x01035e58        0x0 /opt/altera/13.0sp1/nios2eds/bin/gnu/H-i686-pc-linux-gnu/bin/../lib/gcc/nios2-elf/4.1.2/../../../../nios2-elf/lib/mno-hw-mul/pg/libc.a(lib_a-wbuf.o)
 .bss           0x01035e58        0x0 /opt/altera/13.0sp1/nios2eds/bin/gnu/H-i686-pc-linux-gnu/bin/../lib/gcc/nios2-elf/4.1.2/../../../../nios2-elf/lib/mno-hw-mul/pg/libc.a(lib_a-writer.o)
 .bss           0x01035e58        0x0 /opt/altera/13.0sp1/nios2eds/bin/gnu/H-i686-pc-linux-gnu/bin/../lib/gcc/nios2-elf/4.1.2/../../../../nios2-elf/lib/mno-hw-mul/pg/libc.a(lib_a-callocr.o)
 .bss           0x01035e58        0x0 /opt/altera/13.0sp1/nios2eds/bin/gnu/H-i686-pc-linux-gnu/bin/../lib/gcc/nios2-elf/4.1.2/../../../../nios2-elf/lib/mno-hw-mul/pg/libc.a(lib_a-closer.o)
 .bss           0x01035e58        0x0 /opt/altera/13.0sp1/nios2eds/bin/gnu/H-i686-pc-linux-gnu/bin/../lib/gcc/nios2-elf/4.1.2/../../../../nios2-elf/lib/mno-hw-mul/pg/libc.a(lib_a-fclose.o)
 .bss           0x01035e58        0x0 /opt/altera/13.0sp1/nios2eds/bin/gnu/H-i686-pc-linux-gnu/bin/../lib/gcc/nios2-elf/4.1.2/../../../../nios2-elf/lib/mno-hw-mul/pg/libc.a(lib_a-fstatr.o)
 .bss           0x01035e58        0x0 /opt/altera/13.0sp1/nios2eds/bin/gnu/H-i686-pc-linux-gnu/bin/../lib/gcc/nios2-elf/4.1.2/../../../../nios2-elf/lib/mno-hw-mul/pg/libc.a(lib_a-int_errno.o)
 .bss           0x01035e58        0x0 /opt/altera/13.0sp1/nios2eds/bin/gnu/H-i686-pc-linux-gnu/bin/../lib/gcc/nios2-elf/4.1.2/../../../../nios2-elf/lib/mno-hw-mul/pg/libc.a(lib_a-isattyr.o)
 .bss           0x01035e58        0x0 /opt/altera/13.0sp1/nios2eds/bin/gnu/H-i686-pc-linux-gnu/bin/../lib/gcc/nios2-elf/4.1.2/../../../../nios2-elf/lib/mno-hw-mul/pg/libc.a(lib_a-lseekr.o)
 .bss           0x01035e58        0x0 /opt/altera/13.0sp1/nios2eds/bin/gnu/H-i686-pc-linux-gnu/bin/../lib/gcc/nios2-elf/4.1.2/../../../../nios2-elf/lib/mno-hw-mul/pg/libc.a(lib_a-readr.o)
 .bss           0x01035e58        0x0 /opt/altera/13.0sp1/nios2eds/bin/gnu/H-i686-pc-linux-gnu/bin/../lib/gcc/nios2-elf/4.1.2/mno-hw-mul/pg/libgcc.a(_udivdi3.o)
 .bss           0x01035e58        0x0 /opt/altera/13.0sp1/nios2eds/bin/gnu/H-i686-pc-linux-gnu/bin/../lib/gcc/nios2-elf/4.1.2/mno-hw-mul/pg/libgcc.a(_umoddi3.o)
 .bss           0x01035e58        0x0 /opt/altera/13.0sp1/nios2eds/bin/gnu/H-i686-pc-linux-gnu/bin/../lib/gcc/nios2-elf/4.1.2/mno-hw-mul/pg/libgcc.a(_eq_df.o)
 .bss           0x01035e58        0x0 /opt/altera/13.0sp1/nios2eds/bin/gnu/H-i686-pc-linux-gnu/bin/../lib/gcc/nios2-elf/4.1.2/mno-hw-mul/pg/libgcc.a(_ne_df.o)
 .bss           0x01035e58        0x0 /opt/altera/13.0sp1/nios2eds/bin/gnu/H-i686-pc-linux-gnu/bin/../lib/gcc/nios2-elf/4.1.2/mno-hw-mul/pg/libgcc.a(_gt_df.o)
 .bss           0x01035e58        0x0 /opt/altera/13.0sp1/nios2eds/bin/gnu/H-i686-pc-linux-gnu/bin/../lib/gcc/nios2-elf/4.1.2/mno-hw-mul/pg/libgcc.a(_ge_df.o)
 .bss           0x01035e58        0x0 /opt/altera/13.0sp1/nios2eds/bin/gnu/H-i686-pc-linux-gnu/bin/../lib/gcc/nios2-elf/4.1.2/mno-hw-mul/pg/libgcc.a(_lt_df.o)
 .bss           0x01035e58        0x0 /opt/altera/13.0sp1/nios2eds/bin/gnu/H-i686-pc-linux-gnu/bin/../lib/gcc/nios2-elf/4.1.2/mno-hw-mul/pg/libgcc.a(_si_to_df.o)
 .bss           0x01035e58        0x0 /opt/altera/13.0sp1/nios2eds/bin/gnu/H-i686-pc-linux-gnu/bin/../lib/gcc/nios2-elf/4.1.2/mno-hw-mul/pg/libgcc.a(_df_to_si.o)
 .bss           0x01035e58        0x0 /opt/altera/13.0sp1/nios2eds/bin/gnu/H-i686-pc-linux-gnu/bin/../lib/gcc/nios2-elf/4.1.2/mno-hw-mul/pg/libgcc.a(_fpcmp_parts_df.o)
 .bss           0x01035e58        0x0 ../il2212-rtos_bsp//libucosii_bsp.a(alt_alarm_start.o)
 .bss           0x01035e58        0x0 ../il2212-rtos_bsp//libucosii_bsp.a(alt_close.o)
 .bss           0x01035e58        0x0 ../il2212-rtos_bsp//libucosii_bsp.a(alt_dev.o)
 .bss           0x01035e58        0x0 ../il2212-rtos_bsp//libucosii_bsp.a(alt_errno.o)
 .bss           0x01035e58        0x0 ../il2212-rtos_bsp//libucosii_bsp.a(alt_fstat.o)
 .bss           0x01035e58        0x0 ../il2212-rtos_bsp//libucosii_bsp.a(alt_isatty.o)
 .bss           0x01035e58        0x0 ../il2212-rtos_bsp//libucosii_bsp.a(alt_load.o)
 .bss           0x01035e58        0x0 ../il2212-rtos_bsp//libucosii_bsp.a(alt_lseek.o)
 .bss           0x01035e58        0x0 ../il2212-rtos_bsp//libucosii_bsp.a(alt_main.o)
 .bss           0x01035e58        0x0 ../il2212-rtos_bsp//libucosii_bsp.a(alt_mcount.o)
 .bss           0x01035e58        0x0 ../il2212-rtos_bsp//libucosii_bsp.a(alt_read.o)
 .bss           0x01035e58        0x0 ../il2212-rtos_bsp//libucosii_bsp.a(alt_release_fd.o)
 .bss           0x01035e58        0x0 ../il2212-rtos_bsp//libucosii_bsp.a(alt_sbrk.o)
 .bss           0x01035e58        0x0 ../il2212-rtos_bsp//libucosii_bsp.a(alt_tick.o)
 .bss           0x01035e58        0x0 ../il2212-rtos_bsp//libucosii_bsp.a(alt_write.o)
 .bss           0x01035e58        0x0 ../il2212-rtos_bsp//libucosii_bsp.a(alt_env_lock.o)
 .bss           0x01035e58        0x0 ../il2212-rtos_bsp//libucosii_bsp.a(alt_malloc_lock.o)
 .bss           0x01035e58        0x0 ../il2212-rtos_bsp//libucosii_bsp.a(os_core.o)
 .bss           0x01035e58        0x0 ../il2212-rtos_bsp//libucosii_bsp.a(os_dbg.o)
 .bss           0x01035e58        0x0 ../il2212-rtos_bsp//libucosii_bsp.a(os_flag.o)
 .bss           0x01035e58        0x0 ../il2212-rtos_bsp//libucosii_bsp.a(os_mem.o)
 .bss           0x01035e58        0x0 ../il2212-rtos_bsp//libucosii_bsp.a(os_q.o)
 .bss           0x01035e58        0x0 ../il2212-rtos_bsp//libucosii_bsp.a(os_sem.o)
 .bss           0x01035e58        0x0 ../il2212-rtos_bsp//libucosii_bsp.a(os_task.o)
 .bss           0x01035e58        0x0 ../il2212-rtos_bsp//libucosii_bsp.a(os_time.o)
 .bss           0x01035e58        0x0 ../il2212-rtos_bsp//libucosii_bsp.a(os_tmr.o)
 .bss           0x01035e58        0x0 ../il2212-rtos_bsp//libucosii_bsp.a(alt_sys_init.o)
 .bss           0x01035e58        0x0 ../il2212-rtos_bsp//libucosii_bsp.a(altera_avalon_jtag_uart_fd.o)
 .bss           0x01035e58        0x0 ../il2212-rtos_bsp//libucosii_bsp.a(altera_avalon_jtag_uart_init.o)
 .bss           0x01035e58        0x0 ../il2212-rtos_bsp//libucosii_bsp.a(altera_avalon_jtag_uart_ioctl.o)
 .bss           0x01035e58        0x0 ../il2212-rtos_bsp//libucosii_bsp.a(altera_avalon_jtag_uart_read.o)
 .bss           0x01035e58        0x0 ../il2212-rtos_bsp//libucosii_bsp.a(altera_avalon_jtag_uart_write.o)
 .bss           0x01035e58        0x0 ../il2212-rtos_bsp//libucosii_bsp.a(altera_avalon_mutex.o)
 .bss           0x01035e58        0x0 ../il2212-rtos_bsp//libucosii_bsp.a(altera_avalon_performance_counter.o)
 .bss           0x01035e58        0x0 ../il2212-rtos_bsp//libucosii_bsp.a(altera_avalon_timer_sc.o)
 .bss           0x01035e58        0x0 ../il2212-rtos_bsp//libucosii_bsp.a(altera_avalon_timer_vars.o)
 .bss           0x01035e58        0x0 ../il2212-rtos_bsp//libucosii_bsp.a(perf_print_formatted_report.o)
 .bss           0x01035e58        0x0 ../il2212-rtos_bsp//libucosii_bsp.a(alt_dcache_flush_all.o)
 .bss           0x01035e58        0x0 ../il2212-rtos_bsp//libucosii_bsp.a(alt_dev_llist_insert.o)
 .bss           0x01035e58        0x0 ../il2212-rtos_bsp//libucosii_bsp.a(alt_do_ctors.o)
 .bss           0x01035e58        0x0 ../il2212-rtos_bsp//libucosii_bsp.a(alt_do_dtors.o)
 .bss           0x01035e58        0x0 ../il2212-rtos_bsp//libucosii_bsp.a(alt_find_dev.o)
 .bss           0x01035e58       0x18 ../il2212-rtos_bsp//libucosii_bsp.a(alt_gmon.o)
 .bss           0x01035e70        0x0 ../il2212-rtos_bsp//libucosii_bsp.a(alt_icache_flush_all.o)
 .bss           0x01035e70        0x0 ../il2212-rtos_bsp//libucosii_bsp.a(alt_io_redirect.o)
 .bss           0x01035e70        0x0 ../il2212-rtos_bsp//libucosii_bsp.a(alt_irq_register.o)
 .bss           0x01035e70        0x0 ../il2212-rtos_bsp//libucosii_bsp.a(alt_irq_vars.o)
 .bss           0x01035e70        0x0 ../il2212-rtos_bsp//libucosii_bsp.a(alt_open.o)
 .bss           0x01035e70        0x0 ../il2212-rtos_bsp//libucosii_bsp.a(altera_nios2_qsys_irq.o)
 .bss           0x01035e70        0x0 ../il2212-rtos_bsp//libucosii_bsp.a(os_cpu_a.o)
 .bss           0x01035e70        0x0 ../il2212-rtos_bsp//libucosii_bsp.a(os_cpu_c.o)
 .bss           0x01035e70        0x0 ../il2212-rtos_bsp//libucosii_bsp.a(alt_find_file.o)
 .bss           0x01035e70        0x0 ../il2212-rtos_bsp//libucosii_bsp.a(alt_get_fd.o)
 .bss           0x01035e70        0x0 ../il2212-rtos_bsp//libucosii_bsp.a(alt_irq_entry.o)
 .bss           0x01035e70        0x0 ../il2212-rtos_bsp//libucosii_bsp.a(alt_irq_handler.o)
 .bss           0x01035e70        0x0 ../il2212-rtos_bsp//libucosii_bsp.a(alt_exception_entry.o)
 .bss           0x01035e70        0x0 /opt/altera/13.0sp1/nios2eds/bin/gnu/H-i686-pc-linux-gnu/bin/../lib/gcc/nios2-elf/4.1.2/../../../../nios2-elf/lib/mno-hw-mul/pg/libc.a(lib_a-atexit.o)
 .bss           0x01035e70        0x0 /opt/altera/13.0sp1/nios2eds/bin/gnu/H-i686-pc-linux-gnu/bin/../lib/gcc/nios2-elf/4.1.2/../../../../nios2-elf/lib/mno-hw-mul/pg/libc.a(lib_a-exit.o)
 .bss           0x01035e70        0x0 /opt/altera/13.0sp1/nios2eds/bin/gnu/H-i686-pc-linux-gnu/bin/../lib/gcc/nios2-elf/4.1.2/../../../../nios2-elf/lib/mno-hw-mul/pg/libc.a(lib_a-memcmp.o)
 .bss           0x01035e70        0x0 /opt/altera/13.0sp1/nios2eds/bin/gnu/H-i686-pc-linux-gnu/bin/../lib/gcc/nios2-elf/4.1.2/../../../../nios2-elf/lib/mno-hw-mul/pg/libc.a(lib_a-__atexit.o)
 .bss           0x01035e70        0x0 /opt/altera/13.0sp1/nios2eds/bin/gnu/H-i686-pc-linux-gnu/bin/../lib/gcc/nios2-elf/4.1.2/../../../../nios2-elf/lib/mno-hw-mul/pg/libc.a(lib_a-__call_atexit.o)
 .bss           0x01035e70        0x0 /opt/altera/13.0sp1/nios2eds/bin/gnu/H-i686-pc-linux-gnu/bin/../lib/gcc/nios2-elf/4.1.2/mno-hw-mul/pg/libgcc.a(_fixunsdfsi.o)
 .bss           0x01035e70        0x0 ../il2212-rtos_bsp//libucosii_bsp.a(alt_exit.o)
 *(COMMON)
 COMMON         0x01035e70    0x10000 obj/default/cpu_0.o
                0x01035e70                task1_stk
                0x01037e70                xCorr2Task_stk
                0x01039e70                GrayTask_stk
                0x0103be70                CropTask_stk
                0x0103de70                StartTask_Stack
                0x0103fe70                ObjectPosTask_stk
                0x01041e70                PosMaxTask_stk
                0x01043e70                CalcCoordTask_stk
 COMMON         0x01045e70     0x3d74 ../il2212-rtos_bsp//libucosii_bsp.a(os_core.o)
                0x01045e70                OSTmrWheelTbl
                0x01045e80                OSFlagTbl
                0x010461f0                OSTmrTbl
                0x01046530                OSMemTbl
                0x01047160                OSTaskStatStk
                0x01047960                OSQTbl
                0x01047b40                OSTmrTaskStk
                0x01048340                OSTaskIdleStk
                0x01048b40                OSEventTbl
                0x01049680                OSTCBTbl
                0x01049b90                OSTCBPrioTbl
 COMMON         0x01049be4      0x100 ../il2212-rtos_bsp//libucosii_bsp.a(alt_gmon.o)
                0x01049be4                __mcount_fn_head
 COMMON         0x01049ce4      0x100 ../il2212-rtos_bsp//libucosii_bsp.a(alt_irq_handler.o)
                0x01049ce4                alt_irq
 COMMON         0x01049de4      0x190 /opt/altera/13.0sp1/nios2eds/bin/gnu/H-i686-pc-linux-gnu/bin/../lib/gcc/nios2-elf/4.1.2/../../../../nios2-elf/lib/mno-hw-mul/pg/libc.a(lib_a-atexit.o)
                0x01049de4                _atexit0
                0x01049f74                . = ALIGN (0x4)
                0x01049f74                __bss_end = ABSOLUTE (.)

.sram           0x000801cc        0x0 load address 0x01049f74
                0x000801cc                PROVIDE (_alt_partition_sram_start, ABSOLUTE (.))
 *(.sram. sram.*)
                0x000801cc                . = ALIGN (0x4)
                0x000801cc                PROVIDE (_alt_partition_sram_end, ABSOLUTE (.))
                0x01049f74                PROVIDE (_alt_partition_sram_load_addr, LOADADDR (.sram))

.shared_onchip  0x00102000        0x0 load address 0x01049f74
                0x00102000                PROVIDE (_alt_partition_shared_onchip_start, ABSOLUTE (.))
 *(.shared_onchip. shared_onchip.*)
                0x00102000                . = ALIGN (0x4)
                0x00102000                PROVIDE (_alt_partition_shared_onchip_end, ABSOLUTE (.))
                0x01049f74                PROVIDE (_alt_partition_shared_onchip_load_addr, LOADADDR (.shared_onchip))

.sdram          0x01049f74        0x0
                0x01049f74                PROVIDE (_alt_partition_sdram_start, ABSOLUTE (.))
 *(.sdram. sdram.*)
                0x01049f74                . = ALIGN (0x4)
                0x01049f74                PROVIDE (_alt_partition_sdram_end, ABSOLUTE (.))
                0x01049f74                _end = ABSOLUTE (.)
                0x01049f74                end = ABSOLUTE (.)
                0x01049f74                __alt_stack_base = ABSOLUTE (.)
                0x01049f74                PROVIDE (_alt_partition_sdram_load_addr, LOADADDR (.sdram))

.stab
 *(.stab)

.stabstr
 *(.stabstr)

.stab.excl
 *(.stab.excl)

.stab.exclstr
 *(.stab.exclstr)

.stab.index
 *(.stab.index)

.stab.indexstr
 *(.stab.indexstr)

.comment        0x00000000       0x26
 *(.comment)
 .comment       0x00000000       0x26 obj/default/cpu_0.o
                                 0x27 (size before relaxing)
 .comment       0x00000000       0x27 /opt/altera/13.0sp1/nios2eds/bin/gnu/H-i686-pc-linux-gnu/bin/../lib/gcc/nios2-elf/4.1.2/mno-hw-mul/pg/libgcc.a(_floatundidf.o)
 .comment       0x00000000       0x27 /opt/altera/13.0sp1/nios2eds/bin/gnu/H-i686-pc-linux-gnu/bin/../lib/gcc/nios2-elf/4.1.2/mno-hw-mul/pg/libgcc.a(_addsub_df.o)
 .comment       0x00000000       0x27 /opt/altera/13.0sp1/nios2eds/bin/gnu/H-i686-pc-linux-gnu/bin/../lib/gcc/nios2-elf/4.1.2/mno-hw-mul/pg/libgcc.a(_mul_df.o)
 .comment       0x00000000       0x27 /opt/altera/13.0sp1/nios2eds/bin/gnu/H-i686-pc-linux-gnu/bin/../lib/gcc/nios2-elf/4.1.2/mno-hw-mul/pg/libgcc.a(_div_df.o)
 .comment       0x00000000       0x27 /opt/altera/13.0sp1/nios2eds/bin/gnu/H-i686-pc-linux-gnu/bin/../lib/gcc/nios2-elf/4.1.2/mno-hw-mul/pg/libgcc.a(_thenan_df.o)
 .comment       0x00000000       0x27 /opt/altera/13.0sp1/nios2eds/bin/gnu/H-i686-pc-linux-gnu/bin/../lib/gcc/nios2-elf/4.1.2/mno-hw-mul/pg/libgcc.a(_usi_to_df.o)
 .comment       0x00000000       0x27 /opt/altera/13.0sp1/nios2eds/bin/gnu/H-i686-pc-linux-gnu/bin/../lib/gcc/nios2-elf/4.1.2/mno-hw-mul/pg/libgcc.a(lib2-divmod.o)
 .comment       0x00000000       0x27 /opt/altera/13.0sp1/nios2eds/bin/gnu/H-i686-pc-linux-gnu/bin/../lib/gcc/nios2-elf/4.1.2/mno-hw-mul/pg/libgcc.a(lib2-mul.o)
 .comment       0x00000000       0x27 /opt/altera/13.0sp1/nios2eds/bin/gnu/H-i686-pc-linux-gnu/bin/../lib/gcc/nios2-elf/4.1.2/mno-hw-mul/pg/libgcc.a(_muldi3.o)
 .comment       0x00000000       0x27 /opt/altera/13.0sp1/nios2eds/bin/gnu/H-i686-pc-linux-gnu/bin/../lib/gcc/nios2-elf/4.1.2/mno-hw-mul/pg/libgcc.a(_clzsi2.o)
 .comment       0x00000000       0x27 /opt/altera/13.0sp1/nios2eds/bin/gnu/H-i686-pc-linux-gnu/bin/../lib/gcc/nios2-elf/4.1.2/mno-hw-mul/pg/libgcc.a(_pack_df.o)
 .comment       0x00000000       0x27 /opt/altera/13.0sp1/nios2eds/bin/gnu/H-i686-pc-linux-gnu/bin/../lib/gcc/nios2-elf/4.1.2/mno-hw-mul/pg/libgcc.a(_unpack_df.o)
 .comment       0x00000000       0x27 /opt/altera/13.0sp1/nios2eds/bin/gnu/H-i686-pc-linux-gnu/bin/../lib/gcc/nios2-elf/4.1.2/mno-hw-mul/pg/libgcc.a(_clz.o)
 .comment       0x00000000       0x27 /opt/altera/13.0sp1/nios2eds/bin/gnu/H-i686-pc-linux-gnu/bin/../lib/gcc/nios2-elf/4.1.2/../../../../nios2-elf/lib/mno-hw-mul/pg/libc.a(lib_a-printf.o)
 .comment       0x00000000       0x27 /opt/altera/13.0sp1/nios2eds/bin/gnu/H-i686-pc-linux-gnu/bin/../lib/gcc/nios2-elf/4.1.2/../../../../nios2-elf/lib/mno-hw-mul/pg/libc.a(lib_a-putchar.o)
 .comment       0x00000000       0x27 /opt/altera/13.0sp1/nios2eds/bin/gnu/H-i686-pc-linux-gnu/bin/../lib/gcc/nios2-elf/4.1.2/../../../../nios2-elf/lib/mno-hw-mul/pg/libc.a(lib_a-puts.o)
 .comment       0x00000000       0x27 /opt/altera/13.0sp1/nios2eds/bin/gnu/H-i686-pc-linux-gnu/bin/../lib/gcc/nios2-elf/4.1.2/../../../../nios2-elf/lib/mno-hw-mul/pg/libc.a(lib_a-strlen.o)
 .comment       0x00000000       0x27 /opt/altera/13.0sp1/nios2eds/bin/gnu/H-i686-pc-linux-gnu/bin/../lib/gcc/nios2-elf/4.1.2/../../../../nios2-elf/lib/mno-hw-mul/pg/libc.a(lib_a-vfprintf.o)
 .comment       0x00000000       0x27 /opt/altera/13.0sp1/nios2eds/bin/gnu/H-i686-pc-linux-gnu/bin/../lib/gcc/nios2-elf/4.1.2/../../../../nios2-elf/lib/mno-hw-mul/pg/libc.a(lib_a-wsetup.o)
 .comment       0x00000000       0x27 /opt/altera/13.0sp1/nios2eds/bin/gnu/H-i686-pc-linux-gnu/bin/../lib/gcc/nios2-elf/4.1.2/../../../../nios2-elf/lib/mno-hw-mul/pg/libc.a(lib_a-dtoa.o)
 .comment       0x00000000       0x27 /opt/altera/13.0sp1/nios2eds/bin/gnu/H-i686-pc-linux-gnu/bin/../lib/gcc/nios2-elf/4.1.2/../../../../nios2-elf/lib/mno-hw-mul/pg/libc.a(lib_a-fflush.o)
 .comment       0x00000000       0x27 /opt/altera/13.0sp1/nios2eds/bin/gnu/H-i686-pc-linux-gnu/bin/../lib/gcc/nios2-elf/4.1.2/../../../../nios2-elf/lib/mno-hw-mul/pg/libc.a(lib_a-findfp.o)
 .comment       0x00000000       0x27 /opt/altera/13.0sp1/nios2eds/bin/gnu/H-i686-pc-linux-gnu/bin/../lib/gcc/nios2-elf/4.1.2/../../../../nios2-elf/lib/mno-hw-mul/pg/libc.a(lib_a-freer.o)
 .comment       0x00000000       0x27 /opt/altera/13.0sp1/nios2eds/bin/gnu/H-i686-pc-linux-gnu/bin/../lib/gcc/nios2-elf/4.1.2/../../../../nios2-elf/lib/mno-hw-mul/pg/libc.a(lib_a-fvwrite.o)
 .comment       0x00000000       0x27 /opt/altera/13.0sp1/nios2eds/bin/gnu/H-i686-pc-linux-gnu/bin/../lib/gcc/nios2-elf/4.1.2/../../../../nios2-elf/lib/mno-hw-mul/pg/libc.a(lib_a-fwalk.o)
 .comment       0x00000000       0x27 /opt/altera/13.0sp1/nios2eds/bin/gnu/H-i686-pc-linux-gnu/bin/../lib/gcc/nios2-elf/4.1.2/../../../../nios2-elf/lib/mno-hw-mul/pg/libc.a(lib_a-impure.o)
 .comment       0x00000000       0x27 /opt/altera/13.0sp1/nios2eds/bin/gnu/H-i686-pc-linux-gnu/bin/../lib/gcc/nios2-elf/4.1.2/../../../../nios2-elf/lib/mno-hw-mul/pg/libc.a(lib_a-locale.o)
 .comment       0x00000000       0x27 /opt/altera/13.0sp1/nios2eds/bin/gnu/H-i686-pc-linux-gnu/bin/../lib/gcc/nios2-elf/4.1.2/../../../../nios2-elf/lib/mno-hw-mul/pg/libc.a(lib_a-makebuf.o)
 .comment       0x00000000       0x27 /opt/altera/13.0sp1/nios2eds/bin/gnu/H-i686-pc-linux-gnu/bin/../lib/gcc/nios2-elf/4.1.2/../../../../nios2-elf/lib/mno-hw-mul/pg/libc.a(lib_a-mallocr.o)
 .comment       0x00000000       0x27 /opt/altera/13.0sp1/nios2eds/bin/gnu/H-i686-pc-linux-gnu/bin/../lib/gcc/nios2-elf/4.1.2/../../../../nios2-elf/lib/mno-hw-mul/pg/libc.a(lib_a-memchr.o)
 .comment       0x00000000       0x27 /opt/altera/13.0sp1/nios2eds/bin/gnu/H-i686-pc-linux-gnu/bin/../lib/gcc/nios2-elf/4.1.2/../../../../nios2-elf/lib/mno-hw-mul/pg/libc.a(lib_a-memcpy.o)
 .comment       0x00000000       0x27 /opt/altera/13.0sp1/nios2eds/bin/gnu/H-i686-pc-linux-gnu/bin/../lib/gcc/nios2-elf/4.1.2/../../../../nios2-elf/lib/mno-hw-mul/pg/libc.a(lib_a-memmove.o)
 .comment       0x00000000       0x27 /opt/altera/13.0sp1/nios2eds/bin/gnu/H-i686-pc-linux-gnu/bin/../lib/gcc/nios2-elf/4.1.2/../../../../nios2-elf/lib/mno-hw-mul/pg/libc.a(lib_a-memset.o)
 .comment       0x00000000       0x27 /opt/altera/13.0sp1/nios2eds/bin/gnu/H-i686-pc-linux-gnu/bin/../lib/gcc/nios2-elf/4.1.2/../../../../nios2-elf/lib/mno-hw-mul/pg/libc.a(lib_a-mprec.o)
 .comment       0x00000000       0x27 /opt/altera/13.0sp1/nios2eds/bin/gnu/H-i686-pc-linux-gnu/bin/../lib/gcc/nios2-elf/4.1.2/../../../../nios2-elf/lib/mno-hw-mul/pg/libc.a(lib_a-putc.o)
 .comment       0x00000000       0x27 /opt/altera/13.0sp1/nios2eds/bin/gnu/H-i686-pc-linux-gnu/bin/../lib/gcc/nios2-elf/4.1.2/../../../../nios2-elf/lib/mno-hw-mul/pg/libc.a(lib_a-reallocr.o)
 .comment       0x00000000       0x27 /opt/altera/13.0sp1/nios2eds/bin/gnu/H-i686-pc-linux-gnu/bin/../lib/gcc/nios2-elf/4.1.2/../../../../nios2-elf/lib/mno-hw-mul/pg/libc.a(lib_a-s_isinfd.o)
 .comment       0x00000000       0x27 /opt/altera/13.0sp1/nios2eds/bin/gnu/H-i686-pc-linux-gnu/bin/../lib/gcc/nios2-elf/4.1.2/../../../../nios2-elf/lib/mno-hw-mul/pg/libc.a(lib_a-s_isnand.o)
 .comment       0x00000000       0x27 /opt/altera/13.0sp1/nios2eds/bin/gnu/H-i686-pc-linux-gnu/bin/../lib/gcc/nios2-elf/4.1.2/../../../../nios2-elf/lib/mno-hw-mul/pg/libc.a(lib_a-sbrkr.o)
 .comment       0x00000000       0x27 /opt/altera/13.0sp1/nios2eds/bin/gnu/H-i686-pc-linux-gnu/bin/../lib/gcc/nios2-elf/4.1.2/../../../../nios2-elf/lib/mno-hw-mul/pg/libc.a(lib_a-stdio.o)
 .comment       0x00000000       0x27 /opt/altera/13.0sp1/nios2eds/bin/gnu/H-i686-pc-linux-gnu/bin/../lib/gcc/nios2-elf/4.1.2/../../../../nios2-elf/lib/mno-hw-mul/pg/libc.a(lib_a-strcmp.o)
 .comment       0x00000000       0x27 /opt/altera/13.0sp1/nios2eds/bin/gnu/H-i686-pc-linux-gnu/bin/../lib/gcc/nios2-elf/4.1.2/../../../../nios2-elf/lib/mno-hw-mul/pg/libc.a(lib_a-wbuf.o)
 .comment       0x00000000       0x27 /opt/altera/13.0sp1/nios2eds/bin/gnu/H-i686-pc-linux-gnu/bin/../lib/gcc/nios2-elf/4.1.2/../../../../nios2-elf/lib/mno-hw-mul/pg/libc.a(lib_a-writer.o)
 .comment       0x00000000       0x27 /opt/altera/13.0sp1/nios2eds/bin/gnu/H-i686-pc-linux-gnu/bin/../lib/gcc/nios2-elf/4.1.2/../../../../nios2-elf/lib/mno-hw-mul/pg/libc.a(lib_a-callocr.o)
 .comment       0x00000000       0x27 /opt/altera/13.0sp1/nios2eds/bin/gnu/H-i686-pc-linux-gnu/bin/../lib/gcc/nios2-elf/4.1.2/../../../../nios2-elf/lib/mno-hw-mul/pg/libc.a(lib_a-closer.o)
 .comment       0x00000000       0x27 /opt/altera/13.0sp1/nios2eds/bin/gnu/H-i686-pc-linux-gnu/bin/../lib/gcc/nios2-elf/4.1.2/../../../../nios2-elf/lib/mno-hw-mul/pg/libc.a(lib_a-fclose.o)
 .comment       0x00000000       0x27 /opt/altera/13.0sp1/nios2eds/bin/gnu/H-i686-pc-linux-gnu/bin/../lib/gcc/nios2-elf/4.1.2/../../../../nios2-elf/lib/mno-hw-mul/pg/libc.a(lib_a-fstatr.o)
 .comment       0x00000000       0x27 /opt/altera/13.0sp1/nios2eds/bin/gnu/H-i686-pc-linux-gnu/bin/../lib/gcc/nios2-elf/4.1.2/../../../../nios2-elf/lib/mno-hw-mul/pg/libc.a(lib_a-int_errno.o)
 .comment       0x00000000       0x27 /opt/altera/13.0sp1/nios2eds/bin/gnu/H-i686-pc-linux-gnu/bin/../lib/gcc/nios2-elf/4.1.2/../../../../nios2-elf/lib/mno-hw-mul/pg/libc.a(lib_a-isattyr.o)
 .comment       0x00000000       0x27 /opt/altera/13.0sp1/nios2eds/bin/gnu/H-i686-pc-linux-gnu/bin/../lib/gcc/nios2-elf/4.1.2/../../../../nios2-elf/lib/mno-hw-mul/pg/libc.a(lib_a-lseekr.o)
 .comment       0x00000000       0x27 /opt/altera/13.0sp1/nios2eds/bin/gnu/H-i686-pc-linux-gnu/bin/../lib/gcc/nios2-elf/4.1.2/../../../../nios2-elf/lib/mno-hw-mul/pg/libc.a(lib_a-readr.o)
 .comment       0x00000000       0x27 /opt/altera/13.0sp1/nios2eds/bin/gnu/H-i686-pc-linux-gnu/bin/../lib/gcc/nios2-elf/4.1.2/mno-hw-mul/pg/libgcc.a(_udivdi3.o)
 .comment       0x00000000       0x27 /opt/altera/13.0sp1/nios2eds/bin/gnu/H-i686-pc-linux-gnu/bin/../lib/gcc/nios2-elf/4.1.2/mno-hw-mul/pg/libgcc.a(_umoddi3.o)
 .comment       0x00000000       0x27 /opt/altera/13.0sp1/nios2eds/bin/gnu/H-i686-pc-linux-gnu/bin/../lib/gcc/nios2-elf/4.1.2/mno-hw-mul/pg/libgcc.a(_eq_df.o)
 .comment       0x00000000       0x27 /opt/altera/13.0sp1/nios2eds/bin/gnu/H-i686-pc-linux-gnu/bin/../lib/gcc/nios2-elf/4.1.2/mno-hw-mul/pg/libgcc.a(_ne_df.o)
 .comment       0x00000000       0x27 /opt/altera/13.0sp1/nios2eds/bin/gnu/H-i686-pc-linux-gnu/bin/../lib/gcc/nios2-elf/4.1.2/mno-hw-mul/pg/libgcc.a(_gt_df.o)
 .comment       0x00000000       0x27 /opt/altera/13.0sp1/nios2eds/bin/gnu/H-i686-pc-linux-gnu/bin/../lib/gcc/nios2-elf/4.1.2/mno-hw-mul/pg/libgcc.a(_ge_df.o)
 .comment       0x00000000       0x27 /opt/altera/13.0sp1/nios2eds/bin/gnu/H-i686-pc-linux-gnu/bin/../lib/gcc/nios2-elf/4.1.2/mno-hw-mul/pg/libgcc.a(_lt_df.o)
 .comment       0x00000000       0x27 /opt/altera/13.0sp1/nios2eds/bin/gnu/H-i686-pc-linux-gnu/bin/../lib/gcc/nios2-elf/4.1.2/mno-hw-mul/pg/libgcc.a(_si_to_df.o)
 .comment       0x00000000       0x27 /opt/altera/13.0sp1/nios2eds/bin/gnu/H-i686-pc-linux-gnu/bin/../lib/gcc/nios2-elf/4.1.2/mno-hw-mul/pg/libgcc.a(_df_to_si.o)
 .comment       0x00000000       0x27 /opt/altera/13.0sp1/nios2eds/bin/gnu/H-i686-pc-linux-gnu/bin/../lib/gcc/nios2-elf/4.1.2/mno-hw-mul/pg/libgcc.a(_fpcmp_parts_df.o)
 .comment       0x00000000       0x27 ../il2212-rtos_bsp//libucosii_bsp.a(alt_alarm_start.o)
 .comment       0x00000000       0x27 ../il2212-rtos_bsp//libucosii_bsp.a(alt_close.o)
 .comment       0x00000000       0x27 ../il2212-rtos_bsp//libucosii_bsp.a(alt_dev.o)
 .comment       0x00000000       0x27 ../il2212-rtos_bsp//libucosii_bsp.a(alt_errno.o)
 .comment       0x00000000       0x27 ../il2212-rtos_bsp//libucosii_bsp.a(alt_fstat.o)
 .comment       0x00000000       0x27 ../il2212-rtos_bsp//libucosii_bsp.a(alt_isatty.o)
 .comment       0x00000000       0x27 ../il2212-rtos_bsp//libucosii_bsp.a(alt_load.o)
 .comment       0x00000000       0x27 ../il2212-rtos_bsp//libucosii_bsp.a(alt_lseek.o)
 .comment       0x00000000       0x27 ../il2212-rtos_bsp//libucosii_bsp.a(alt_main.o)
 .comment       0x00000000       0x27 ../il2212-rtos_bsp//libucosii_bsp.a(alt_read.o)
 .comment       0x00000000       0x27 ../il2212-rtos_bsp//libucosii_bsp.a(alt_release_fd.o)
 .comment       0x00000000       0x27 ../il2212-rtos_bsp//libucosii_bsp.a(alt_sbrk.o)
 .comment       0x00000000       0x27 ../il2212-rtos_bsp//libucosii_bsp.a(alt_tick.o)
 .comment       0x00000000       0x27 ../il2212-rtos_bsp//libucosii_bsp.a(alt_write.o)
 .comment       0x00000000       0x27 ../il2212-rtos_bsp//libucosii_bsp.a(alt_env_lock.o)
 .comment       0x00000000       0x27 ../il2212-rtos_bsp//libucosii_bsp.a(alt_malloc_lock.o)
 .comment       0x00000000       0x27 ../il2212-rtos_bsp//libucosii_bsp.a(os_core.o)
 .comment       0x00000000       0x27 ../il2212-rtos_bsp//libucosii_bsp.a(os_dbg.o)
 .comment       0x00000000       0x27 ../il2212-rtos_bsp//libucosii_bsp.a(os_flag.o)
 .comment       0x00000000       0x27 ../il2212-rtos_bsp//libucosii_bsp.a(os_mem.o)
 .comment       0x00000000       0x27 ../il2212-rtos_bsp//libucosii_bsp.a(os_q.o)
 .comment       0x00000000       0x27 ../il2212-rtos_bsp//libucosii_bsp.a(os_sem.o)
 .comment       0x00000000       0x27 ../il2212-rtos_bsp//libucosii_bsp.a(os_task.o)
 .comment       0x00000000       0x27 ../il2212-rtos_bsp//libucosii_bsp.a(os_time.o)
 .comment       0x00000000       0x27 ../il2212-rtos_bsp//libucosii_bsp.a(os_tmr.o)
 .comment       0x00000000       0x27 ../il2212-rtos_bsp//libucosii_bsp.a(alt_sys_init.o)
 .comment       0x00000000       0x27 ../il2212-rtos_bsp//libucosii_bsp.a(altera_avalon_jtag_uart_fd.o)
 .comment       0x00000000       0x27 ../il2212-rtos_bsp//libucosii_bsp.a(altera_avalon_jtag_uart_init.o)
 .comment       0x00000000       0x27 ../il2212-rtos_bsp//libucosii_bsp.a(altera_avalon_jtag_uart_ioctl.o)
 .comment       0x00000000       0x27 ../il2212-rtos_bsp//libucosii_bsp.a(altera_avalon_jtag_uart_read.o)
 .comment       0x00000000       0x27 ../il2212-rtos_bsp//libucosii_bsp.a(altera_avalon_jtag_uart_write.o)
 .comment       0x00000000       0x27 ../il2212-rtos_bsp//libucosii_bsp.a(altera_avalon_mutex.o)
 .comment       0x00000000       0x27 ../il2212-rtos_bsp//libucosii_bsp.a(altera_avalon_performance_counter.o)
 .comment       0x00000000       0x27 ../il2212-rtos_bsp//libucosii_bsp.a(altera_avalon_timer_sc.o)
 .comment       0x00000000       0x27 ../il2212-rtos_bsp//libucosii_bsp.a(altera_avalon_timer_vars.o)
 .comment       0x00000000       0x27 ../il2212-rtos_bsp//libucosii_bsp.a(perf_print_formatted_report.o)
 .comment       0x00000000       0x27 ../il2212-rtos_bsp//libucosii_bsp.a(alt_dcache_flush_all.o)
 .comment       0x00000000       0x27 ../il2212-rtos_bsp//libucosii_bsp.a(alt_dev_llist_insert.o)
 .comment       0x00000000       0x27 ../il2212-rtos_bsp//libucosii_bsp.a(alt_do_ctors.o)
 .comment       0x00000000       0x27 ../il2212-rtos_bsp//libucosii_bsp.a(alt_do_dtors.o)
 .comment       0x00000000       0x27 ../il2212-rtos_bsp//libucosii_bsp.a(alt_find_dev.o)
 .comment       0x00000000       0x27 ../il2212-rtos_bsp//libucosii_bsp.a(alt_gmon.o)
 .comment       0x00000000       0x27 ../il2212-rtos_bsp//libucosii_bsp.a(alt_icache_flush_all.o)
 .comment       0x00000000       0x27 ../il2212-rtos_bsp//libucosii_bsp.a(alt_io_redirect.o)
 .comment       0x00000000       0x27 ../il2212-rtos_bsp//libucosii_bsp.a(alt_irq_register.o)
 .comment       0x00000000       0x27 ../il2212-rtos_bsp//libucosii_bsp.a(alt_irq_vars.o)
 .comment       0x00000000       0x27 ../il2212-rtos_bsp//libucosii_bsp.a(alt_open.o)
 .comment       0x00000000       0x27 ../il2212-rtos_bsp//libucosii_bsp.a(altera_nios2_qsys_irq.o)
 .comment       0x00000000       0x27 ../il2212-rtos_bsp//libucosii_bsp.a(os_cpu_c.o)
 .comment       0x00000000       0x27 ../il2212-rtos_bsp//libucosii_bsp.a(alt_find_file.o)
 .comment       0x00000000       0x27 ../il2212-rtos_bsp//libucosii_bsp.a(alt_get_fd.o)
 .comment       0x00000000       0x27 ../il2212-rtos_bsp//libucosii_bsp.a(alt_irq_handler.o)
 .comment       0x00000000       0x27 /opt/altera/13.0sp1/nios2eds/bin/gnu/H-i686-pc-linux-gnu/bin/../lib/gcc/nios2-elf/4.1.2/../../../../nios2-elf/lib/mno-hw-mul/pg/libc.a(lib_a-atexit.o)
 .comment       0x00000000       0x27 /opt/altera/13.0sp1/nios2eds/bin/gnu/H-i686-pc-linux-gnu/bin/../lib/gcc/nios2-elf/4.1.2/../../../../nios2-elf/lib/mno-hw-mul/pg/libc.a(lib_a-exit.o)
 .comment       0x00000000       0x27 /opt/altera/13.0sp1/nios2eds/bin/gnu/H-i686-pc-linux-gnu/bin/../lib/gcc/nios2-elf/4.1.2/../../../../nios2-elf/lib/mno-hw-mul/pg/libc.a(lib_a-memcmp.o)
 .comment       0x00000000       0x27 /opt/altera/13.0sp1/nios2eds/bin/gnu/H-i686-pc-linux-gnu/bin/../lib/gcc/nios2-elf/4.1.2/../../../../nios2-elf/lib/mno-hw-mul/pg/libc.a(lib_a-__atexit.o)
 .comment       0x00000000       0x27 /opt/altera/13.0sp1/nios2eds/bin/gnu/H-i686-pc-linux-gnu/bin/../lib/gcc/nios2-elf/4.1.2/../../../../nios2-elf/lib/mno-hw-mul/pg/libc.a(lib_a-__call_atexit.o)
 .comment       0x00000000       0x27 /opt/altera/13.0sp1/nios2eds/bin/gnu/H-i686-pc-linux-gnu/bin/../lib/gcc/nios2-elf/4.1.2/mno-hw-mul/pg/libgcc.a(_fixunsdfsi.o)
 .comment       0x00000000       0x27 ../il2212-rtos_bsp//libucosii_bsp.a(alt_exit.o)

.debug
 *(.debug)

.line
 *(.line)

.debug_srcinfo
 *(.debug_srcinfo)

.debug_sfnames
 *(.debug_sfnames)

.debug_aranges  0x00000000      0xf18
 *(.debug_aranges)
 .debug_aranges
                0x00000000       0x28 ../il2212-rtos_bsp//obj/HAL/src/crt0.o
 .debug_aranges
                0x00000028       0x20 obj/default/cpu_0.o
 .debug_aranges
                0x00000048       0x20 /opt/altera/13.0sp1/nios2eds/bin/gnu/H-i686-pc-linux-gnu/bin/../lib/gcc/nios2-elf/4.1.2/mno-hw-mul/pg/libgcc.a(_floatundidf.o)
 .debug_aranges
                0x00000068       0x20 /opt/altera/13.0sp1/nios2eds/bin/gnu/H-i686-pc-linux-gnu/bin/../lib/gcc/nios2-elf/4.1.2/mno-hw-mul/pg/libgcc.a(_addsub_df.o)
 .debug_aranges
                0x00000088       0x20 /opt/altera/13.0sp1/nios2eds/bin/gnu/H-i686-pc-linux-gnu/bin/../lib/gcc/nios2-elf/4.1.2/mno-hw-mul/pg/libgcc.a(_mul_df.o)
 .debug_aranges
                0x000000a8       0x20 /opt/altera/13.0sp1/nios2eds/bin/gnu/H-i686-pc-linux-gnu/bin/../lib/gcc/nios2-elf/4.1.2/mno-hw-mul/pg/libgcc.a(_div_df.o)
 .debug_aranges
                0x000000c8       0x20 /opt/altera/13.0sp1/nios2eds/bin/gnu/H-i686-pc-linux-gnu/bin/../lib/gcc/nios2-elf/4.1.2/mno-hw-mul/pg/libgcc.a(_usi_to_df.o)
 .debug_aranges
                0x000000e8       0x20 /opt/altera/13.0sp1/nios2eds/bin/gnu/H-i686-pc-linux-gnu/bin/../lib/gcc/nios2-elf/4.1.2/mno-hw-mul/pg/libgcc.a(lib2-divmod.o)
 .debug_aranges
                0x00000108       0x20 /opt/altera/13.0sp1/nios2eds/bin/gnu/H-i686-pc-linux-gnu/bin/../lib/gcc/nios2-elf/4.1.2/mno-hw-mul/pg/libgcc.a(lib2-mul.o)
 .debug_aranges
                0x00000128       0x20 /opt/altera/13.0sp1/nios2eds/bin/gnu/H-i686-pc-linux-gnu/bin/../lib/gcc/nios2-elf/4.1.2/mno-hw-mul/pg/libgcc.a(_muldi3.o)
 .debug_aranges
                0x00000148       0x20 /opt/altera/13.0sp1/nios2eds/bin/gnu/H-i686-pc-linux-gnu/bin/../lib/gcc/nios2-elf/4.1.2/mno-hw-mul/pg/libgcc.a(_clzsi2.o)
 .debug_aranges
                0x00000168       0x20 /opt/altera/13.0sp1/nios2eds/bin/gnu/H-i686-pc-linux-gnu/bin/../lib/gcc/nios2-elf/4.1.2/mno-hw-mul/pg/libgcc.a(_pack_df.o)
 .debug_aranges
                0x00000188       0x20 /opt/altera/13.0sp1/nios2eds/bin/gnu/H-i686-pc-linux-gnu/bin/../lib/gcc/nios2-elf/4.1.2/mno-hw-mul/pg/libgcc.a(_unpack_df.o)
 .debug_aranges
                0x000001a8       0x20 /opt/altera/13.0sp1/nios2eds/bin/gnu/H-i686-pc-linux-gnu/bin/../lib/gcc/nios2-elf/4.1.2/../../../../nios2-elf/lib/mno-hw-mul/pg/libc.a(lib_a-printf.o)
 .debug_aranges
                0x000001c8       0x20 /opt/altera/13.0sp1/nios2eds/bin/gnu/H-i686-pc-linux-gnu/bin/../lib/gcc/nios2-elf/4.1.2/../../../../nios2-elf/lib/mno-hw-mul/pg/libc.a(lib_a-putchar.o)
 .debug_aranges
                0x000001e8       0x20 /opt/altera/13.0sp1/nios2eds/bin/gnu/H-i686-pc-linux-gnu/bin/../lib/gcc/nios2-elf/4.1.2/../../../../nios2-elf/lib/mno-hw-mul/pg/libc.a(lib_a-puts.o)
 .debug_aranges
                0x00000208       0x20 /opt/altera/13.0sp1/nios2eds/bin/gnu/H-i686-pc-linux-gnu/bin/../lib/gcc/nios2-elf/4.1.2/../../../../nios2-elf/lib/mno-hw-mul/pg/libc.a(lib_a-strlen.o)
 .debug_aranges
                0x00000228       0x20 /opt/altera/13.0sp1/nios2eds/bin/gnu/H-i686-pc-linux-gnu/bin/../lib/gcc/nios2-elf/4.1.2/../../../../nios2-elf/lib/mno-hw-mul/pg/libc.a(lib_a-vfprintf.o)
 .debug_aranges
                0x00000248       0x20 /opt/altera/13.0sp1/nios2eds/bin/gnu/H-i686-pc-linux-gnu/bin/../lib/gcc/nios2-elf/4.1.2/../../../../nios2-elf/lib/mno-hw-mul/pg/libc.a(lib_a-wsetup.o)
 .debug_aranges
                0x00000268       0x20 /opt/altera/13.0sp1/nios2eds/bin/gnu/H-i686-pc-linux-gnu/bin/../lib/gcc/nios2-elf/4.1.2/../../../../nios2-elf/lib/mno-hw-mul/pg/libc.a(lib_a-dtoa.o)
 .debug_aranges
                0x00000288       0x20 /opt/altera/13.0sp1/nios2eds/bin/gnu/H-i686-pc-linux-gnu/bin/../lib/gcc/nios2-elf/4.1.2/../../../../nios2-elf/lib/mno-hw-mul/pg/libc.a(lib_a-fflush.o)
 .debug_aranges
                0x000002a8       0x20 /opt/altera/13.0sp1/nios2eds/bin/gnu/H-i686-pc-linux-gnu/bin/../lib/gcc/nios2-elf/4.1.2/../../../../nios2-elf/lib/mno-hw-mul/pg/libc.a(lib_a-findfp.o)
 .debug_aranges
                0x000002c8       0x20 /opt/altera/13.0sp1/nios2eds/bin/gnu/H-i686-pc-linux-gnu/bin/../lib/gcc/nios2-elf/4.1.2/../../../../nios2-elf/lib/mno-hw-mul/pg/libc.a(lib_a-freer.o)
 .debug_aranges
                0x000002e8       0x20 /opt/altera/13.0sp1/nios2eds/bin/gnu/H-i686-pc-linux-gnu/bin/../lib/gcc/nios2-elf/4.1.2/../../../../nios2-elf/lib/mno-hw-mul/pg/libc.a(lib_a-fvwrite.o)
 .debug_aranges
                0x00000308       0x20 /opt/altera/13.0sp1/nios2eds/bin/gnu/H-i686-pc-linux-gnu/bin/../lib/gcc/nios2-elf/4.1.2/../../../../nios2-elf/lib/mno-hw-mul/pg/libc.a(lib_a-fwalk.o)
 .debug_aranges
                0x00000328       0x20 /opt/altera/13.0sp1/nios2eds/bin/gnu/H-i686-pc-linux-gnu/bin/../lib/gcc/nios2-elf/4.1.2/../../../../nios2-elf/lib/mno-hw-mul/pg/libc.a(lib_a-locale.o)
 .debug_aranges
                0x00000348       0x20 /opt/altera/13.0sp1/nios2eds/bin/gnu/H-i686-pc-linux-gnu/bin/../lib/gcc/nios2-elf/4.1.2/../../../../nios2-elf/lib/mno-hw-mul/pg/libc.a(lib_a-makebuf.o)
 .debug_aranges
                0x00000368       0x20 /opt/altera/13.0sp1/nios2eds/bin/gnu/H-i686-pc-linux-gnu/bin/../lib/gcc/nios2-elf/4.1.2/../../../../nios2-elf/lib/mno-hw-mul/pg/libc.a(lib_a-mallocr.o)
 .debug_aranges
                0x00000388       0x20 /opt/altera/13.0sp1/nios2eds/bin/gnu/H-i686-pc-linux-gnu/bin/../lib/gcc/nios2-elf/4.1.2/../../../../nios2-elf/lib/mno-hw-mul/pg/libc.a(lib_a-memchr.o)
 .debug_aranges
                0x000003a8       0x20 /opt/altera/13.0sp1/nios2eds/bin/gnu/H-i686-pc-linux-gnu/bin/../lib/gcc/nios2-elf/4.1.2/../../../../nios2-elf/lib/mno-hw-mul/pg/libc.a(lib_a-memcpy.o)
 .debug_aranges
                0x000003c8       0x20 /opt/altera/13.0sp1/nios2eds/bin/gnu/H-i686-pc-linux-gnu/bin/../lib/gcc/nios2-elf/4.1.2/../../../../nios2-elf/lib/mno-hw-mul/pg/libc.a(lib_a-memmove.o)
 .debug_aranges
                0x000003e8       0x20 /opt/altera/13.0sp1/nios2eds/bin/gnu/H-i686-pc-linux-gnu/bin/../lib/gcc/nios2-elf/4.1.2/../../../../nios2-elf/lib/mno-hw-mul/pg/libc.a(lib_a-memset.o)
 .debug_aranges
                0x00000408       0x20 /opt/altera/13.0sp1/nios2eds/bin/gnu/H-i686-pc-linux-gnu/bin/../lib/gcc/nios2-elf/4.1.2/../../../../nios2-elf/lib/mno-hw-mul/pg/libc.a(lib_a-mprec.o)
 .debug_aranges
                0x00000428       0x20 /opt/altera/13.0sp1/nios2eds/bin/gnu/H-i686-pc-linux-gnu/bin/../lib/gcc/nios2-elf/4.1.2/../../../../nios2-elf/lib/mno-hw-mul/pg/libc.a(lib_a-putc.o)
 .debug_aranges
                0x00000448       0x20 /opt/altera/13.0sp1/nios2eds/bin/gnu/H-i686-pc-linux-gnu/bin/../lib/gcc/nios2-elf/4.1.2/../../../../nios2-elf/lib/mno-hw-mul/pg/libc.a(lib_a-reallocr.o)
 .debug_aranges
                0x00000468       0x20 /opt/altera/13.0sp1/nios2eds/bin/gnu/H-i686-pc-linux-gnu/bin/../lib/gcc/nios2-elf/4.1.2/../../../../nios2-elf/lib/mno-hw-mul/pg/libc.a(lib_a-s_isinfd.o)
 .debug_aranges
                0x00000488       0x20 /opt/altera/13.0sp1/nios2eds/bin/gnu/H-i686-pc-linux-gnu/bin/../lib/gcc/nios2-elf/4.1.2/../../../../nios2-elf/lib/mno-hw-mul/pg/libc.a(lib_a-s_isnand.o)
 .debug_aranges
                0x000004a8       0x20 /opt/altera/13.0sp1/nios2eds/bin/gnu/H-i686-pc-linux-gnu/bin/../lib/gcc/nios2-elf/4.1.2/../../../../nios2-elf/lib/mno-hw-mul/pg/libc.a(lib_a-sbrkr.o)
 .debug_aranges
                0x000004c8       0x20 /opt/altera/13.0sp1/nios2eds/bin/gnu/H-i686-pc-linux-gnu/bin/../lib/gcc/nios2-elf/4.1.2/../../../../nios2-elf/lib/mno-hw-mul/pg/libc.a(lib_a-stdio.o)
 .debug_aranges
                0x000004e8       0x20 /opt/altera/13.0sp1/nios2eds/bin/gnu/H-i686-pc-linux-gnu/bin/../lib/gcc/nios2-elf/4.1.2/../../../../nios2-elf/lib/mno-hw-mul/pg/libc.a(lib_a-strcmp.o)
 .debug_aranges
                0x00000508       0x20 /opt/altera/13.0sp1/nios2eds/bin/gnu/H-i686-pc-linux-gnu/bin/../lib/gcc/nios2-elf/4.1.2/../../../../nios2-elf/lib/mno-hw-mul/pg/libc.a(lib_a-wbuf.o)
 .debug_aranges
                0x00000528       0x20 /opt/altera/13.0sp1/nios2eds/bin/gnu/H-i686-pc-linux-gnu/bin/../lib/gcc/nios2-elf/4.1.2/../../../../nios2-elf/lib/mno-hw-mul/pg/libc.a(lib_a-writer.o)
 .debug_aranges
                0x00000548       0x20 /opt/altera/13.0sp1/nios2eds/bin/gnu/H-i686-pc-linux-gnu/bin/../lib/gcc/nios2-elf/4.1.2/../../../../nios2-elf/lib/mno-hw-mul/pg/libc.a(lib_a-callocr.o)
 .debug_aranges
                0x00000568       0x20 /opt/altera/13.0sp1/nios2eds/bin/gnu/H-i686-pc-linux-gnu/bin/../lib/gcc/nios2-elf/4.1.2/../../../../nios2-elf/lib/mno-hw-mul/pg/libc.a(lib_a-closer.o)
 .debug_aranges
                0x00000588       0x20 /opt/altera/13.0sp1/nios2eds/bin/gnu/H-i686-pc-linux-gnu/bin/../lib/gcc/nios2-elf/4.1.2/../../../../nios2-elf/lib/mno-hw-mul/pg/libc.a(lib_a-fclose.o)
 .debug_aranges
                0x000005a8       0x20 /opt/altera/13.0sp1/nios2eds/bin/gnu/H-i686-pc-linux-gnu/bin/../lib/gcc/nios2-elf/4.1.2/../../../../nios2-elf/lib/mno-hw-mul/pg/libc.a(lib_a-fstatr.o)
 .debug_aranges
                0x000005c8       0x20 /opt/altera/13.0sp1/nios2eds/bin/gnu/H-i686-pc-linux-gnu/bin/../lib/gcc/nios2-elf/4.1.2/../../../../nios2-elf/lib/mno-hw-mul/pg/libc.a(lib_a-isattyr.o)
 .debug_aranges
                0x000005e8       0x20 /opt/altera/13.0sp1/nios2eds/bin/gnu/H-i686-pc-linux-gnu/bin/../lib/gcc/nios2-elf/4.1.2/../../../../nios2-elf/lib/mno-hw-mul/pg/libc.a(lib_a-lseekr.o)
 .debug_aranges
                0x00000608       0x20 /opt/altera/13.0sp1/nios2eds/bin/gnu/H-i686-pc-linux-gnu/bin/../lib/gcc/nios2-elf/4.1.2/../../../../nios2-elf/lib/mno-hw-mul/pg/libc.a(lib_a-readr.o)
 .debug_aranges
                0x00000628       0x20 /opt/altera/13.0sp1/nios2eds/bin/gnu/H-i686-pc-linux-gnu/bin/../lib/gcc/nios2-elf/4.1.2/mno-hw-mul/pg/libgcc.a(_udivdi3.o)
 .debug_aranges
                0x00000648       0x20 /opt/altera/13.0sp1/nios2eds/bin/gnu/H-i686-pc-linux-gnu/bin/../lib/gcc/nios2-elf/4.1.2/mno-hw-mul/pg/libgcc.a(_umoddi3.o)
 .debug_aranges
                0x00000668       0x20 /opt/altera/13.0sp1/nios2eds/bin/gnu/H-i686-pc-linux-gnu/bin/../lib/gcc/nios2-elf/4.1.2/mno-hw-mul/pg/libgcc.a(_eq_df.o)
 .debug_aranges
                0x00000688       0x20 /opt/altera/13.0sp1/nios2eds/bin/gnu/H-i686-pc-linux-gnu/bin/../lib/gcc/nios2-elf/4.1.2/mno-hw-mul/pg/libgcc.a(_ne_df.o)
 .debug_aranges
                0x000006a8       0x20 /opt/altera/13.0sp1/nios2eds/bin/gnu/H-i686-pc-linux-gnu/bin/../lib/gcc/nios2-elf/4.1.2/mno-hw-mul/pg/libgcc.a(_gt_df.o)
 .debug_aranges
                0x000006c8       0x20 /opt/altera/13.0sp1/nios2eds/bin/gnu/H-i686-pc-linux-gnu/bin/../lib/gcc/nios2-elf/4.1.2/mno-hw-mul/pg/libgcc.a(_ge_df.o)
 .debug_aranges
                0x000006e8       0x20 /opt/altera/13.0sp1/nios2eds/bin/gnu/H-i686-pc-linux-gnu/bin/../lib/gcc/nios2-elf/4.1.2/mno-hw-mul/pg/libgcc.a(_lt_df.o)
 .debug_aranges
                0x00000708       0x20 /opt/altera/13.0sp1/nios2eds/bin/gnu/H-i686-pc-linux-gnu/bin/../lib/gcc/nios2-elf/4.1.2/mno-hw-mul/pg/libgcc.a(_si_to_df.o)
 .debug_aranges
                0x00000728       0x20 /opt/altera/13.0sp1/nios2eds/bin/gnu/H-i686-pc-linux-gnu/bin/../lib/gcc/nios2-elf/4.1.2/mno-hw-mul/pg/libgcc.a(_df_to_si.o)
 .debug_aranges
                0x00000748       0x20 /opt/altera/13.0sp1/nios2eds/bin/gnu/H-i686-pc-linux-gnu/bin/../lib/gcc/nios2-elf/4.1.2/mno-hw-mul/pg/libgcc.a(_fpcmp_parts_df.o)
 .debug_aranges
                0x00000768       0x20 ../il2212-rtos_bsp//libucosii_bsp.a(alt_alarm_start.o)
 .debug_aranges
                0x00000788       0x20 ../il2212-rtos_bsp//libucosii_bsp.a(alt_close.o)
 .debug_aranges
                0x000007a8       0x20 ../il2212-rtos_bsp//libucosii_bsp.a(alt_dev.o)
 .debug_aranges
                0x000007c8       0x20 ../il2212-rtos_bsp//libucosii_bsp.a(alt_fstat.o)
 .debug_aranges
                0x000007e8       0x20 ../il2212-rtos_bsp//libucosii_bsp.a(alt_isatty.o)
 .debug_aranges
                0x00000808       0x20 ../il2212-rtos_bsp//libucosii_bsp.a(alt_load.o)
 .debug_aranges
                0x00000828       0x20 ../il2212-rtos_bsp//libucosii_bsp.a(alt_lseek.o)
 .debug_aranges
                0x00000848       0x20 ../il2212-rtos_bsp//libucosii_bsp.a(alt_main.o)
 .debug_aranges
                0x00000868       0x20 ../il2212-rtos_bsp//libucosii_bsp.a(alt_mcount.o)
 .debug_aranges
                0x00000888       0x20 ../il2212-rtos_bsp//libucosii_bsp.a(alt_read.o)
 .debug_aranges
                0x000008a8       0x20 ../il2212-rtos_bsp//libucosii_bsp.a(alt_release_fd.o)
 .debug_aranges
                0x000008c8       0x20 ../il2212-rtos_bsp//libucosii_bsp.a(alt_sbrk.o)
 .debug_aranges
                0x000008e8       0x20 ../il2212-rtos_bsp//libucosii_bsp.a(alt_tick.o)
 .debug_aranges
                0x00000908       0x20 ../il2212-rtos_bsp//libucosii_bsp.a(alt_write.o)
 .debug_aranges
                0x00000928       0x20 ../il2212-rtos_bsp//libucosii_bsp.a(alt_env_lock.o)
 .debug_aranges
                0x00000948       0x20 ../il2212-rtos_bsp//libucosii_bsp.a(alt_malloc_lock.o)
 .debug_aranges
                0x00000968       0x20 ../il2212-rtos_bsp//libucosii_bsp.a(os_core.o)
 .debug_aranges
                0x00000988       0x20 ../il2212-rtos_bsp//libucosii_bsp.a(os_dbg.o)
 .debug_aranges
                0x000009a8       0x20 ../il2212-rtos_bsp//libucosii_bsp.a(os_flag.o)
 .debug_aranges
                0x000009c8       0x20 ../il2212-rtos_bsp//libucosii_bsp.a(os_mem.o)
 .debug_aranges
                0x000009e8       0x20 ../il2212-rtos_bsp//libucosii_bsp.a(os_q.o)
 .debug_aranges
                0x00000a08       0x20 ../il2212-rtos_bsp//libucosii_bsp.a(os_sem.o)
 .debug_aranges
                0x00000a28       0x20 ../il2212-rtos_bsp//libucosii_bsp.a(os_task.o)
 .debug_aranges
                0x00000a48       0x20 ../il2212-rtos_bsp//libucosii_bsp.a(os_time.o)
 .debug_aranges
                0x00000a68       0x20 ../il2212-rtos_bsp//libucosii_bsp.a(os_tmr.o)
 .debug_aranges
                0x00000a88       0x20 ../il2212-rtos_bsp//libucosii_bsp.a(alt_sys_init.o)
 .debug_aranges
                0x00000aa8       0x20 ../il2212-rtos_bsp//libucosii_bsp.a(altera_avalon_jtag_uart_fd.o)
 .debug_aranges
                0x00000ac8       0x20 ../il2212-rtos_bsp//libucosii_bsp.a(altera_avalon_jtag_uart_init.o)
 .debug_aranges
                0x00000ae8       0x20 ../il2212-rtos_bsp//libucosii_bsp.a(altera_avalon_jtag_uart_ioctl.o)
 .debug_aranges
                0x00000b08       0x20 ../il2212-rtos_bsp//libucosii_bsp.a(altera_avalon_jtag_uart_read.o)
 .debug_aranges
                0x00000b28       0x20 ../il2212-rtos_bsp//libucosii_bsp.a(altera_avalon_jtag_uart_write.o)
 .debug_aranges
                0x00000b48       0x20 ../il2212-rtos_bsp//libucosii_bsp.a(altera_avalon_mutex.o)
 .debug_aranges
                0x00000b68       0x20 ../il2212-rtos_bsp//libucosii_bsp.a(altera_avalon_performance_counter.o)
 .debug_aranges
                0x00000b88       0x20 ../il2212-rtos_bsp//libucosii_bsp.a(altera_avalon_timer_sc.o)
 .debug_aranges
                0x00000ba8       0x20 ../il2212-rtos_bsp//libucosii_bsp.a(perf_print_formatted_report.o)
 .debug_aranges
                0x00000bc8       0x20 ../il2212-rtos_bsp//libucosii_bsp.a(alt_dcache_flush_all.o)
 .debug_aranges
                0x00000be8       0x20 ../il2212-rtos_bsp//libucosii_bsp.a(alt_dev_llist_insert.o)
 .debug_aranges
                0x00000c08       0x20 ../il2212-rtos_bsp//libucosii_bsp.a(alt_do_ctors.o)
 .debug_aranges
                0x00000c28       0x20 ../il2212-rtos_bsp//libucosii_bsp.a(alt_do_dtors.o)
 .debug_aranges
                0x00000c48       0x20 ../il2212-rtos_bsp//libucosii_bsp.a(alt_find_dev.o)
 .debug_aranges
                0x00000c68       0x20 ../il2212-rtos_bsp//libucosii_bsp.a(alt_gmon.o)
 .debug_aranges
                0x00000c88       0x20 ../il2212-rtos_bsp//libucosii_bsp.a(alt_icache_flush_all.o)
 .debug_aranges
                0x00000ca8       0x20 ../il2212-rtos_bsp//libucosii_bsp.a(alt_io_redirect.o)
 .debug_aranges
                0x00000cc8       0x20 ../il2212-rtos_bsp//libucosii_bsp.a(alt_irq_register.o)
 .debug_aranges
                0x00000ce8       0x20 ../il2212-rtos_bsp//libucosii_bsp.a(alt_open.o)
 .debug_aranges
                0x00000d08       0x20 ../il2212-rtos_bsp//libucosii_bsp.a(altera_nios2_qsys_irq.o)
 .debug_aranges
                0x00000d28       0x20 ../il2212-rtos_bsp//libucosii_bsp.a(os_cpu_a.o)
 .debug_aranges
                0x00000d48       0x20 ../il2212-rtos_bsp//libucosii_bsp.a(os_cpu_c.o)
 .debug_aranges
                0x00000d68       0x20 ../il2212-rtos_bsp//libucosii_bsp.a(alt_find_file.o)
 .debug_aranges
                0x00000d88       0x20 ../il2212-rtos_bsp//libucosii_bsp.a(alt_get_fd.o)
 .debug_aranges
                0x00000da8       0x30 ../il2212-rtos_bsp//libucosii_bsp.a(alt_irq_entry.o)
 .debug_aranges
                0x00000dd8       0x28 ../il2212-rtos_bsp//libucosii_bsp.a(alt_irq_handler.o)
 .debug_aranges
                0x00000e00       0x38 ../il2212-rtos_bsp//libucosii_bsp.a(alt_exception_entry.o)
 .debug_aranges
                0x00000e38       0x20 /opt/altera/13.0sp1/nios2eds/bin/gnu/H-i686-pc-linux-gnu/bin/../lib/gcc/nios2-elf/4.1.2/../../../../nios2-elf/lib/mno-hw-mul/pg/libc.a(lib_a-atexit.o)
 .debug_aranges
                0x00000e58       0x20 /opt/altera/13.0sp1/nios2eds/bin/gnu/H-i686-pc-linux-gnu/bin/../lib/gcc/nios2-elf/4.1.2/../../../../nios2-elf/lib/mno-hw-mul/pg/libc.a(lib_a-exit.o)
 .debug_aranges
                0x00000e78       0x20 /opt/altera/13.0sp1/nios2eds/bin/gnu/H-i686-pc-linux-gnu/bin/../lib/gcc/nios2-elf/4.1.2/../../../../nios2-elf/lib/mno-hw-mul/pg/libc.a(lib_a-memcmp.o)
 .debug_aranges
                0x00000e98       0x20 /opt/altera/13.0sp1/nios2eds/bin/gnu/H-i686-pc-linux-gnu/bin/../lib/gcc/nios2-elf/4.1.2/../../../../nios2-elf/lib/mno-hw-mul/pg/libc.a(lib_a-__atexit.o)
 .debug_aranges
                0x00000eb8       0x20 /opt/altera/13.0sp1/nios2eds/bin/gnu/H-i686-pc-linux-gnu/bin/../lib/gcc/nios2-elf/4.1.2/../../../../nios2-elf/lib/mno-hw-mul/pg/libc.a(lib_a-__call_atexit.o)
 .debug_aranges
                0x00000ed8       0x20 /opt/altera/13.0sp1/nios2eds/bin/gnu/H-i686-pc-linux-gnu/bin/../lib/gcc/nios2-elf/4.1.2/mno-hw-mul/pg/libgcc.a(_fixunsdfsi.o)
 .debug_aranges
                0x00000ef8       0x20 ../il2212-rtos_bsp//libucosii_bsp.a(alt_exit.o)

.debug_pubnames
                0x00000000     0x269a
 *(.debug_pubnames)
 .debug_pubnames
                0x00000000      0x2f4 obj/default/cpu_0.o
 .debug_pubnames
                0x000002f4       0x24 /opt/altera/13.0sp1/nios2eds/bin/gnu/H-i686-pc-linux-gnu/bin/../lib/gcc/nios2-elf/4.1.2/mno-hw-mul/pg/libgcc.a(_floatundidf.o)
 .debug_pubnames
                0x00000318       0x2c /opt/altera/13.0sp1/nios2eds/bin/gnu/H-i686-pc-linux-gnu/bin/../lib/gcc/nios2-elf/4.1.2/mno-hw-mul/pg/libgcc.a(_addsub_df.o)
 .debug_pubnames
                0x00000344       0x1f /opt/altera/13.0sp1/nios2eds/bin/gnu/H-i686-pc-linux-gnu/bin/../lib/gcc/nios2-elf/4.1.2/mno-hw-mul/pg/libgcc.a(_mul_df.o)
 .debug_pubnames
                0x00000363       0x1f /opt/altera/13.0sp1/nios2eds/bin/gnu/H-i686-pc-linux-gnu/bin/../lib/gcc/nios2-elf/4.1.2/mno-hw-mul/pg/libgcc.a(_div_df.o)
 .debug_pubnames
                0x00000382       0x22 /opt/altera/13.0sp1/nios2eds/bin/gnu/H-i686-pc-linux-gnu/bin/../lib/gcc/nios2-elf/4.1.2/mno-hw-mul/pg/libgcc.a(_thenan_df.o)
 .debug_pubnames
                0x000003a4       0x24 /opt/altera/13.0sp1/nios2eds/bin/gnu/H-i686-pc-linux-gnu/bin/../lib/gcc/nios2-elf/4.1.2/mno-hw-mul/pg/libgcc.a(_usi_to_df.o)
 .debug_pubnames
                0x000003c8       0x48 /opt/altera/13.0sp1/nios2eds/bin/gnu/H-i686-pc-linux-gnu/bin/../lib/gcc/nios2-elf/4.1.2/mno-hw-mul/pg/libgcc.a(lib2-divmod.o)
 .debug_pubnames
                0x00000410       0x1f /opt/altera/13.0sp1/nios2eds/bin/gnu/H-i686-pc-linux-gnu/bin/../lib/gcc/nios2-elf/4.1.2/mno-hw-mul/pg/libgcc.a(lib2-mul.o)
 .debug_pubnames
                0x0000042f       0x1f /opt/altera/13.0sp1/nios2eds/bin/gnu/H-i686-pc-linux-gnu/bin/../lib/gcc/nios2-elf/4.1.2/mno-hw-mul/pg/libgcc.a(_muldi3.o)
 .debug_pubnames
                0x0000044e       0x1f /opt/altera/13.0sp1/nios2eds/bin/gnu/H-i686-pc-linux-gnu/bin/../lib/gcc/nios2-elf/4.1.2/mno-hw-mul/pg/libgcc.a(_clzsi2.o)
 .debug_pubnames
                0x0000046d       0x1f /opt/altera/13.0sp1/nios2eds/bin/gnu/H-i686-pc-linux-gnu/bin/../lib/gcc/nios2-elf/4.1.2/mno-hw-mul/pg/libgcc.a(_pack_df.o)
 .debug_pubnames
                0x0000048c       0x21 /opt/altera/13.0sp1/nios2eds/bin/gnu/H-i686-pc-linux-gnu/bin/../lib/gcc/nios2-elf/4.1.2/mno-hw-mul/pg/libgcc.a(_unpack_df.o)
 .debug_pubnames
                0x000004ad       0x20 /opt/altera/13.0sp1/nios2eds/bin/gnu/H-i686-pc-linux-gnu/bin/../lib/gcc/nios2-elf/4.1.2/mno-hw-mul/pg/libgcc.a(_clz.o)
 .debug_pubnames
                0x000004cd       0x2b /opt/altera/13.0sp1/nios2eds/bin/gnu/H-i686-pc-linux-gnu/bin/../lib/gcc/nios2-elf/4.1.2/../../../../nios2-elf/lib/mno-hw-mul/pg/libc.a(lib_a-printf.o)
 .debug_pubnames
                0x000004f8       0x2d /opt/altera/13.0sp1/nios2eds/bin/gnu/H-i686-pc-linux-gnu/bin/../lib/gcc/nios2-elf/4.1.2/../../../../nios2-elf/lib/mno-hw-mul/pg/libc.a(lib_a-putchar.o)
 .debug_pubnames
                0x00000525       0x27 /opt/altera/13.0sp1/nios2eds/bin/gnu/H-i686-pc-linux-gnu/bin/../lib/gcc/nios2-elf/4.1.2/../../../../nios2-elf/lib/mno-hw-mul/pg/libc.a(lib_a-puts.o)
 .debug_pubnames
                0x0000054c       0x1d /opt/altera/13.0sp1/nios2eds/bin/gnu/H-i686-pc-linux-gnu/bin/../lib/gcc/nios2-elf/4.1.2/../../../../nios2-elf/lib/mno-hw-mul/pg/libc.a(lib_a-strlen.o)
 .debug_pubnames
                0x00000569       0x45 /opt/altera/13.0sp1/nios2eds/bin/gnu/H-i686-pc-linux-gnu/bin/../lib/gcc/nios2-elf/4.1.2/../../../../nios2-elf/lib/mno-hw-mul/pg/libc.a(lib_a-vfprintf.o)
 .debug_pubnames
                0x000005ae       0x22 /opt/altera/13.0sp1/nios2eds/bin/gnu/H-i686-pc-linux-gnu/bin/../lib/gcc/nios2-elf/4.1.2/../../../../nios2-elf/lib/mno-hw-mul/pg/libc.a(lib_a-wsetup.o)
 .debug_pubnames
                0x000005d0       0x1e /opt/altera/13.0sp1/nios2eds/bin/gnu/H-i686-pc-linux-gnu/bin/../lib/gcc/nios2-elf/4.1.2/../../../../nios2-elf/lib/mno-hw-mul/pg/libc.a(lib_a-dtoa.o)
 .debug_pubnames
                0x000005ee       0x2b /opt/altera/13.0sp1/nios2eds/bin/gnu/H-i686-pc-linux-gnu/bin/../lib/gcc/nios2-elf/4.1.2/../../../../nios2-elf/lib/mno-hw-mul/pg/libc.a(lib_a-fflush.o)
 .debug_pubnames
                0x00000619       0xdb /opt/altera/13.0sp1/nios2eds/bin/gnu/H-i686-pc-linux-gnu/bin/../lib/gcc/nios2-elf/4.1.2/../../../../nios2-elf/lib/mno-hw-mul/pg/libc.a(lib_a-findfp.o)
 .debug_pubnames
                0x000006f4       0x31 /opt/altera/13.0sp1/nios2eds/bin/gnu/H-i686-pc-linux-gnu/bin/../lib/gcc/nios2-elf/4.1.2/../../../../nios2-elf/lib/mno-hw-mul/pg/libc.a(lib_a-freer.o)
 .debug_pubnames
                0x00000725       0x23 /opt/altera/13.0sp1/nios2eds/bin/gnu/H-i686-pc-linux-gnu/bin/../lib/gcc/nios2-elf/4.1.2/../../../../nios2-elf/lib/mno-hw-mul/pg/libc.a(lib_a-fvwrite.o)
 .debug_pubnames
                0x00000748       0x2e /opt/altera/13.0sp1/nios2eds/bin/gnu/H-i686-pc-linux-gnu/bin/../lib/gcc/nios2-elf/4.1.2/../../../../nios2-elf/lib/mno-hw-mul/pg/libc.a(lib_a-fwalk.o)
 .debug_pubnames
                0x00000776       0x39 /opt/altera/13.0sp1/nios2eds/bin/gnu/H-i686-pc-linux-gnu/bin/../lib/gcc/nios2-elf/4.1.2/../../../../nios2-elf/lib/mno-hw-mul/pg/libc.a(lib_a-impure.o)
 .debug_pubnames
                0x000007af       0xc3 /opt/altera/13.0sp1/nios2eds/bin/gnu/H-i686-pc-linux-gnu/bin/../lib/gcc/nios2-elf/4.1.2/../../../../nios2-elf/lib/mno-hw-mul/pg/libc.a(lib_a-locale.o)
 .debug_pubnames
                0x00000872       0x23 /opt/altera/13.0sp1/nios2eds/bin/gnu/H-i686-pc-linux-gnu/bin/../lib/gcc/nios2-elf/4.1.2/../../../../nios2-elf/lib/mno-hw-mul/pg/libc.a(lib_a-makebuf.o)
 .debug_pubnames
                0x00000895       0xce /opt/altera/13.0sp1/nios2eds/bin/gnu/H-i686-pc-linux-gnu/bin/../lib/gcc/nios2-elf/4.1.2/../../../../nios2-elf/lib/mno-hw-mul/pg/libc.a(lib_a-mallocr.o)
 .debug_pubnames
                0x00000963       0x1d /opt/altera/13.0sp1/nios2eds/bin/gnu/H-i686-pc-linux-gnu/bin/../lib/gcc/nios2-elf/4.1.2/../../../../nios2-elf/lib/mno-hw-mul/pg/libc.a(lib_a-memchr.o)
 .debug_pubnames
                0x00000980       0x1d /opt/altera/13.0sp1/nios2eds/bin/gnu/H-i686-pc-linux-gnu/bin/../lib/gcc/nios2-elf/4.1.2/../../../../nios2-elf/lib/mno-hw-mul/pg/libc.a(lib_a-memcpy.o)
 .debug_pubnames
                0x0000099d       0x1e /opt/altera/13.0sp1/nios2eds/bin/gnu/H-i686-pc-linux-gnu/bin/../lib/gcc/nios2-elf/4.1.2/../../../../nios2-elf/lib/mno-hw-mul/pg/libc.a(lib_a-memmove.o)
 .debug_pubnames
                0x000009bb       0x1d /opt/altera/13.0sp1/nios2eds/bin/gnu/H-i686-pc-linux-gnu/bin/../lib/gcc/nios2-elf/4.1.2/../../../../nios2-elf/lib/mno-hw-mul/pg/libc.a(lib_a-memset.o)
 .debug_pubnames
                0x000009d8      0x13a /opt/altera/13.0sp1/nios2eds/bin/gnu/H-i686-pc-linux-gnu/bin/../lib/gcc/nios2-elf/4.1.2/../../../../nios2-elf/lib/mno-hw-mul/pg/libc.a(lib_a-mprec.o)
 .debug_pubnames
                0x00000b12       0x27 /opt/altera/13.0sp1/nios2eds/bin/gnu/H-i686-pc-linux-gnu/bin/../lib/gcc/nios2-elf/4.1.2/../../../../nios2-elf/lib/mno-hw-mul/pg/libc.a(lib_a-putc.o)
 .debug_pubnames
                0x00000b39       0x21 /opt/altera/13.0sp1/nios2eds/bin/gnu/H-i686-pc-linux-gnu/bin/../lib/gcc/nios2-elf/4.1.2/../../../../nios2-elf/lib/mno-hw-mul/pg/libc.a(lib_a-reallocr.o)
 .debug_pubnames
                0x00000b5a       0x1f /opt/altera/13.0sp1/nios2eds/bin/gnu/H-i686-pc-linux-gnu/bin/../lib/gcc/nios2-elf/4.1.2/../../../../nios2-elf/lib/mno-hw-mul/pg/libc.a(lib_a-s_isinfd.o)
 .debug_pubnames
                0x00000b79       0x1f /opt/altera/13.0sp1/nios2eds/bin/gnu/H-i686-pc-linux-gnu/bin/../lib/gcc/nios2-elf/4.1.2/../../../../nios2-elf/lib/mno-hw-mul/pg/libc.a(lib_a-s_isnand.o)
 .debug_pubnames
                0x00000b98       0x1e /opt/altera/13.0sp1/nios2eds/bin/gnu/H-i686-pc-linux-gnu/bin/../lib/gcc/nios2-elf/4.1.2/../../../../nios2-elf/lib/mno-hw-mul/pg/libc.a(lib_a-sbrkr.o)
 .debug_pubnames
                0x00000bb6       0x44 /opt/altera/13.0sp1/nios2eds/bin/gnu/H-i686-pc-linux-gnu/bin/../lib/gcc/nios2-elf/4.1.2/../../../../nios2-elf/lib/mno-hw-mul/pg/libc.a(lib_a-stdio.o)
 .debug_pubnames
                0x00000bfa       0x1d /opt/altera/13.0sp1/nios2eds/bin/gnu/H-i686-pc-linux-gnu/bin/../lib/gcc/nios2-elf/4.1.2/../../../../nios2-elf/lib/mno-hw-mul/pg/libc.a(lib_a-strcmp.o)
 .debug_pubnames
                0x00000c17       0x2c /opt/altera/13.0sp1/nios2eds/bin/gnu/H-i686-pc-linux-gnu/bin/../lib/gcc/nios2-elf/4.1.2/../../../../nios2-elf/lib/mno-hw-mul/pg/libc.a(lib_a-wbuf.o)
 .debug_pubnames
                0x00000c43       0x1f /opt/altera/13.0sp1/nios2eds/bin/gnu/H-i686-pc-linux-gnu/bin/../lib/gcc/nios2-elf/4.1.2/../../../../nios2-elf/lib/mno-hw-mul/pg/libc.a(lib_a-writer.o)
 .debug_pubnames
                0x00000c62       0x20 /opt/altera/13.0sp1/nios2eds/bin/gnu/H-i686-pc-linux-gnu/bin/../lib/gcc/nios2-elf/4.1.2/../../../../nios2-elf/lib/mno-hw-mul/pg/libc.a(lib_a-callocr.o)
 .debug_pubnames
                0x00000c82       0x1f /opt/altera/13.0sp1/nios2eds/bin/gnu/H-i686-pc-linux-gnu/bin/../lib/gcc/nios2-elf/4.1.2/../../../../nios2-elf/lib/mno-hw-mul/pg/libc.a(lib_a-closer.o)
 .debug_pubnames
                0x00000ca1       0x2b /opt/altera/13.0sp1/nios2eds/bin/gnu/H-i686-pc-linux-gnu/bin/../lib/gcc/nios2-elf/4.1.2/../../../../nios2-elf/lib/mno-hw-mul/pg/libc.a(lib_a-fclose.o)
 .debug_pubnames
                0x00000ccc       0x1f /opt/altera/13.0sp1/nios2eds/bin/gnu/H-i686-pc-linux-gnu/bin/../lib/gcc/nios2-elf/4.1.2/../../../../nios2-elf/lib/mno-hw-mul/pg/libc.a(lib_a-fstatr.o)
 .debug_pubnames
                0x00000ceb       0x1c /opt/altera/13.0sp1/nios2eds/bin/gnu/H-i686-pc-linux-gnu/bin/../lib/gcc/nios2-elf/4.1.2/../../../../nios2-elf/lib/mno-hw-mul/pg/libc.a(lib_a-int_errno.o)
 .debug_pubnames
                0x00000d07       0x20 /opt/altera/13.0sp1/nios2eds/bin/gnu/H-i686-pc-linux-gnu/bin/../lib/gcc/nios2-elf/4.1.2/../../../../nios2-elf/lib/mno-hw-mul/pg/libc.a(lib_a-isattyr.o)
 .debug_pubnames
                0x00000d27       0x1f /opt/altera/13.0sp1/nios2eds/bin/gnu/H-i686-pc-linux-gnu/bin/../lib/gcc/nios2-elf/4.1.2/../../../../nios2-elf/lib/mno-hw-mul/pg/libc.a(lib_a-lseekr.o)
 .debug_pubnames
                0x00000d46       0x1e /opt/altera/13.0sp1/nios2eds/bin/gnu/H-i686-pc-linux-gnu/bin/../lib/gcc/nios2-elf/4.1.2/../../../../nios2-elf/lib/mno-hw-mul/pg/libc.a(lib_a-readr.o)
 .debug_pubnames
                0x00000d64       0x20 /opt/altera/13.0sp1/nios2eds/bin/gnu/H-i686-pc-linux-gnu/bin/../lib/gcc/nios2-elf/4.1.2/mno-hw-mul/pg/libgcc.a(_udivdi3.o)
 .debug_pubnames
                0x00000d84       0x20 /opt/altera/13.0sp1/nios2eds/bin/gnu/H-i686-pc-linux-gnu/bin/../lib/gcc/nios2-elf/4.1.2/mno-hw-mul/pg/libgcc.a(_umoddi3.o)
 .debug_pubnames
                0x00000da4       0x1e /opt/altera/13.0sp1/nios2eds/bin/gnu/H-i686-pc-linux-gnu/bin/../lib/gcc/nios2-elf/4.1.2/mno-hw-mul/pg/libgcc.a(_eq_df.o)
 .debug_pubnames
                0x00000dc2       0x1e /opt/altera/13.0sp1/nios2eds/bin/gnu/H-i686-pc-linux-gnu/bin/../lib/gcc/nios2-elf/4.1.2/mno-hw-mul/pg/libgcc.a(_ne_df.o)
 .debug_pubnames
                0x00000de0       0x1e /opt/altera/13.0sp1/nios2eds/bin/gnu/H-i686-pc-linux-gnu/bin/../lib/gcc/nios2-elf/4.1.2/mno-hw-mul/pg/libgcc.a(_gt_df.o)
 .debug_pubnames
                0x00000dfe       0x1e /opt/altera/13.0sp1/nios2eds/bin/gnu/H-i686-pc-linux-gnu/bin/../lib/gcc/nios2-elf/4.1.2/mno-hw-mul/pg/libgcc.a(_ge_df.o)
 .debug_pubnames
                0x00000e1c       0x1e /opt/altera/13.0sp1/nios2eds/bin/gnu/H-i686-pc-linux-gnu/bin/../lib/gcc/nios2-elf/4.1.2/mno-hw-mul/pg/libgcc.a(_lt_df.o)
 .debug_pubnames
                0x00000e3a       0x22 /opt/altera/13.0sp1/nios2eds/bin/gnu/H-i686-pc-linux-gnu/bin/../lib/gcc/nios2-elf/4.1.2/mno-hw-mul/pg/libgcc.a(_si_to_df.o)
 .debug_pubnames
                0x00000e5c       0x20 /opt/altera/13.0sp1/nios2eds/bin/gnu/H-i686-pc-linux-gnu/bin/../lib/gcc/nios2-elf/4.1.2/mno-hw-mul/pg/libgcc.a(_df_to_si.o)
 .debug_pubnames
                0x00000e7c       0x26 /opt/altera/13.0sp1/nios2eds/bin/gnu/H-i686-pc-linux-gnu/bin/../lib/gcc/nios2-elf/4.1.2/mno-hw-mul/pg/libgcc.a(_fpcmp_parts_df.o)
 .debug_pubnames
                0x00000ea2       0x26 ../il2212-rtos_bsp//libucosii_bsp.a(alt_alarm_start.o)
 .debug_pubnames
                0x00000ec8       0x1c ../il2212-rtos_bsp//libucosii_bsp.a(alt_close.o)
 .debug_pubnames
                0x00000ee4       0x78 ../il2212-rtos_bsp//libucosii_bsp.a(alt_dev.o)
 .debug_pubnames
                0x00000f5c       0x20 ../il2212-rtos_bsp//libucosii_bsp.a(alt_errno.o)
 .debug_pubnames
                0x00000f7c       0x1c ../il2212-rtos_bsp//libucosii_bsp.a(alt_fstat.o)
 .debug_pubnames
                0x00000f98       0x1d ../il2212-rtos_bsp//libucosii_bsp.a(alt_isatty.o)
 .debug_pubnames
                0x00000fb5       0x1f ../il2212-rtos_bsp//libucosii_bsp.a(alt_load.o)
 .debug_pubnames
                0x00000fd4       0x1c ../il2212-rtos_bsp//libucosii_bsp.a(alt_lseek.o)
 .debug_pubnames
                0x00000ff0       0x46 ../il2212-rtos_bsp//libucosii_bsp.a(alt_main.o)
 .debug_pubnames
                0x00001036       0x1b ../il2212-rtos_bsp//libucosii_bsp.a(alt_read.o)
 .debug_pubnames
                0x00001051       0x25 ../il2212-rtos_bsp//libucosii_bsp.a(alt_release_fd.o)
 .debug_pubnames
                0x00001076       0x1b ../il2212-rtos_bsp//libucosii_bsp.a(alt_sbrk.o)
 .debug_pubnames
                0x00001091       0x68 ../il2212-rtos_bsp//libucosii_bsp.a(alt_tick.o)
 .debug_pubnames
                0x000010f9       0x1c ../il2212-rtos_bsp//libucosii_bsp.a(alt_write.o)
 .debug_pubnames
                0x00001115       0x41 ../il2212-rtos_bsp//libucosii_bsp.a(alt_env_lock.o)
 .debug_pubnames
                0x00001156       0x48 ../il2212-rtos_bsp//libucosii_bsp.a(alt_malloc_lock.o)
 .debug_pubnames
                0x0000119e      0x484 ../il2212-rtos_bsp//libucosii_bsp.a(os_core.o)
 .debug_pubnames
                0x00001622      0x3c5 ../il2212-rtos_bsp//libucosii_bsp.a(os_dbg.o)
 .debug_pubnames
                0x000019e7       0xd0 ../il2212-rtos_bsp//libucosii_bsp.a(os_flag.o)
 .debug_pubnames
                0x00001ab7       0x7c ../il2212-rtos_bsp//libucosii_bsp.a(os_mem.o)
 .debug_pubnames
                0x00001b33       0xa9 ../il2212-rtos_bsp//libucosii_bsp.a(os_q.o)
 .debug_pubnames
                0x00001bdc       0x8a ../il2212-rtos_bsp//libucosii_bsp.a(os_sem.o)
 .debug_pubnames
                0x00001c66       0xe5 ../il2212-rtos_bsp//libucosii_bsp.a(os_task.o)
 .debug_pubnames
                0x00001d4b       0x62 ../il2212-rtos_bsp//libucosii_bsp.a(os_time.o)
 .debug_pubnames
                0x00001dad       0xa1 ../il2212-rtos_bsp//libucosii_bsp.a(os_tmr.o)
 .debug_pubnames
                0x00001e4e       0x34 ../il2212-rtos_bsp//libucosii_bsp.a(alt_sys_init.o)
 .debug_pubnames
                0x00001e82       0xa5 ../il2212-rtos_bsp//libucosii_bsp.a(altera_avalon_jtag_uart_fd.o)
 .debug_pubnames
                0x00001f27       0x55 ../il2212-rtos_bsp//libucosii_bsp.a(altera_avalon_jtag_uart_init.o)
 .debug_pubnames
                0x00001f7c       0x34 ../il2212-rtos_bsp//libucosii_bsp.a(altera_avalon_jtag_uart_ioctl.o)
 .debug_pubnames
                0x00001fb0       0x33 ../il2212-rtos_bsp//libucosii_bsp.a(altera_avalon_jtag_uart_read.o)
 .debug_pubnames
                0x00001fe3       0x34 ../il2212-rtos_bsp//libucosii_bsp.a(altera_avalon_jtag_uart_write.o)
 .debug_pubnames
                0x00002017       0xff ../il2212-rtos_bsp//libucosii_bsp.a(altera_avalon_mutex.o)
 .debug_pubnames
                0x00002116       0x96 ../il2212-rtos_bsp//libucosii_bsp.a(altera_avalon_performance_counter.o)
 .debug_pubnames
                0x000021ac       0x2f ../il2212-rtos_bsp//libucosii_bsp.a(altera_avalon_timer_sc.o)
 .debug_pubnames
                0x000021db       0x52 ../il2212-rtos_bsp//libucosii_bsp.a(altera_avalon_timer_vars.o)
 .debug_pubnames
                0x0000222d       0x32 ../il2212-rtos_bsp//libucosii_bsp.a(perf_print_formatted_report.o)
 .debug_pubnames
                0x0000225f       0x2b ../il2212-rtos_bsp//libucosii_bsp.a(alt_dcache_flush_all.o)
 .debug_pubnames
                0x0000228a       0x2b ../il2212-rtos_bsp//libucosii_bsp.a(alt_dev_llist_insert.o)
 .debug_pubnames
                0x000022b5       0x20 ../il2212-rtos_bsp//libucosii_bsp.a(alt_do_ctors.o)
 .debug_pubnames
                0x000022d5       0x20 ../il2212-rtos_bsp//libucosii_bsp.a(alt_do_dtors.o)
 .debug_pubnames
                0x000022f5       0x23 ../il2212-rtos_bsp//libucosii_bsp.a(alt_find_dev.o)
 .debug_pubnames
                0x00002318       0x4d ../il2212-rtos_bsp//libucosii_bsp.a(alt_gmon.o)
 .debug_pubnames
                0x00002365       0x2b ../il2212-rtos_bsp//libucosii_bsp.a(alt_icache_flush_all.o)
 .debug_pubnames
                0x00002390       0x26 ../il2212-rtos_bsp//libucosii_bsp.a(alt_io_redirect.o)
 .debug_pubnames
                0x000023b6       0x27 ../il2212-rtos_bsp//libucosii_bsp.a(alt_irq_register.o)
 .debug_pubnames
                0x000023dd       0x3b ../il2212-rtos_bsp//libucosii_bsp.a(alt_irq_vars.o)
 .debug_pubnames
                0x00002418       0x1b ../il2212-rtos_bsp//libucosii_bsp.a(alt_open.o)
 .debug_pubnames
                0x00002433       0x31 ../il2212-rtos_bsp//libucosii_bsp.a(altera_nios2_qsys_irq.o)
 .debug_pubnames
                0x00002464       0xcd ../il2212-rtos_bsp//libucosii_bsp.a(os_cpu_c.o)
 .debug_pubnames
                0x00002531       0x24 ../il2212-rtos_bsp//libucosii_bsp.a(alt_find_file.o)
 .debug_pubnames
                0x00002555       0x21 ../il2212-rtos_bsp//libucosii_bsp.a(alt_get_fd.o)
 .debug_pubnames
                0x00002576       0x32 ../il2212-rtos_bsp//libucosii_bsp.a(alt_irq_handler.o)
 .debug_pubnames
                0x000025a8       0x2a /opt/altera/13.0sp1/nios2eds/bin/gnu/H-i686-pc-linux-gnu/bin/../lib/gcc/nios2-elf/4.1.2/../../../../nios2-elf/lib/mno-hw-mul/pg/libc.a(lib_a-atexit.o)
 .debug_pubnames
                0x000025d2       0x1b /opt/altera/13.0sp1/nios2eds/bin/gnu/H-i686-pc-linux-gnu/bin/../lib/gcc/nios2-elf/4.1.2/../../../../nios2-elf/lib/mno-hw-mul/pg/libc.a(lib_a-exit.o)
 .debug_pubnames
                0x000025ed       0x1d /opt/altera/13.0sp1/nios2eds/bin/gnu/H-i686-pc-linux-gnu/bin/../lib/gcc/nios2-elf/4.1.2/../../../../nios2-elf/lib/mno-hw-mul/pg/libc.a(lib_a-memcmp.o)
 .debug_pubnames
                0x0000260a       0x2a /opt/altera/13.0sp1/nios2eds/bin/gnu/H-i686-pc-linux-gnu/bin/../lib/gcc/nios2-elf/4.1.2/../../../../nios2-elf/lib/mno-hw-mul/pg/libc.a(lib_a-__atexit.o)
 .debug_pubnames
                0x00002634       0x27 /opt/altera/13.0sp1/nios2eds/bin/gnu/H-i686-pc-linux-gnu/bin/../lib/gcc/nios2-elf/4.1.2/../../../../nios2-elf/lib/mno-hw-mul/pg/libc.a(lib_a-__call_atexit.o)
 .debug_pubnames
                0x0000265b       0x23 /opt/altera/13.0sp1/nios2eds/bin/gnu/H-i686-pc-linux-gnu/bin/../lib/gcc/nios2-elf/4.1.2/mno-hw-mul/pg/libgcc.a(_fixunsdfsi.o)
 .debug_pubnames
                0x0000267e       0x1c ../il2212-rtos_bsp//libucosii_bsp.a(alt_exit.o)

.debug_info     0x00000000    0x34f56
 *(.debug_info .gnu.linkonce.wi.*)
 .debug_info    0x00000000       0x8b ../il2212-rtos_bsp//obj/HAL/src/crt0.o
 .debug_info    0x0000008b      0xf3d obj/default/cpu_0.o
 .debug_info    0x00000fc8       0xdc /opt/altera/13.0sp1/nios2eds/bin/gnu/H-i686-pc-linux-gnu/bin/../lib/gcc/nios2-elf/4.1.2/mno-hw-mul/pg/libgcc.a(_floatundidf.o)
 .debug_info    0x000010a4      0x493 /opt/altera/13.0sp1/nios2eds/bin/gnu/H-i686-pc-linux-gnu/bin/../lib/gcc/nios2-elf/4.1.2/mno-hw-mul/pg/libgcc.a(_addsub_df.o)
 .debug_info    0x00001537      0x488 /opt/altera/13.0sp1/nios2eds/bin/gnu/H-i686-pc-linux-gnu/bin/../lib/gcc/nios2-elf/4.1.2/mno-hw-mul/pg/libgcc.a(_mul_df.o)
 .debug_info    0x000019bf      0x39b /opt/altera/13.0sp1/nios2eds/bin/gnu/H-i686-pc-linux-gnu/bin/../lib/gcc/nios2-elf/4.1.2/mno-hw-mul/pg/libgcc.a(_div_df.o)
 .debug_info    0x00001d5a      0x164 /opt/altera/13.0sp1/nios2eds/bin/gnu/H-i686-pc-linux-gnu/bin/../lib/gcc/nios2-elf/4.1.2/mno-hw-mul/pg/libgcc.a(_thenan_df.o)
 .debug_info    0x00001ebe      0x213 /opt/altera/13.0sp1/nios2eds/bin/gnu/H-i686-pc-linux-gnu/bin/../lib/gcc/nios2-elf/4.1.2/mno-hw-mul/pg/libgcc.a(_usi_to_df.o)
 .debug_info    0x000020d1      0x21c /opt/altera/13.0sp1/nios2eds/bin/gnu/H-i686-pc-linux-gnu/bin/../lib/gcc/nios2-elf/4.1.2/mno-hw-mul/pg/libgcc.a(lib2-divmod.o)
 .debug_info    0x000022ed       0xf3 /opt/altera/13.0sp1/nios2eds/bin/gnu/H-i686-pc-linux-gnu/bin/../lib/gcc/nios2-elf/4.1.2/mno-hw-mul/pg/libgcc.a(lib2-mul.o)
 .debug_info    0x000023e0      0x210 /opt/altera/13.0sp1/nios2eds/bin/gnu/H-i686-pc-linux-gnu/bin/../lib/gcc/nios2-elf/4.1.2/mno-hw-mul/pg/libgcc.a(_muldi3.o)
 .debug_info    0x000025f0      0x130 /opt/altera/13.0sp1/nios2eds/bin/gnu/H-i686-pc-linux-gnu/bin/../lib/gcc/nios2-elf/4.1.2/mno-hw-mul/pg/libgcc.a(_clzsi2.o)
 .debug_info    0x00002720      0x2fc /opt/altera/13.0sp1/nios2eds/bin/gnu/H-i686-pc-linux-gnu/bin/../lib/gcc/nios2-elf/4.1.2/mno-hw-mul/pg/libgcc.a(_pack_df.o)
 .debug_info    0x00002a1c      0x268 /opt/altera/13.0sp1/nios2eds/bin/gnu/H-i686-pc-linux-gnu/bin/../lib/gcc/nios2-elf/4.1.2/mno-hw-mul/pg/libgcc.a(_unpack_df.o)
 .debug_info    0x00002c84       0xc9 /opt/altera/13.0sp1/nios2eds/bin/gnu/H-i686-pc-linux-gnu/bin/../lib/gcc/nios2-elf/4.1.2/mno-hw-mul/pg/libgcc.a(_clz.o)
 .debug_info    0x00002d4d      0x9d1 /opt/altera/13.0sp1/nios2eds/bin/gnu/H-i686-pc-linux-gnu/bin/../lib/gcc/nios2-elf/4.1.2/../../../../nios2-elf/lib/mno-hw-mul/pg/libc.a(lib_a-printf.o)
 .debug_info    0x0000371e      0x972 /opt/altera/13.0sp1/nios2eds/bin/gnu/H-i686-pc-linux-gnu/bin/../lib/gcc/nios2-elf/4.1.2/../../../../nios2-elf/lib/mno-hw-mul/pg/libc.a(lib_a-putchar.o)
 .debug_info    0x00004090      0xa25 /opt/altera/13.0sp1/nios2eds/bin/gnu/H-i686-pc-linux-gnu/bin/../lib/gcc/nios2-elf/4.1.2/../../../../nios2-elf/lib/mno-hw-mul/pg/libc.a(lib_a-puts.o)
 .debug_info    0x00004ab5       0xdb /opt/altera/13.0sp1/nios2eds/bin/gnu/H-i686-pc-linux-gnu/bin/../lib/gcc/nios2-elf/4.1.2/../../../../nios2-elf/lib/mno-hw-mul/pg/libc.a(lib_a-strlen.o)
 .debug_info    0x00004b90     0x10d5 /opt/altera/13.0sp1/nios2eds/bin/gnu/H-i686-pc-linux-gnu/bin/../lib/gcc/nios2-elf/4.1.2/../../../../nios2-elf/lib/mno-hw-mul/pg/libc.a(lib_a-vfprintf.o)
 .debug_info    0x00005c65      0x95d /opt/altera/13.0sp1/nios2eds/bin/gnu/H-i686-pc-linux-gnu/bin/../lib/gcc/nios2-elf/4.1.2/../../../../nios2-elf/lib/mno-hw-mul/pg/libc.a(lib_a-wsetup.o)
 .debug_info    0x000065c2      0xd6f /opt/altera/13.0sp1/nios2eds/bin/gnu/H-i686-pc-linux-gnu/bin/../lib/gcc/nios2-elf/4.1.2/../../../../nios2-elf/lib/mno-hw-mul/pg/libc.a(lib_a-dtoa.o)
 .debug_info    0x00007331      0x9fe /opt/altera/13.0sp1/nios2eds/bin/gnu/H-i686-pc-linux-gnu/bin/../lib/gcc/nios2-elf/4.1.2/../../../../nios2-elf/lib/mno-hw-mul/pg/libc.a(lib_a-fflush.o)
 .debug_info    0x00007d2f      0xb72 /opt/altera/13.0sp1/nios2eds/bin/gnu/H-i686-pc-linux-gnu/bin/../lib/gcc/nios2-elf/4.1.2/../../../../nios2-elf/lib/mno-hw-mul/pg/libc.a(lib_a-findfp.o)
 .debug_info    0x000088a1      0xbc9 /opt/altera/13.0sp1/nios2eds/bin/gnu/H-i686-pc-linux-gnu/bin/../lib/gcc/nios2-elf/4.1.2/../../../../nios2-elf/lib/mno-hw-mul/pg/libc.a(lib_a-freer.o)
 .debug_info    0x0000946a      0xa88 /opt/altera/13.0sp1/nios2eds/bin/gnu/H-i686-pc-linux-gnu/bin/../lib/gcc/nios2-elf/4.1.2/../../../../nios2-elf/lib/mno-hw-mul/pg/libc.a(lib_a-fvwrite.o)
 .debug_info    0x00009ef2      0xaed /opt/altera/13.0sp1/nios2eds/bin/gnu/H-i686-pc-linux-gnu/bin/../lib/gcc/nios2-elf/4.1.2/../../../../nios2-elf/lib/mno-hw-mul/pg/libc.a(lib_a-fwalk.o)
 .debug_info    0x0000a9df      0x93d /opt/altera/13.0sp1/nios2eds/bin/gnu/H-i686-pc-linux-gnu/bin/../lib/gcc/nios2-elf/4.1.2/../../../../nios2-elf/lib/mno-hw-mul/pg/libc.a(lib_a-impure.o)
 .debug_info    0x0000b31c      0xb97 /opt/altera/13.0sp1/nios2eds/bin/gnu/H-i686-pc-linux-gnu/bin/../lib/gcc/nios2-elf/4.1.2/../../../../nios2-elf/lib/mno-hw-mul/pg/libc.a(lib_a-locale.o)
 .debug_info    0x0000beb3      0xb1a /opt/altera/13.0sp1/nios2eds/bin/gnu/H-i686-pc-linux-gnu/bin/../lib/gcc/nios2-elf/4.1.2/../../../../nios2-elf/lib/mno-hw-mul/pg/libc.a(lib_a-makebuf.o)
 .debug_info    0x0000c9cd      0xcd0 /opt/altera/13.0sp1/nios2eds/bin/gnu/H-i686-pc-linux-gnu/bin/../lib/gcc/nios2-elf/4.1.2/../../../../nios2-elf/lib/mno-hw-mul/pg/libc.a(lib_a-mallocr.o)
 .debug_info    0x0000d69d      0x138 /opt/altera/13.0sp1/nios2eds/bin/gnu/H-i686-pc-linux-gnu/bin/../lib/gcc/nios2-elf/4.1.2/../../../../nios2-elf/lib/mno-hw-mul/pg/libc.a(lib_a-memchr.o)
 .debug_info    0x0000d7d5      0x106 /opt/altera/13.0sp1/nios2eds/bin/gnu/H-i686-pc-linux-gnu/bin/../lib/gcc/nios2-elf/4.1.2/../../../../nios2-elf/lib/mno-hw-mul/pg/libc.a(lib_a-memcpy.o)
 .debug_info    0x0000d8db      0x13e /opt/altera/13.0sp1/nios2eds/bin/gnu/H-i686-pc-linux-gnu/bin/../lib/gcc/nios2-elf/4.1.2/../../../../nios2-elf/lib/mno-hw-mul/pg/libc.a(lib_a-memmove.o)
 .debug_info    0x0000da19      0x113 /opt/altera/13.0sp1/nios2eds/bin/gnu/H-i686-pc-linux-gnu/bin/../lib/gcc/nios2-elf/4.1.2/../../../../nios2-elf/lib/mno-hw-mul/pg/libc.a(lib_a-memset.o)
 .debug_info    0x0000db2c     0x143b /opt/altera/13.0sp1/nios2eds/bin/gnu/H-i686-pc-linux-gnu/bin/../lib/gcc/nios2-elf/4.1.2/../../../../nios2-elf/lib/mno-hw-mul/pg/libc.a(lib_a-mprec.o)
 .debug_info    0x0000ef67      0x9c1 /opt/altera/13.0sp1/nios2eds/bin/gnu/H-i686-pc-linux-gnu/bin/../lib/gcc/nios2-elf/4.1.2/../../../../nios2-elf/lib/mno-hw-mul/pg/libc.a(lib_a-putc.o)
 .debug_info    0x0000f928      0xbd7 /opt/altera/13.0sp1/nios2eds/bin/gnu/H-i686-pc-linux-gnu/bin/../lib/gcc/nios2-elf/4.1.2/../../../../nios2-elf/lib/mno-hw-mul/pg/libc.a(lib_a-reallocr.o)
 .debug_info    0x000104ff       0xd7 /opt/altera/13.0sp1/nios2eds/bin/gnu/H-i686-pc-linux-gnu/bin/../lib/gcc/nios2-elf/4.1.2/../../../../nios2-elf/lib/mno-hw-mul/pg/libc.a(lib_a-s_isinfd.o)
 .debug_info    0x000105d6       0xd5 /opt/altera/13.0sp1/nios2eds/bin/gnu/H-i686-pc-linux-gnu/bin/../lib/gcc/nios2-elf/4.1.2/../../../../nios2-elf/lib/mno-hw-mul/pg/libc.a(lib_a-s_isnand.o)
 .debug_info    0x000106ab      0x962 /opt/altera/13.0sp1/nios2eds/bin/gnu/H-i686-pc-linux-gnu/bin/../lib/gcc/nios2-elf/4.1.2/../../../../nios2-elf/lib/mno-hw-mul/pg/libc.a(lib_a-sbrkr.o)
 .debug_info    0x0001100d      0xaac /opt/altera/13.0sp1/nios2eds/bin/gnu/H-i686-pc-linux-gnu/bin/../lib/gcc/nios2-elf/4.1.2/../../../../nios2-elf/lib/mno-hw-mul/pg/libc.a(lib_a-stdio.o)
 .debug_info    0x00011ab9       0xdd /opt/altera/13.0sp1/nios2eds/bin/gnu/H-i686-pc-linux-gnu/bin/../lib/gcc/nios2-elf/4.1.2/../../../../nios2-elf/lib/mno-hw-mul/pg/libc.a(lib_a-strcmp.o)
 .debug_info    0x00011b96      0x9ae /opt/altera/13.0sp1/nios2eds/bin/gnu/H-i686-pc-linux-gnu/bin/../lib/gcc/nios2-elf/4.1.2/../../../../nios2-elf/lib/mno-hw-mul/pg/libc.a(lib_a-wbuf.o)
 .debug_info    0x00012544      0x993 /opt/altera/13.0sp1/nios2eds/bin/gnu/H-i686-pc-linux-gnu/bin/../lib/gcc/nios2-elf/4.1.2/../../../../nios2-elf/lib/mno-hw-mul/pg/libc.a(lib_a-writer.o)
 .debug_info    0x00012ed7      0xa1b /opt/altera/13.0sp1/nios2eds/bin/gnu/H-i686-pc-linux-gnu/bin/../lib/gcc/nios2-elf/4.1.2/../../../../nios2-elf/lib/mno-hw-mul/pg/libc.a(lib_a-callocr.o)
 .debug_info    0x000138f2      0x958 /opt/altera/13.0sp1/nios2eds/bin/gnu/H-i686-pc-linux-gnu/bin/../lib/gcc/nios2-elf/4.1.2/../../../../nios2-elf/lib/mno-hw-mul/pg/libc.a(lib_a-closer.o)
 .debug_info    0x0001424a      0x994 /opt/altera/13.0sp1/nios2eds/bin/gnu/H-i686-pc-linux-gnu/bin/../lib/gcc/nios2-elf/4.1.2/../../../../nios2-elf/lib/mno-hw-mul/pg/libc.a(lib_a-fclose.o)
 .debug_info    0x00014bde      0xafc /opt/altera/13.0sp1/nios2eds/bin/gnu/H-i686-pc-linux-gnu/bin/../lib/gcc/nios2-elf/4.1.2/../../../../nios2-elf/lib/mno-hw-mul/pg/libc.a(lib_a-fstatr.o)
 .debug_info    0x000156da       0x8c /opt/altera/13.0sp1/nios2eds/bin/gnu/H-i686-pc-linux-gnu/bin/../lib/gcc/nios2-elf/4.1.2/../../../../nios2-elf/lib/mno-hw-mul/pg/libc.a(lib_a-int_errno.o)
 .debug_info    0x00015766      0x958 /opt/altera/13.0sp1/nios2eds/bin/gnu/H-i686-pc-linux-gnu/bin/../lib/gcc/nios2-elf/4.1.2/../../../../nios2-elf/lib/mno-hw-mul/pg/libc.a(lib_a-isattyr.o)
 .debug_info    0x000160be      0x981 /opt/altera/13.0sp1/nios2eds/bin/gnu/H-i686-pc-linux-gnu/bin/../lib/gcc/nios2-elf/4.1.2/../../../../nios2-elf/lib/mno-hw-mul/pg/libc.a(lib_a-lseekr.o)
 .debug_info    0x00016a3f      0x98c /opt/altera/13.0sp1/nios2eds/bin/gnu/H-i686-pc-linux-gnu/bin/../lib/gcc/nios2-elf/4.1.2/../../../../nios2-elf/lib/mno-hw-mul/pg/libc.a(lib_a-readr.o)
 .debug_info    0x000173cb      0x71c /opt/altera/13.0sp1/nios2eds/bin/gnu/H-i686-pc-linux-gnu/bin/../lib/gcc/nios2-elf/4.1.2/mno-hw-mul/pg/libgcc.a(_udivdi3.o)
 .debug_info    0x00017ae7      0x749 /opt/altera/13.0sp1/nios2eds/bin/gnu/H-i686-pc-linux-gnu/bin/../lib/gcc/nios2-elf/4.1.2/mno-hw-mul/pg/libgcc.a(_umoddi3.o)
 .debug_info    0x00018230      0x29d /opt/altera/13.0sp1/nios2eds/bin/gnu/H-i686-pc-linux-gnu/bin/../lib/gcc/nios2-elf/4.1.2/mno-hw-mul/pg/libgcc.a(_eq_df.o)
 .debug_info    0x000184cd      0x29d /opt/altera/13.0sp1/nios2eds/bin/gnu/H-i686-pc-linux-gnu/bin/../lib/gcc/nios2-elf/4.1.2/mno-hw-mul/pg/libgcc.a(_ne_df.o)
 .debug_info    0x0001876a      0x29d /opt/altera/13.0sp1/nios2eds/bin/gnu/H-i686-pc-linux-gnu/bin/../lib/gcc/nios2-elf/4.1.2/mno-hw-mul/pg/libgcc.a(_gt_df.o)
 .debug_info    0x00018a07      0x29d /opt/altera/13.0sp1/nios2eds/bin/gnu/H-i686-pc-linux-gnu/bin/../lib/gcc/nios2-elf/4.1.2/mno-hw-mul/pg/libgcc.a(_ge_df.o)
 .debug_info    0x00018ca4      0x29d /opt/altera/13.0sp1/nios2eds/bin/gnu/H-i686-pc-linux-gnu/bin/../lib/gcc/nios2-elf/4.1.2/mno-hw-mul/pg/libgcc.a(_lt_df.o)
 .debug_info    0x00018f41      0x218 /opt/altera/13.0sp1/nios2eds/bin/gnu/H-i686-pc-linux-gnu/bin/../lib/gcc/nios2-elf/4.1.2/mno-hw-mul/pg/libgcc.a(_si_to_df.o)
 .debug_info    0x00019159      0x2cd /opt/altera/13.0sp1/nios2eds/bin/gnu/H-i686-pc-linux-gnu/bin/../lib/gcc/nios2-elf/4.1.2/mno-hw-mul/pg/libgcc.a(_df_to_si.o)
 .debug_info    0x00019426      0x21b /opt/altera/13.0sp1/nios2eds/bin/gnu/H-i686-pc-linux-gnu/bin/../lib/gcc/nios2-elf/4.1.2/mno-hw-mul/pg/libgcc.a(_fpcmp_parts_df.o)
 .debug_info    0x00019641      0x485 ../il2212-rtos_bsp//libucosii_bsp.a(alt_alarm_start.o)
 .debug_info    0x00019ac6      0x4fe ../il2212-rtos_bsp//libucosii_bsp.a(alt_close.o)
 .debug_info    0x00019fc4      0x820 ../il2212-rtos_bsp//libucosii_bsp.a(alt_dev.o)
 .debug_info    0x0001a7e4      0x174 ../il2212-rtos_bsp//libucosii_bsp.a(alt_errno.o)
 .debug_info    0x0001a958      0x6f7 ../il2212-rtos_bsp//libucosii_bsp.a(alt_fstat.o)
 .debug_info    0x0001b04f      0x6fd ../il2212-rtos_bsp//libucosii_bsp.a(alt_isatty.o)
 .debug_info    0x0001b74c      0x29d ../il2212-rtos_bsp//libucosii_bsp.a(alt_load.o)
 .debug_info    0x0001b9e9      0x531 ../il2212-rtos_bsp//libucosii_bsp.a(alt_lseek.o)
 .debug_info    0x0001bf1a      0x420 ../il2212-rtos_bsp//libucosii_bsp.a(alt_main.o)
 .debug_info    0x0001c33a       0x95 ../il2212-rtos_bsp//libucosii_bsp.a(alt_mcount.o)
 .debug_info    0x0001c3cf      0x721 ../il2212-rtos_bsp//libucosii_bsp.a(alt_read.o)
 .debug_info    0x0001caf0      0x492 ../il2212-rtos_bsp//libucosii_bsp.a(alt_release_fd.o)
 .debug_info    0x0001cf82      0x30e ../il2212-rtos_bsp//libucosii_bsp.a(alt_sbrk.o)
 .debug_info    0x0001d290      0x454 ../il2212-rtos_bsp//libucosii_bsp.a(alt_tick.o)
 .debug_info    0x0001d6e4      0x72a ../il2212-rtos_bsp//libucosii_bsp.a(alt_write.o)
 .debug_info    0x0001de0e     0x1216 ../il2212-rtos_bsp//libucosii_bsp.a(alt_env_lock.o)
 .debug_info    0x0001f024     0x1372 ../il2212-rtos_bsp//libucosii_bsp.a(alt_malloc_lock.o)
 .debug_info    0x00020396     0x1eee ../il2212-rtos_bsp//libucosii_bsp.a(os_core.o)
 .debug_info    0x00022284     0x1406 ../il2212-rtos_bsp//libucosii_bsp.a(os_dbg.o)
 .debug_info    0x0002368a     0x1287 ../il2212-rtos_bsp//libucosii_bsp.a(os_flag.o)
 .debug_info    0x00024911      0x851 ../il2212-rtos_bsp//libucosii_bsp.a(os_mem.o)
 .debug_info    0x00025162     0x10c1 ../il2212-rtos_bsp//libucosii_bsp.a(os_q.o)
 .debug_info    0x00026223      0xd29 ../il2212-rtos_bsp//libucosii_bsp.a(os_sem.o)
 .debug_info    0x00026f4c     0x139f ../il2212-rtos_bsp//libucosii_bsp.a(os_task.o)
 .debug_info    0x000282eb      0xa23 ../il2212-rtos_bsp//libucosii_bsp.a(os_time.o)
 .debug_info    0x00028d0e      0xb56 ../il2212-rtos_bsp//libucosii_bsp.a(os_tmr.o)
 .debug_info    0x00029864      0xba7 ../il2212-rtos_bsp//libucosii_bsp.a(alt_sys_init.o)
 .debug_info    0x0002a40b      0xa15 ../il2212-rtos_bsp//libucosii_bsp.a(altera_avalon_jtag_uart_fd.o)
 .debug_info    0x0002ae20      0x9a0 ../il2212-rtos_bsp//libucosii_bsp.a(altera_avalon_jtag_uart_init.o)
 .debug_info    0x0002b7c0      0x67f ../il2212-rtos_bsp//libucosii_bsp.a(altera_avalon_jtag_uart_ioctl.o)
 .debug_info    0x0002be3f      0x83b ../il2212-rtos_bsp//libucosii_bsp.a(altera_avalon_jtag_uart_read.o)
 .debug_info    0x0002c67a      0x832 ../il2212-rtos_bsp//libucosii_bsp.a(altera_avalon_jtag_uart_write.o)
 .debug_info    0x0002ceac      0x77a ../il2212-rtos_bsp//libucosii_bsp.a(altera_avalon_mutex.o)
 .debug_info    0x0002d626      0x2bf ../il2212-rtos_bsp//libucosii_bsp.a(altera_avalon_performance_counter.o)
 .debug_info    0x0002d8e5      0x3db ../il2212-rtos_bsp//libucosii_bsp.a(altera_avalon_timer_sc.o)
 .debug_info    0x0002dcc0      0x217 ../il2212-rtos_bsp//libucosii_bsp.a(altera_avalon_timer_vars.o)
 .debug_info    0x0002ded7      0x2e6 ../il2212-rtos_bsp//libucosii_bsp.a(perf_print_formatted_report.o)
 .debug_info    0x0002e1bd      0x16c ../il2212-rtos_bsp//libucosii_bsp.a(alt_dcache_flush_all.o)
 .debug_info    0x0002e329      0x2c7 ../il2212-rtos_bsp//libucosii_bsp.a(alt_dev_llist_insert.o)
 .debug_info    0x0002e5f0      0x11f ../il2212-rtos_bsp//libucosii_bsp.a(alt_do_ctors.o)
 .debug_info    0x0002e70f      0x11e ../il2212-rtos_bsp//libucosii_bsp.a(alt_do_dtors.o)
 .debug_info    0x0002e82d      0x4af ../il2212-rtos_bsp//libucosii_bsp.a(alt_find_dev.o)
 .debug_info    0x0002ecdc      0x6f0 ../il2212-rtos_bsp//libucosii_bsp.a(alt_gmon.o)
 .debug_info    0x0002f3cc      0x16c ../il2212-rtos_bsp//libucosii_bsp.a(alt_icache_flush_all.o)
 .debug_info    0x0002f538      0x72c ../il2212-rtos_bsp//libucosii_bsp.a(alt_io_redirect.o)
 .debug_info    0x0002fc64      0x47f ../il2212-rtos_bsp//libucosii_bsp.a(alt_irq_register.o)
 .debug_info    0x000300e3      0x177 ../il2212-rtos_bsp//libucosii_bsp.a(alt_irq_vars.o)
 .debug_info    0x0003025a      0x5ad ../il2212-rtos_bsp//libucosii_bsp.a(alt_open.o)
 .debug_info    0x00030807      0x1ba ../il2212-rtos_bsp//libucosii_bsp.a(altera_nios2_qsys_irq.o)
 .debug_info    0x000309c1       0x93 ../il2212-rtos_bsp//libucosii_bsp.a(os_cpu_a.o)
 .debug_info    0x00030a54     0x132c ../il2212-rtos_bsp//libucosii_bsp.a(os_cpu_c.o)
 .debug_info    0x00031d80      0x4b6 ../il2212-rtos_bsp//libucosii_bsp.a(alt_find_file.o)
 .debug_info    0x00032236      0x648 ../il2212-rtos_bsp//libucosii_bsp.a(alt_get_fd.o)
 .debug_info    0x0003287e       0x94 ../il2212-rtos_bsp//libucosii_bsp.a(alt_irq_entry.o)
 .debug_info    0x00032912      0x302 ../il2212-rtos_bsp//libucosii_bsp.a(alt_irq_handler.o)
 .debug_info    0x00032c14       0x9a ../il2212-rtos_bsp//libucosii_bsp.a(alt_exception_entry.o)
 .debug_info    0x00032cae      0x181 /opt/altera/13.0sp1/nios2eds/bin/gnu/H-i686-pc-linux-gnu/bin/../lib/gcc/nios2-elf/4.1.2/../../../../nios2-elf/lib/mno-hw-mul/pg/libc.a(lib_a-atexit.o)
 .debug_info    0x00032e2f      0x93f /opt/altera/13.0sp1/nios2eds/bin/gnu/H-i686-pc-linux-gnu/bin/../lib/gcc/nios2-elf/4.1.2/../../../../nios2-elf/lib/mno-hw-mul/pg/libc.a(lib_a-exit.o)
 .debug_info    0x0003376e      0x115 /opt/altera/13.0sp1/nios2eds/bin/gnu/H-i686-pc-linux-gnu/bin/../lib/gcc/nios2-elf/4.1.2/../../../../nios2-elf/lib/mno-hw-mul/pg/libc.a(lib_a-memcmp.o)
 .debug_info    0x00033883      0x99c /opt/altera/13.0sp1/nios2eds/bin/gnu/H-i686-pc-linux-gnu/bin/../lib/gcc/nios2-elf/4.1.2/../../../../nios2-elf/lib/mno-hw-mul/pg/libc.a(lib_a-__atexit.o)
 .debug_info    0x0003421f      0x9e2 /opt/altera/13.0sp1/nios2eds/bin/gnu/H-i686-pc-linux-gnu/bin/../lib/gcc/nios2-elf/4.1.2/../../../../nios2-elf/lib/mno-hw-mul/pg/libc.a(lib_a-__call_atexit.o)
 .debug_info    0x00034c01       0xce /opt/altera/13.0sp1/nios2eds/bin/gnu/H-i686-pc-linux-gnu/bin/../lib/gcc/nios2-elf/4.1.2/mno-hw-mul/pg/libgcc.a(_fixunsdfsi.o)
 .debug_info    0x00034ccf      0x287 ../il2212-rtos_bsp//libucosii_bsp.a(alt_exit.o)

.debug_abbrev   0x00000000     0x9f27
 *(.debug_abbrev)
 .debug_abbrev  0x00000000       0x12 ../il2212-rtos_bsp//obj/HAL/src/crt0.o
 .debug_abbrev  0x00000012      0x253 obj/default/cpu_0.o
 .debug_abbrev  0x00000265       0x6c /opt/altera/13.0sp1/nios2eds/bin/gnu/H-i686-pc-linux-gnu/bin/../lib/gcc/nios2-elf/4.1.2/mno-hw-mul/pg/libgcc.a(_floatundidf.o)
 .debug_abbrev  0x000002d1      0x1d2 /opt/altera/13.0sp1/nios2eds/bin/gnu/H-i686-pc-linux-gnu/bin/../lib/gcc/nios2-elf/4.1.2/mno-hw-mul/pg/libgcc.a(_addsub_df.o)
 .debug_abbrev  0x000004a3      0x204 /opt/altera/13.0sp1/nios2eds/bin/gnu/H-i686-pc-linux-gnu/bin/../lib/gcc/nios2-elf/4.1.2/mno-hw-mul/pg/libgcc.a(_mul_df.o)
 .debug_abbrev  0x000006a7      0x1e3 /opt/altera/13.0sp1/nios2eds/bin/gnu/H-i686-pc-linux-gnu/bin/../lib/gcc/nios2-elf/4.1.2/mno-hw-mul/pg/libgcc.a(_div_df.o)
 .debug_abbrev  0x0000088a       0xba /opt/altera/13.0sp1/nios2eds/bin/gnu/H-i686-pc-linux-gnu/bin/../lib/gcc/nios2-elf/4.1.2/mno-hw-mul/pg/libgcc.a(_thenan_df.o)
 .debug_abbrev  0x00000944      0x155 /opt/altera/13.0sp1/nios2eds/bin/gnu/H-i686-pc-linux-gnu/bin/../lib/gcc/nios2-elf/4.1.2/mno-hw-mul/pg/libgcc.a(_usi_to_df.o)
 .debug_abbrev  0x00000a99       0xe0 /opt/altera/13.0sp1/nios2eds/bin/gnu/H-i686-pc-linux-gnu/bin/../lib/gcc/nios2-elf/4.1.2/mno-hw-mul/pg/libgcc.a(lib2-divmod.o)
 .debug_abbrev  0x00000b79       0x7b /opt/altera/13.0sp1/nios2eds/bin/gnu/H-i686-pc-linux-gnu/bin/../lib/gcc/nios2-elf/4.1.2/mno-hw-mul/pg/libgcc.a(lib2-mul.o)
 .debug_abbrev  0x00000bf4       0xfb /opt/altera/13.0sp1/nios2eds/bin/gnu/H-i686-pc-linux-gnu/bin/../lib/gcc/nios2-elf/4.1.2/mno-hw-mul/pg/libgcc.a(_muldi3.o)
 .debug_abbrev  0x00000cef       0xb9 /opt/altera/13.0sp1/nios2eds/bin/gnu/H-i686-pc-linux-gnu/bin/../lib/gcc/nios2-elf/4.1.2/mno-hw-mul/pg/libgcc.a(_clzsi2.o)
 .debug_abbrev  0x00000da8      0x1b1 /opt/altera/13.0sp1/nios2eds/bin/gnu/H-i686-pc-linux-gnu/bin/../lib/gcc/nios2-elf/4.1.2/mno-hw-mul/pg/libgcc.a(_pack_df.o)
 .debug_abbrev  0x00000f59      0x149 /opt/altera/13.0sp1/nios2eds/bin/gnu/H-i686-pc-linux-gnu/bin/../lib/gcc/nios2-elf/4.1.2/mno-hw-mul/pg/libgcc.a(_unpack_df.o)
 .debug_abbrev  0x000010a2       0x61 /opt/altera/13.0sp1/nios2eds/bin/gnu/H-i686-pc-linux-gnu/bin/../lib/gcc/nios2-elf/4.1.2/mno-hw-mul/pg/libgcc.a(_clz.o)
 .debug_abbrev  0x00001103      0x191 /opt/altera/13.0sp1/nios2eds/bin/gnu/H-i686-pc-linux-gnu/bin/../lib/gcc/nios2-elf/4.1.2/../../../../nios2-elf/lib/mno-hw-mul/pg/libc.a(lib_a-printf.o)
 .debug_abbrev  0x00001294      0x170 /opt/altera/13.0sp1/nios2eds/bin/gnu/H-i686-pc-linux-gnu/bin/../lib/gcc/nios2-elf/4.1.2/../../../../nios2-elf/lib/mno-hw-mul/pg/libc.a(lib_a-putchar.o)
 .debug_abbrev  0x00001404      0x1ac /opt/altera/13.0sp1/nios2eds/bin/gnu/H-i686-pc-linux-gnu/bin/../lib/gcc/nios2-elf/4.1.2/../../../../nios2-elf/lib/mno-hw-mul/pg/libc.a(lib_a-puts.o)
 .debug_abbrev  0x000015b0       0x8b /opt/altera/13.0sp1/nios2eds/bin/gnu/H-i686-pc-linux-gnu/bin/../lib/gcc/nios2-elf/4.1.2/../../../../nios2-elf/lib/mno-hw-mul/pg/libc.a(lib_a-strlen.o)
 .debug_abbrev  0x0000163b      0x30a /opt/altera/13.0sp1/nios2eds/bin/gnu/H-i686-pc-linux-gnu/bin/../lib/gcc/nios2-elf/4.1.2/../../../../nios2-elf/lib/mno-hw-mul/pg/libc.a(lib_a-vfprintf.o)
 .debug_abbrev  0x00001945      0x170 /opt/altera/13.0sp1/nios2eds/bin/gnu/H-i686-pc-linux-gnu/bin/../lib/gcc/nios2-elf/4.1.2/../../../../nios2-elf/lib/mno-hw-mul/pg/libc.a(lib_a-wsetup.o)
 .debug_abbrev  0x00001ab5      0x232 /opt/altera/13.0sp1/nios2eds/bin/gnu/H-i686-pc-linux-gnu/bin/../lib/gcc/nios2-elf/4.1.2/../../../../nios2-elf/lib/mno-hw-mul/pg/libc.a(lib_a-dtoa.o)
 .debug_abbrev  0x00001ce7      0x1c6 /opt/altera/13.0sp1/nios2eds/bin/gnu/H-i686-pc-linux-gnu/bin/../lib/gcc/nios2-elf/4.1.2/../../../../nios2-elf/lib/mno-hw-mul/pg/libc.a(lib_a-fflush.o)
 .debug_abbrev  0x00001ead      0x24c /opt/altera/13.0sp1/nios2eds/bin/gnu/H-i686-pc-linux-gnu/bin/../lib/gcc/nios2-elf/4.1.2/../../../../nios2-elf/lib/mno-hw-mul/pg/libc.a(lib_a-findfp.o)
 .debug_abbrev  0x000020f9      0x1d9 /opt/altera/13.0sp1/nios2eds/bin/gnu/H-i686-pc-linux-gnu/bin/../lib/gcc/nios2-elf/4.1.2/../../../../nios2-elf/lib/mno-hw-mul/pg/libc.a(lib_a-freer.o)
 .debug_abbrev  0x000022d2      0x1a3 /opt/altera/13.0sp1/nios2eds/bin/gnu/H-i686-pc-linux-gnu/bin/../lib/gcc/nios2-elf/4.1.2/../../../../nios2-elf/lib/mno-hw-mul/pg/libc.a(lib_a-fvwrite.o)
 .debug_abbrev  0x00002475      0x1e3 /opt/altera/13.0sp1/nios2eds/bin/gnu/H-i686-pc-linux-gnu/bin/../lib/gcc/nios2-elf/4.1.2/../../../../nios2-elf/lib/mno-hw-mul/pg/libc.a(lib_a-fwalk.o)
 .debug_abbrev  0x00002658      0x157 /opt/altera/13.0sp1/nios2eds/bin/gnu/H-i686-pc-linux-gnu/bin/../lib/gcc/nios2-elf/4.1.2/../../../../nios2-elf/lib/mno-hw-mul/pg/libc.a(lib_a-impure.o)
 .debug_abbrev  0x000027af      0x1ed /opt/altera/13.0sp1/nios2eds/bin/gnu/H-i686-pc-linux-gnu/bin/../lib/gcc/nios2-elf/4.1.2/../../../../nios2-elf/lib/mno-hw-mul/pg/libc.a(lib_a-locale.o)
 .debug_abbrev  0x0000299c      0x197 /opt/altera/13.0sp1/nios2eds/bin/gnu/H-i686-pc-linux-gnu/bin/../lib/gcc/nios2-elf/4.1.2/../../../../nios2-elf/lib/mno-hw-mul/pg/libc.a(lib_a-makebuf.o)
 .debug_abbrev  0x00002b33      0x216 /opt/altera/13.0sp1/nios2eds/bin/gnu/H-i686-pc-linux-gnu/bin/../lib/gcc/nios2-elf/4.1.2/../../../../nios2-elf/lib/mno-hw-mul/pg/libc.a(lib_a-mallocr.o)
 .debug_abbrev  0x00002d49       0xb5 /opt/altera/13.0sp1/nios2eds/bin/gnu/H-i686-pc-linux-gnu/bin/../lib/gcc/nios2-elf/4.1.2/../../../../nios2-elf/lib/mno-hw-mul/pg/libc.a(lib_a-memchr.o)
 .debug_abbrev  0x00002dfe       0xb5 /opt/altera/13.0sp1/nios2eds/bin/gnu/H-i686-pc-linux-gnu/bin/../lib/gcc/nios2-elf/4.1.2/../../../../nios2-elf/lib/mno-hw-mul/pg/libc.a(lib_a-memcpy.o)
 .debug_abbrev  0x00002eb3       0xb5 /opt/altera/13.0sp1/nios2eds/bin/gnu/H-i686-pc-linux-gnu/bin/../lib/gcc/nios2-elf/4.1.2/../../../../nios2-elf/lib/mno-hw-mul/pg/libc.a(lib_a-memmove.o)
 .debug_abbrev  0x00002f68       0xb8 /opt/altera/13.0sp1/nios2eds/bin/gnu/H-i686-pc-linux-gnu/bin/../lib/gcc/nios2-elf/4.1.2/../../../../nios2-elf/lib/mno-hw-mul/pg/libc.a(lib_a-memset.o)
 .debug_abbrev  0x00003020      0x297 /opt/altera/13.0sp1/nios2eds/bin/gnu/H-i686-pc-linux-gnu/bin/../lib/gcc/nios2-elf/4.1.2/../../../../nios2-elf/lib/mno-hw-mul/pg/libc.a(lib_a-mprec.o)
 .debug_abbrev  0x000032b7      0x17f /opt/altera/13.0sp1/nios2eds/bin/gnu/H-i686-pc-linux-gnu/bin/../lib/gcc/nios2-elf/4.1.2/../../../../nios2-elf/lib/mno-hw-mul/pg/libc.a(lib_a-putc.o)
 .debug_abbrev  0x00003436      0x1c3 /opt/altera/13.0sp1/nios2eds/bin/gnu/H-i686-pc-linux-gnu/bin/../lib/gcc/nios2-elf/4.1.2/../../../../nios2-elf/lib/mno-hw-mul/pg/libc.a(lib_a-reallocr.o)
 .debug_abbrev  0x000035f9       0x79 /opt/altera/13.0sp1/nios2eds/bin/gnu/H-i686-pc-linux-gnu/bin/../lib/gcc/nios2-elf/4.1.2/../../../../nios2-elf/lib/mno-hw-mul/pg/libc.a(lib_a-s_isinfd.o)
 .debug_abbrev  0x00003672       0x79 /opt/altera/13.0sp1/nios2eds/bin/gnu/H-i686-pc-linux-gnu/bin/../lib/gcc/nios2-elf/4.1.2/../../../../nios2-elf/lib/mno-hw-mul/pg/libc.a(lib_a-s_isnand.o)
 .debug_abbrev  0x000036eb      0x18c /opt/altera/13.0sp1/nios2eds/bin/gnu/H-i686-pc-linux-gnu/bin/../lib/gcc/nios2-elf/4.1.2/../../../../nios2-elf/lib/mno-hw-mul/pg/libc.a(lib_a-sbrkr.o)
 .debug_abbrev  0x00003877      0x1c9 /opt/altera/13.0sp1/nios2eds/bin/gnu/H-i686-pc-linux-gnu/bin/../lib/gcc/nios2-elf/4.1.2/../../../../nios2-elf/lib/mno-hw-mul/pg/libc.a(lib_a-stdio.o)
 .debug_abbrev  0x00003a40       0x80 /opt/altera/13.0sp1/nios2eds/bin/gnu/H-i686-pc-linux-gnu/bin/../lib/gcc/nios2-elf/4.1.2/../../../../nios2-elf/lib/mno-hw-mul/pg/libc.a(lib_a-strcmp.o)
 .debug_abbrev  0x00003ac0      0x198 /opt/altera/13.0sp1/nios2eds/bin/gnu/H-i686-pc-linux-gnu/bin/../lib/gcc/nios2-elf/4.1.2/../../../../nios2-elf/lib/mno-hw-mul/pg/libc.a(lib_a-wbuf.o)
 .debug_abbrev  0x00003c58      0x184 /opt/altera/13.0sp1/nios2eds/bin/gnu/H-i686-pc-linux-gnu/bin/../lib/gcc/nios2-elf/4.1.2/../../../../nios2-elf/lib/mno-hw-mul/pg/libc.a(lib_a-writer.o)
 .debug_abbrev  0x00003ddc      0x1b8 /opt/altera/13.0sp1/nios2eds/bin/gnu/H-i686-pc-linux-gnu/bin/../lib/gcc/nios2-elf/4.1.2/../../../../nios2-elf/lib/mno-hw-mul/pg/libc.a(lib_a-callocr.o)
 .debug_abbrev  0x00003f94      0x17f /opt/altera/13.0sp1/nios2eds/bin/gnu/H-i686-pc-linux-gnu/bin/../lib/gcc/nios2-elf/4.1.2/../../../../nios2-elf/lib/mno-hw-mul/pg/libc.a(lib_a-closer.o)
 .debug_abbrev  0x00004113      0x1a7 /opt/altera/13.0sp1/nios2eds/bin/gnu/H-i686-pc-linux-gnu/bin/../lib/gcc/nios2-elf/4.1.2/../../../../nios2-elf/lib/mno-hw-mul/pg/libc.a(lib_a-fclose.o)
 .debug_abbrev  0x000042ba      0x18e /opt/altera/13.0sp1/nios2eds/bin/gnu/H-i686-pc-linux-gnu/bin/../lib/gcc/nios2-elf/4.1.2/../../../../nios2-elf/lib/mno-hw-mul/pg/libc.a(lib_a-fstatr.o)
 .debug_abbrev  0x00004448       0x3b /opt/altera/13.0sp1/nios2eds/bin/gnu/H-i686-pc-linux-gnu/bin/../lib/gcc/nios2-elf/4.1.2/../../../../nios2-elf/lib/mno-hw-mul/pg/libc.a(lib_a-int_errno.o)
 .debug_abbrev  0x00004483      0x17f /opt/altera/13.0sp1/nios2eds/bin/gnu/H-i686-pc-linux-gnu/bin/../lib/gcc/nios2-elf/4.1.2/../../../../nios2-elf/lib/mno-hw-mul/pg/libc.a(lib_a-isattyr.o)
 .debug_abbrev  0x00004602      0x18e /opt/altera/13.0sp1/nios2eds/bin/gnu/H-i686-pc-linux-gnu/bin/../lib/gcc/nios2-elf/4.1.2/../../../../nios2-elf/lib/mno-hw-mul/pg/libc.a(lib_a-lseekr.o)
 .debug_abbrev  0x00004790      0x17f /opt/altera/13.0sp1/nios2eds/bin/gnu/H-i686-pc-linux-gnu/bin/../lib/gcc/nios2-elf/4.1.2/../../../../nios2-elf/lib/mno-hw-mul/pg/libc.a(lib_a-readr.o)
 .debug_abbrev  0x0000490f      0x16b /opt/altera/13.0sp1/nios2eds/bin/gnu/H-i686-pc-linux-gnu/bin/../lib/gcc/nios2-elf/4.1.2/mno-hw-mul/pg/libgcc.a(_udivdi3.o)
 .debug_abbrev  0x00004a7a      0x18e /opt/altera/13.0sp1/nios2eds/bin/gnu/H-i686-pc-linux-gnu/bin/../lib/gcc/nios2-elf/4.1.2/mno-hw-mul/pg/libgcc.a(_umoddi3.o)
 .debug_abbrev  0x00004c08      0x151 /opt/altera/13.0sp1/nios2eds/bin/gnu/H-i686-pc-linux-gnu/bin/../lib/gcc/nios2-elf/4.1.2/mno-hw-mul/pg/libgcc.a(_eq_df.o)
 .debug_abbrev  0x00004d59      0x151 /opt/altera/13.0sp1/nios2eds/bin/gnu/H-i686-pc-linux-gnu/bin/../lib/gcc/nios2-elf/4.1.2/mno-hw-mul/pg/libgcc.a(_ne_df.o)
 .debug_abbrev  0x00004eaa      0x151 /opt/altera/13.0sp1/nios2eds/bin/gnu/H-i686-pc-linux-gnu/bin/../lib/gcc/nios2-elf/4.1.2/mno-hw-mul/pg/libgcc.a(_gt_df.o)
 .debug_abbrev  0x00004ffb      0x151 /opt/altera/13.0sp1/nios2eds/bin/gnu/H-i686-pc-linux-gnu/bin/../lib/gcc/nios2-elf/4.1.2/mno-hw-mul/pg/libgcc.a(_ge_df.o)
 .debug_abbrev  0x0000514c      0x151 /opt/altera/13.0sp1/nios2eds/bin/gnu/H-i686-pc-linux-gnu/bin/../lib/gcc/nios2-elf/4.1.2/mno-hw-mul/pg/libgcc.a(_lt_df.o)
 .debug_abbrev  0x0000529d      0x13f /opt/altera/13.0sp1/nios2eds/bin/gnu/H-i686-pc-linux-gnu/bin/../lib/gcc/nios2-elf/4.1.2/mno-hw-mul/pg/libgcc.a(_si_to_df.o)
 .debug_abbrev  0x000053dc      0x176 /opt/altera/13.0sp1/nios2eds/bin/gnu/H-i686-pc-linux-gnu/bin/../lib/gcc/nios2-elf/4.1.2/mno-hw-mul/pg/libgcc.a(_df_to_si.o)
 .debug_abbrev  0x00005552      0x132 /opt/altera/13.0sp1/nios2eds/bin/gnu/H-i686-pc-linux-gnu/bin/../lib/gcc/nios2-elf/4.1.2/mno-hw-mul/pg/libgcc.a(_fpcmp_parts_df.o)
 .debug_abbrev  0x00005684      0x172 ../il2212-rtos_bsp//libucosii_bsp.a(alt_alarm_start.o)
 .debug_abbrev  0x000057f6      0x102 ../il2212-rtos_bsp//libucosii_bsp.a(alt_close.o)
 .debug_abbrev  0x000058f8      0x10a ../il2212-rtos_bsp//libucosii_bsp.a(alt_dev.o)
 .debug_abbrev  0x00005a02       0x5e ../il2212-rtos_bsp//libucosii_bsp.a(alt_errno.o)
 .debug_abbrev  0x00005a60      0x102 ../il2212-rtos_bsp//libucosii_bsp.a(alt_fstat.o)
 .debug_abbrev  0x00005b62      0x102 ../il2212-rtos_bsp//libucosii_bsp.a(alt_isatty.o)
 .debug_abbrev  0x00005c64       0x88 ../il2212-rtos_bsp//libucosii_bsp.a(alt_load.o)
 .debug_abbrev  0x00005cec      0x102 ../il2212-rtos_bsp//libucosii_bsp.a(alt_lseek.o)
 .debug_abbrev  0x00005dee      0x120 ../il2212-rtos_bsp//libucosii_bsp.a(alt_main.o)
 .debug_abbrev  0x00005f0e       0x14 ../il2212-rtos_bsp//libucosii_bsp.a(alt_mcount.o)
 .debug_abbrev  0x00005f22      0x102 ../il2212-rtos_bsp//libucosii_bsp.a(alt_read.o)
 .debug_abbrev  0x00006024       0xd3 ../il2212-rtos_bsp//libucosii_bsp.a(alt_release_fd.o)
 .debug_abbrev  0x000060f7      0x11c ../il2212-rtos_bsp//libucosii_bsp.a(alt_sbrk.o)
 .debug_abbrev  0x00006213      0x161 ../il2212-rtos_bsp//libucosii_bsp.a(alt_tick.o)
 .debug_abbrev  0x00006374      0x107 ../il2212-rtos_bsp//libucosii_bsp.a(alt_write.o)
 .debug_abbrev  0x0000647b      0x1b3 ../il2212-rtos_bsp//libucosii_bsp.a(alt_env_lock.o)
 .debug_abbrev  0x0000662e      0x234 ../il2212-rtos_bsp//libucosii_bsp.a(alt_malloc_lock.o)
 .debug_abbrev  0x00006862      0x2ba ../il2212-rtos_bsp//libucosii_bsp.a(os_core.o)
 .debug_abbrev  0x00006b1c      0x124 ../il2212-rtos_bsp//libucosii_bsp.a(os_dbg.o)
 .debug_abbrev  0x00006c40      0x21b ../il2212-rtos_bsp//libucosii_bsp.a(os_flag.o)
 .debug_abbrev  0x00006e5b      0x235 ../il2212-rtos_bsp//libucosii_bsp.a(os_mem.o)
 .debug_abbrev  0x00007090      0x20d ../il2212-rtos_bsp//libucosii_bsp.a(os_q.o)
 .debug_abbrev  0x0000729d      0x20d ../il2212-rtos_bsp//libucosii_bsp.a(os_sem.o)
 .debug_abbrev  0x000074aa      0x20e ../il2212-rtos_bsp//libucosii_bsp.a(os_task.o)
 .debug_abbrev  0x000076b8      0x1de ../il2212-rtos_bsp//libucosii_bsp.a(os_time.o)
 .debug_abbrev  0x00007896      0x1c6 ../il2212-rtos_bsp//libucosii_bsp.a(os_tmr.o)
 .debug_abbrev  0x00007a5c      0x1e1 ../il2212-rtos_bsp//libucosii_bsp.a(alt_sys_init.o)
 .debug_abbrev  0x00007c3d      0x13c ../il2212-rtos_bsp//libucosii_bsp.a(altera_avalon_jtag_uart_fd.o)
 .debug_abbrev  0x00007d79      0x21e ../il2212-rtos_bsp//libucosii_bsp.a(altera_avalon_jtag_uart_init.o)
 .debug_abbrev  0x00007f97      0x135 ../il2212-rtos_bsp//libucosii_bsp.a(altera_avalon_jtag_uart_ioctl.o)
 .debug_abbrev  0x000080cc      0x1ee ../il2212-rtos_bsp//libucosii_bsp.a(altera_avalon_jtag_uart_read.o)
 .debug_abbrev  0x000082ba      0x1ea ../il2212-rtos_bsp//libucosii_bsp.a(altera_avalon_jtag_uart_write.o)
 .debug_abbrev  0x000084a4      0x1dd ../il2212-rtos_bsp//libucosii_bsp.a(altera_avalon_mutex.o)
 .debug_abbrev  0x00008681       0x81 ../il2212-rtos_bsp//libucosii_bsp.a(altera_avalon_performance_counter.o)
 .debug_abbrev  0x00008702      0x137 ../il2212-rtos_bsp//libucosii_bsp.a(altera_avalon_timer_sc.o)
 .debug_abbrev  0x00008839       0x87 ../il2212-rtos_bsp//libucosii_bsp.a(altera_avalon_timer_vars.o)
 .debug_abbrev  0x000088c0       0x8a ../il2212-rtos_bsp//libucosii_bsp.a(perf_print_formatted_report.o)
 .debug_abbrev  0x0000894a       0x3f ../il2212-rtos_bsp//libucosii_bsp.a(alt_dcache_flush_all.o)
 .debug_abbrev  0x00008989       0xf6 ../il2212-rtos_bsp//libucosii_bsp.a(alt_dev_llist_insert.o)
 .debug_abbrev  0x00008a7f       0x76 ../il2212-rtos_bsp//libucosii_bsp.a(alt_do_ctors.o)
 .debug_abbrev  0x00008af5       0x76 ../il2212-rtos_bsp//libucosii_bsp.a(alt_do_dtors.o)
 .debug_abbrev  0x00008b6b       0xd6 ../il2212-rtos_bsp//libucosii_bsp.a(alt_find_dev.o)
 .debug_abbrev  0x00008c41      0x1b8 ../il2212-rtos_bsp//libucosii_bsp.a(alt_gmon.o)
 .debug_abbrev  0x00008df9       0x3f ../il2212-rtos_bsp//libucosii_bsp.a(alt_icache_flush_all.o)
 .debug_abbrev  0x00008e38       0xf7 ../il2212-rtos_bsp//libucosii_bsp.a(alt_io_redirect.o)
 .debug_abbrev  0x00008f2f      0x180 ../il2212-rtos_bsp//libucosii_bsp.a(alt_irq_register.o)
 .debug_abbrev  0x000090af       0x44 ../il2212-rtos_bsp//libucosii_bsp.a(alt_irq_vars.o)
 .debug_abbrev  0x000090f3      0x119 ../il2212-rtos_bsp//libucosii_bsp.a(alt_open.o)
 .debug_abbrev  0x0000920c       0x64 ../il2212-rtos_bsp//libucosii_bsp.a(altera_nios2_qsys_irq.o)
 .debug_abbrev  0x00009270       0x14 ../il2212-rtos_bsp//libucosii_bsp.a(os_cpu_a.o)
 .debug_abbrev  0x00009284      0x1d0 ../il2212-rtos_bsp//libucosii_bsp.a(os_cpu_c.o)
 .debug_abbrev  0x00009454       0xd6 ../il2212-rtos_bsp//libucosii_bsp.a(alt_find_file.o)
 .debug_abbrev  0x0000952a      0x173 ../il2212-rtos_bsp//libucosii_bsp.a(alt_get_fd.o)
 .debug_abbrev  0x0000969d       0x12 ../il2212-rtos_bsp//libucosii_bsp.a(alt_irq_entry.o)
 .debug_abbrev  0x000096af      0x124 ../il2212-rtos_bsp//libucosii_bsp.a(alt_irq_handler.o)
 .debug_abbrev  0x000097d3       0x12 ../il2212-rtos_bsp//libucosii_bsp.a(alt_exception_entry.o)
 .debug_abbrev  0x000097e5       0xb7 /opt/altera/13.0sp1/nios2eds/bin/gnu/H-i686-pc-linux-gnu/bin/../lib/gcc/nios2-elf/4.1.2/../../../../nios2-elf/lib/mno-hw-mul/pg/libc.a(lib_a-atexit.o)
 .debug_abbrev  0x0000989c      0x16e /opt/altera/13.0sp1/nios2eds/bin/gnu/H-i686-pc-linux-gnu/bin/../lib/gcc/nios2-elf/4.1.2/../../../../nios2-elf/lib/mno-hw-mul/pg/libc.a(lib_a-exit.o)
 .debug_abbrev  0x00009a0a       0x7c /opt/altera/13.0sp1/nios2eds/bin/gnu/H-i686-pc-linux-gnu/bin/../lib/gcc/nios2-elf/4.1.2/../../../../nios2-elf/lib/mno-hw-mul/pg/libc.a(lib_a-memcmp.o)
 .debug_abbrev  0x00009a86      0x1ae /opt/altera/13.0sp1/nios2eds/bin/gnu/H-i686-pc-linux-gnu/bin/../lib/gcc/nios2-elf/4.1.2/../../../../nios2-elf/lib/mno-hw-mul/pg/libc.a(lib_a-__atexit.o)
 .debug_abbrev  0x00009c34      0x1de /opt/altera/13.0sp1/nios2eds/bin/gnu/H-i686-pc-linux-gnu/bin/../lib/gcc/nios2-elf/4.1.2/../../../../nios2-elf/lib/mno-hw-mul/pg/libc.a(lib_a-__call_atexit.o)
 .debug_abbrev  0x00009e12       0x5d /opt/altera/13.0sp1/nios2eds/bin/gnu/H-i686-pc-linux-gnu/bin/../lib/gcc/nios2-elf/4.1.2/mno-hw-mul/pg/libgcc.a(_fixunsdfsi.o)
 .debug_abbrev  0x00009e6f       0xb8 ../il2212-rtos_bsp//libucosii_bsp.a(alt_exit.o)

.debug_line     0x00000000    0x1e08e
 *(.debug_line)
 .debug_line    0x00000000       0x66 ../il2212-rtos_bsp//obj/HAL/src/crt0.o
 .debug_line    0x00000066      0x9b4 obj/default/cpu_0.o
 .debug_line    0x00000a1a      0x14e /opt/altera/13.0sp1/nios2eds/bin/gnu/H-i686-pc-linux-gnu/bin/../lib/gcc/nios2-elf/4.1.2/mno-hw-mul/pg/libgcc.a(_floatundidf.o)
 .debug_line    0x00000b68      0x41c /opt/altera/13.0sp1/nios2eds/bin/gnu/H-i686-pc-linux-gnu/bin/../lib/gcc/nios2-elf/4.1.2/mno-hw-mul/pg/libgcc.a(_addsub_df.o)
 .debug_line    0x00000f84      0x3d3 /opt/altera/13.0sp1/nios2eds/bin/gnu/H-i686-pc-linux-gnu/bin/../lib/gcc/nios2-elf/4.1.2/mno-hw-mul/pg/libgcc.a(_mul_df.o)
 .debug_line    0x00001357      0x2f1 /opt/altera/13.0sp1/nios2eds/bin/gnu/H-i686-pc-linux-gnu/bin/../lib/gcc/nios2-elf/4.1.2/mno-hw-mul/pg/libgcc.a(_div_df.o)
 .debug_line    0x00001648       0x94 /opt/altera/13.0sp1/nios2eds/bin/gnu/H-i686-pc-linux-gnu/bin/../lib/gcc/nios2-elf/4.1.2/mno-hw-mul/pg/libgcc.a(_thenan_df.o)
 .debug_line    0x000016dc      0x189 /opt/altera/13.0sp1/nios2eds/bin/gnu/H-i686-pc-linux-gnu/bin/../lib/gcc/nios2-elf/4.1.2/mno-hw-mul/pg/libgcc.a(_usi_to_df.o)
 .debug_line    0x00001865      0x2c6 /opt/altera/13.0sp1/nios2eds/bin/gnu/H-i686-pc-linux-gnu/bin/../lib/gcc/nios2-elf/4.1.2/mno-hw-mul/pg/libgcc.a(lib2-divmod.o)
 .debug_line    0x00001b2b      0x191 /opt/altera/13.0sp1/nios2eds/bin/gnu/H-i686-pc-linux-gnu/bin/../lib/gcc/nios2-elf/4.1.2/mno-hw-mul/pg/libgcc.a(lib2-mul.o)
 .debug_line    0x00001cbc      0x186 /opt/altera/13.0sp1/nios2eds/bin/gnu/H-i686-pc-linux-gnu/bin/../lib/gcc/nios2-elf/4.1.2/mno-hw-mul/pg/libgcc.a(_muldi3.o)
 .debug_line    0x00001e42      0x17c /opt/altera/13.0sp1/nios2eds/bin/gnu/H-i686-pc-linux-gnu/bin/../lib/gcc/nios2-elf/4.1.2/mno-hw-mul/pg/libgcc.a(_clzsi2.o)
 .debug_line    0x00001fbe      0x21a /opt/altera/13.0sp1/nios2eds/bin/gnu/H-i686-pc-linux-gnu/bin/../lib/gcc/nios2-elf/4.1.2/mno-hw-mul/pg/libgcc.a(_pack_df.o)
 .debug_line    0x000021d8      0x212 /opt/altera/13.0sp1/nios2eds/bin/gnu/H-i686-pc-linux-gnu/bin/../lib/gcc/nios2-elf/4.1.2/mno-hw-mul/pg/libgcc.a(_unpack_df.o)
 .debug_line    0x000023ea      0x121 /opt/altera/13.0sp1/nios2eds/bin/gnu/H-i686-pc-linux-gnu/bin/../lib/gcc/nios2-elf/4.1.2/mno-hw-mul/pg/libgcc.a(_clz.o)
 .debug_line    0x0000250b      0x2a1 /opt/altera/13.0sp1/nios2eds/bin/gnu/H-i686-pc-linux-gnu/bin/../lib/gcc/nios2-elf/4.1.2/../../../../nios2-elf/lib/mno-hw-mul/pg/libc.a(lib_a-printf.o)
 .debug_line    0x000027ac      0x26a /opt/altera/13.0sp1/nios2eds/bin/gnu/H-i686-pc-linux-gnu/bin/../lib/gcc/nios2-elf/4.1.2/../../../../nios2-elf/lib/mno-hw-mul/pg/libc.a(lib_a-putchar.o)
 .debug_line    0x00002a16      0x2fd /opt/altera/13.0sp1/nios2eds/bin/gnu/H-i686-pc-linux-gnu/bin/../lib/gcc/nios2-elf/4.1.2/../../../../nios2-elf/lib/mno-hw-mul/pg/libc.a(lib_a-puts.o)
 .debug_line    0x00002d13      0x273 /opt/altera/13.0sp1/nios2eds/bin/gnu/H-i686-pc-linux-gnu/bin/../lib/gcc/nios2-elf/4.1.2/../../../../nios2-elf/lib/mno-hw-mul/pg/libc.a(lib_a-strlen.o)
 .debug_line    0x00002f86     0x1102 /opt/altera/13.0sp1/nios2eds/bin/gnu/H-i686-pc-linux-gnu/bin/../lib/gcc/nios2-elf/4.1.2/../../../../nios2-elf/lib/mno-hw-mul/pg/libc.a(lib_a-vfprintf.o)
 .debug_line    0x00004088      0x2ee /opt/altera/13.0sp1/nios2eds/bin/gnu/H-i686-pc-linux-gnu/bin/../lib/gcc/nios2-elf/4.1.2/../../../../nios2-elf/lib/mno-hw-mul/pg/libc.a(lib_a-wsetup.o)
 .debug_line    0x00004376     0x12fc /opt/altera/13.0sp1/nios2eds/bin/gnu/H-i686-pc-linux-gnu/bin/../lib/gcc/nios2-elf/4.1.2/../../../../nios2-elf/lib/mno-hw-mul/pg/libc.a(lib_a-dtoa.o)
 .debug_line    0x00005672      0x413 /opt/altera/13.0sp1/nios2eds/bin/gnu/H-i686-pc-linux-gnu/bin/../lib/gcc/nios2-elf/4.1.2/../../../../nios2-elf/lib/mno-hw-mul/pg/libc.a(lib_a-fflush.o)
 .debug_line    0x00005a85      0x5cf /opt/altera/13.0sp1/nios2eds/bin/gnu/H-i686-pc-linux-gnu/bin/../lib/gcc/nios2-elf/4.1.2/../../../../nios2-elf/lib/mno-hw-mul/pg/libc.a(lib_a-findfp.o)
 .debug_line    0x00006054      0x5f1 /opt/altera/13.0sp1/nios2eds/bin/gnu/H-i686-pc-linux-gnu/bin/../lib/gcc/nios2-elf/4.1.2/../../../../nios2-elf/lib/mno-hw-mul/pg/libc.a(lib_a-freer.o)
 .debug_line    0x00006645      0x63f /opt/altera/13.0sp1/nios2eds/bin/gnu/H-i686-pc-linux-gnu/bin/../lib/gcc/nios2-elf/4.1.2/../../../../nios2-elf/lib/mno-hw-mul/pg/libc.a(lib_a-fvwrite.o)
 .debug_line    0x00006c84      0x340 /opt/altera/13.0sp1/nios2eds/bin/gnu/H-i686-pc-linux-gnu/bin/../lib/gcc/nios2-elf/4.1.2/../../../../nios2-elf/lib/mno-hw-mul/pg/libc.a(lib_a-fwalk.o)
 .debug_line    0x00006fc4      0x233 /opt/altera/13.0sp1/nios2eds/bin/gnu/H-i686-pc-linux-gnu/bin/../lib/gcc/nios2-elf/4.1.2/../../../../nios2-elf/lib/mno-hw-mul/pg/libc.a(lib_a-impure.o)
 .debug_line    0x000071f7      0x2c6 /opt/altera/13.0sp1/nios2eds/bin/gnu/H-i686-pc-linux-gnu/bin/../lib/gcc/nios2-elf/4.1.2/../../../../nios2-elf/lib/mno-hw-mul/pg/libc.a(lib_a-locale.o)
 .debug_line    0x000074bd      0x3b1 /opt/altera/13.0sp1/nios2eds/bin/gnu/H-i686-pc-linux-gnu/bin/../lib/gcc/nios2-elf/4.1.2/../../../../nios2-elf/lib/mno-hw-mul/pg/libc.a(lib_a-makebuf.o)
 .debug_line    0x0000786e      0x808 /opt/altera/13.0sp1/nios2eds/bin/gnu/H-i686-pc-linux-gnu/bin/../lib/gcc/nios2-elf/4.1.2/../../../../nios2-elf/lib/mno-hw-mul/pg/libc.a(lib_a-mallocr.o)
 .debug_line    0x00008076      0x319 /opt/altera/13.0sp1/nios2eds/bin/gnu/H-i686-pc-linux-gnu/bin/../lib/gcc/nios2-elf/4.1.2/../../../../nios2-elf/lib/mno-hw-mul/pg/libc.a(lib_a-memchr.o)
 .debug_line    0x0000838f      0x1b2 /opt/altera/13.0sp1/nios2eds/bin/gnu/H-i686-pc-linux-gnu/bin/../lib/gcc/nios2-elf/4.1.2/../../../../nios2-elf/lib/mno-hw-mul/pg/libc.a(lib_a-memcpy.o)
 .debug_line    0x00008541      0x310 /opt/altera/13.0sp1/nios2eds/bin/gnu/H-i686-pc-linux-gnu/bin/../lib/gcc/nios2-elf/4.1.2/../../../../nios2-elf/lib/mno-hw-mul/pg/libc.a(lib_a-memmove.o)
 .debug_line    0x00008851      0x307 /opt/altera/13.0sp1/nios2eds/bin/gnu/H-i686-pc-linux-gnu/bin/../lib/gcc/nios2-elf/4.1.2/../../../../nios2-elf/lib/mno-hw-mul/pg/libc.a(lib_a-memset.o)
 .debug_line    0x00008b58     0x11cf /opt/altera/13.0sp1/nios2eds/bin/gnu/H-i686-pc-linux-gnu/bin/../lib/gcc/nios2-elf/4.1.2/../../../../nios2-elf/lib/mno-hw-mul/pg/libc.a(lib_a-mprec.o)
 .debug_line    0x00009d27      0x2c2 /opt/altera/13.0sp1/nios2eds/bin/gnu/H-i686-pc-linux-gnu/bin/../lib/gcc/nios2-elf/4.1.2/../../../../nios2-elf/lib/mno-hw-mul/pg/libc.a(lib_a-putc.o)
 .debug_line    0x00009fe9      0x590 /opt/altera/13.0sp1/nios2eds/bin/gnu/H-i686-pc-linux-gnu/bin/../lib/gcc/nios2-elf/4.1.2/../../../../nios2-elf/lib/mno-hw-mul/pg/libc.a(lib_a-reallocr.o)
 .debug_line    0x0000a579      0x228 /opt/altera/13.0sp1/nios2eds/bin/gnu/H-i686-pc-linux-gnu/bin/../lib/gcc/nios2-elf/4.1.2/../../../../nios2-elf/lib/mno-hw-mul/pg/libc.a(lib_a-s_isinfd.o)
 .debug_line    0x0000a7a1      0x220 /opt/altera/13.0sp1/nios2eds/bin/gnu/H-i686-pc-linux-gnu/bin/../lib/gcc/nios2-elf/4.1.2/../../../../nios2-elf/lib/mno-hw-mul/pg/libc.a(lib_a-s_isnand.o)
 .debug_line    0x0000a9c1      0x287 /opt/altera/13.0sp1/nios2eds/bin/gnu/H-i686-pc-linux-gnu/bin/../lib/gcc/nios2-elf/4.1.2/../../../../nios2-elf/lib/mno-hw-mul/pg/libc.a(lib_a-sbrkr.o)
 .debug_line    0x0000ac48      0x37a /opt/altera/13.0sp1/nios2eds/bin/gnu/H-i686-pc-linux-gnu/bin/../lib/gcc/nios2-elf/4.1.2/../../../../nios2-elf/lib/mno-hw-mul/pg/libc.a(lib_a-stdio.o)
 .debug_line    0x0000afc2      0x2eb /opt/altera/13.0sp1/nios2eds/bin/gnu/H-i686-pc-linux-gnu/bin/../lib/gcc/nios2-elf/4.1.2/../../../../nios2-elf/lib/mno-hw-mul/pg/libc.a(lib_a-strcmp.o)
 .debug_line    0x0000b2ad      0x356 /opt/altera/13.0sp1/nios2eds/bin/gnu/H-i686-pc-linux-gnu/bin/../lib/gcc/nios2-elf/4.1.2/../../../../nios2-elf/lib/mno-hw-mul/pg/libc.a(lib_a-wbuf.o)
 .debug_line    0x0000b603      0x288 /opt/altera/13.0sp1/nios2eds/bin/gnu/H-i686-pc-linux-gnu/bin/../lib/gcc/nios2-elf/4.1.2/../../../../nios2-elf/lib/mno-hw-mul/pg/libc.a(lib_a-writer.o)
 .debug_line    0x0000b88b      0x258 /opt/altera/13.0sp1/nios2eds/bin/gnu/H-i686-pc-linux-gnu/bin/../lib/gcc/nios2-elf/4.1.2/../../../../nios2-elf/lib/mno-hw-mul/pg/libc.a(lib_a-callocr.o)
 .debug_line    0x0000bae3      0x288 /opt/altera/13.0sp1/nios2eds/bin/gnu/H-i686-pc-linux-gnu/bin/../lib/gcc/nios2-elf/4.1.2/../../../../nios2-elf/lib/mno-hw-mul/pg/libc.a(lib_a-closer.o)
 .debug_line    0x0000bd6b      0x2ee /opt/altera/13.0sp1/nios2eds/bin/gnu/H-i686-pc-linux-gnu/bin/../lib/gcc/nios2-elf/4.1.2/../../../../nios2-elf/lib/mno-hw-mul/pg/libc.a(lib_a-fclose.o)
 .debug_line    0x0000c059      0x252 /opt/altera/13.0sp1/nios2eds/bin/gnu/H-i686-pc-linux-gnu/bin/../lib/gcc/nios2-elf/4.1.2/../../../../nios2-elf/lib/mno-hw-mul/pg/libc.a(lib_a-fstatr.o)
 .debug_line    0x0000c2ab      0x1e5 /opt/altera/13.0sp1/nios2eds/bin/gnu/H-i686-pc-linux-gnu/bin/../lib/gcc/nios2-elf/4.1.2/../../../../nios2-elf/lib/mno-hw-mul/pg/libc.a(lib_a-int_errno.o)
 .debug_line    0x0000c490      0x289 /opt/altera/13.0sp1/nios2eds/bin/gnu/H-i686-pc-linux-gnu/bin/../lib/gcc/nios2-elf/4.1.2/../../../../nios2-elf/lib/mno-hw-mul/pg/libc.a(lib_a-isattyr.o)
 .debug_line    0x0000c719      0x288 /opt/altera/13.0sp1/nios2eds/bin/gnu/H-i686-pc-linux-gnu/bin/../lib/gcc/nios2-elf/4.1.2/../../../../nios2-elf/lib/mno-hw-mul/pg/libc.a(lib_a-lseekr.o)
 .debug_line    0x0000c9a1      0x287 /opt/altera/13.0sp1/nios2eds/bin/gnu/H-i686-pc-linux-gnu/bin/../lib/gcc/nios2-elf/4.1.2/../../../../nios2-elf/lib/mno-hw-mul/pg/libc.a(lib_a-readr.o)
 .debug_line    0x0000cc28      0x371 /opt/altera/13.0sp1/nios2eds/bin/gnu/H-i686-pc-linux-gnu/bin/../lib/gcc/nios2-elf/4.1.2/mno-hw-mul/pg/libgcc.a(_udivdi3.o)
 .debug_line    0x0000cf99      0x47c /opt/altera/13.0sp1/nios2eds/bin/gnu/H-i686-pc-linux-gnu/bin/../lib/gcc/nios2-elf/4.1.2/mno-hw-mul/pg/libgcc.a(_umoddi3.o)
 .debug_line    0x0000d415      0x119 /opt/altera/13.0sp1/nios2eds/bin/gnu/H-i686-pc-linux-gnu/bin/../lib/gcc/nios2-elf/4.1.2/mno-hw-mul/pg/libgcc.a(_eq_df.o)
 .debug_line    0x0000d52e      0x119 /opt/altera/13.0sp1/nios2eds/bin/gnu/H-i686-pc-linux-gnu/bin/../lib/gcc/nios2-elf/4.1.2/mno-hw-mul/pg/libgcc.a(_ne_df.o)
 .debug_line    0x0000d647      0x119 /opt/altera/13.0sp1/nios2eds/bin/gnu/H-i686-pc-linux-gnu/bin/../lib/gcc/nios2-elf/4.1.2/mno-hw-mul/pg/libgcc.a(_gt_df.o)
 .debug_line    0x0000d760      0x119 /opt/altera/13.0sp1/nios2eds/bin/gnu/H-i686-pc-linux-gnu/bin/../lib/gcc/nios2-elf/4.1.2/mno-hw-mul/pg/libgcc.a(_ge_df.o)
 .debug_line    0x0000d879      0x119 /opt/altera/13.0sp1/nios2eds/bin/gnu/H-i686-pc-linux-gnu/bin/../lib/gcc/nios2-elf/4.1.2/mno-hw-mul/pg/libgcc.a(_lt_df.o)
 .debug_line    0x0000d992      0x15d /opt/altera/13.0sp1/nios2eds/bin/gnu/H-i686-pc-linux-gnu/bin/../lib/gcc/nios2-elf/4.1.2/mno-hw-mul/pg/libgcc.a(_si_to_df.o)
 .debug_line    0x0000daef      0x149 /opt/altera/13.0sp1/nios2eds/bin/gnu/H-i686-pc-linux-gnu/bin/../lib/gcc/nios2-elf/4.1.2/mno-hw-mul/pg/libgcc.a(_df_to_si.o)
 .debug_line    0x0000dc38      0x1a7 /opt/altera/13.0sp1/nios2eds/bin/gnu/H-i686-pc-linux-gnu/bin/../lib/gcc/nios2-elf/4.1.2/mno-hw-mul/pg/libgcc.a(_fpcmp_parts_df.o)
 .debug_line    0x0000dddf      0x303 ../il2212-rtos_bsp//libucosii_bsp.a(alt_alarm_start.o)
 .debug_line    0x0000e0e2      0x31b ../il2212-rtos_bsp//libucosii_bsp.a(alt_close.o)
 .debug_line    0x0000e3fd      0x2df ../il2212-rtos_bsp//libucosii_bsp.a(alt_dev.o)
 .debug_line    0x0000e6dc      0x1b8 ../il2212-rtos_bsp//libucosii_bsp.a(alt_errno.o)
 .debug_line    0x0000e894      0x323 ../il2212-rtos_bsp//libucosii_bsp.a(alt_fstat.o)
 .debug_line    0x0000ebb7      0x324 ../il2212-rtos_bsp//libucosii_bsp.a(alt_isatty.o)
 .debug_line    0x0000eedb      0x225 ../il2212-rtos_bsp//libucosii_bsp.a(alt_load.o)
 .debug_line    0x0000f100      0x323 ../il2212-rtos_bsp//libucosii_bsp.a(alt_lseek.o)
 .debug_line    0x0000f423      0x36b ../il2212-rtos_bsp//libucosii_bsp.a(alt_main.o)
 .debug_line    0x0000f78e       0x6a ../il2212-rtos_bsp//libucosii_bsp.a(alt_mcount.o)
 .debug_line    0x0000f7f8      0x34a ../il2212-rtos_bsp//libucosii_bsp.a(alt_read.o)
 .debug_line    0x0000fb42      0x29b ../il2212-rtos_bsp//libucosii_bsp.a(alt_release_fd.o)
 .debug_line    0x0000fddd      0x288 ../il2212-rtos_bsp//libucosii_bsp.a(alt_sbrk.o)
 .debug_line    0x00010065      0x33d ../il2212-rtos_bsp//libucosii_bsp.a(alt_tick.o)
 .debug_line    0x000103a2      0x34b ../il2212-rtos_bsp//libucosii_bsp.a(alt_write.o)
 .debug_line    0x000106ed      0x2e6 ../il2212-rtos_bsp//libucosii_bsp.a(alt_env_lock.o)
 .debug_line    0x000109d3      0x3a2 ../il2212-rtos_bsp//libucosii_bsp.a(alt_malloc_lock.o)
 .debug_line    0x00010d75     0x1692 ../il2212-rtos_bsp//libucosii_bsp.a(os_core.o)
 .debug_line    0x00012407      0x407 ../il2212-rtos_bsp//libucosii_bsp.a(os_dbg.o)
 .debug_line    0x0001280e     0x120e ../il2212-rtos_bsp//libucosii_bsp.a(os_flag.o)
 .debug_line    0x00013a1c      0x7b1 ../il2212-rtos_bsp//libucosii_bsp.a(os_mem.o)
 .debug_line    0x000141cd      0xe92 ../il2212-rtos_bsp//libucosii_bsp.a(os_q.o)
 .debug_line    0x0001505f      0xa4a ../il2212-rtos_bsp//libucosii_bsp.a(os_sem.o)
 .debug_line    0x00015aa9     0x1153 ../il2212-rtos_bsp//libucosii_bsp.a(os_task.o)
 .debug_line    0x00016bfc      0x556 ../il2212-rtos_bsp//libucosii_bsp.a(os_time.o)
 .debug_line    0x00017152      0xd51 ../il2212-rtos_bsp//libucosii_bsp.a(os_tmr.o)
 .debug_line    0x00017ea3      0x451 ../il2212-rtos_bsp//libucosii_bsp.a(alt_sys_init.o)
 .debug_line    0x000182f4      0x33e ../il2212-rtos_bsp//libucosii_bsp.a(altera_avalon_jtag_uart_fd.o)
 .debug_line    0x00018632      0x5bd ../il2212-rtos_bsp//libucosii_bsp.a(altera_avalon_jtag_uart_init.o)
 .debug_line    0x00018bef      0x37b ../il2212-rtos_bsp//libucosii_bsp.a(altera_avalon_jtag_uart_ioctl.o)
 .debug_line    0x00018f6a      0x4b9 ../il2212-rtos_bsp//libucosii_bsp.a(altera_avalon_jtag_uart_read.o)
 .debug_line    0x00019423      0x4c7 ../il2212-rtos_bsp//libucosii_bsp.a(altera_avalon_jtag_uart_write.o)
 .debug_line    0x000198ea      0x4ab ../il2212-rtos_bsp//libucosii_bsp.a(altera_avalon_mutex.o)
 .debug_line    0x00019d95      0x12d ../il2212-rtos_bsp//libucosii_bsp.a(altera_avalon_performance_counter.o)
 .debug_line    0x00019ec2      0x2d8 ../il2212-rtos_bsp//libucosii_bsp.a(altera_avalon_timer_sc.o)
 .debug_line    0x0001a19a      0x257 ../il2212-rtos_bsp//libucosii_bsp.a(altera_avalon_timer_vars.o)
 .debug_line    0x0001a3f1      0x275 ../il2212-rtos_bsp//libucosii_bsp.a(perf_print_formatted_report.o)
 .debug_line    0x0001a666      0x1c3 ../il2212-rtos_bsp//libucosii_bsp.a(alt_dcache_flush_all.o)
 .debug_line    0x0001a829      0x268 ../il2212-rtos_bsp//libucosii_bsp.a(alt_dev_llist_insert.o)
 .debug_line    0x0001aa91       0x83 ../il2212-rtos_bsp//libucosii_bsp.a(alt_do_ctors.o)
 .debug_line    0x0001ab14       0x83 ../il2212-rtos_bsp//libucosii_bsp.a(alt_do_dtors.o)
 .debug_line    0x0001ab97      0x2fc ../il2212-rtos_bsp//libucosii_bsp.a(alt_find_dev.o)
 .debug_line    0x0001ae93      0x3da ../il2212-rtos_bsp//libucosii_bsp.a(alt_gmon.o)
 .debug_line    0x0001b26d      0x1c3 ../il2212-rtos_bsp//libucosii_bsp.a(alt_icache_flush_all.o)
 .debug_line    0x0001b430      0x345 ../il2212-rtos_bsp//libucosii_bsp.a(alt_io_redirect.o)
 .debug_line    0x0001b775      0x37b ../il2212-rtos_bsp//libucosii_bsp.a(alt_irq_register.o)
 .debug_line    0x0001baf0       0x72 ../il2212-rtos_bsp//libucosii_bsp.a(alt_irq_vars.o)
 .debug_line    0x0001bb62      0x381 ../il2212-rtos_bsp//libucosii_bsp.a(alt_open.o)
 .debug_line    0x0001bee3      0x1f5 ../il2212-rtos_bsp//libucosii_bsp.a(altera_nios2_qsys_irq.o)
 .debug_line    0x0001c0d8       0x86 ../il2212-rtos_bsp//libucosii_bsp.a(os_cpu_a.o)
 .debug_line    0x0001c15e      0x377 ../il2212-rtos_bsp//libucosii_bsp.a(os_cpu_c.o)
 .debug_line    0x0001c4d5      0x30d ../il2212-rtos_bsp//libucosii_bsp.a(alt_find_file.o)
 .debug_line    0x0001c7e2      0x33d ../il2212-rtos_bsp//libucosii_bsp.a(alt_get_fd.o)
 .debug_line    0x0001cb1f       0x6b ../il2212-rtos_bsp//libucosii_bsp.a(alt_irq_entry.o)
 .debug_line    0x0001cb8a      0x2eb ../il2212-rtos_bsp//libucosii_bsp.a(alt_irq_handler.o)
 .debug_line    0x0001ce75       0xab ../il2212-rtos_bsp//libucosii_bsp.a(alt_exception_entry.o)
 .debug_line    0x0001cf20      0x20e /opt/altera/13.0sp1/nios2eds/bin/gnu/H-i686-pc-linux-gnu/bin/../lib/gcc/nios2-elf/4.1.2/../../../../nios2-elf/lib/mno-hw-mul/pg/libc.a(lib_a-atexit.o)
 .debug_line    0x0001d12e      0x236 /opt/altera/13.0sp1/nios2eds/bin/gnu/H-i686-pc-linux-gnu/bin/../lib/gcc/nios2-elf/4.1.2/../../../../nios2-elf/lib/mno-hw-mul/pg/libc.a(lib_a-exit.o)
 .debug_line    0x0001d364      0x2ad /opt/altera/13.0sp1/nios2eds/bin/gnu/H-i686-pc-linux-gnu/bin/../lib/gcc/nios2-elf/4.1.2/../../../../nios2-elf/lib/mno-hw-mul/pg/libc.a(lib_a-memcmp.o)
 .debug_line    0x0001d611      0x301 /opt/altera/13.0sp1/nios2eds/bin/gnu/H-i686-pc-linux-gnu/bin/../lib/gcc/nios2-elf/4.1.2/../../../../nios2-elf/lib/mno-hw-mul/pg/libc.a(lib_a-__atexit.o)
 .debug_line    0x0001d912      0x341 /opt/altera/13.0sp1/nios2eds/bin/gnu/H-i686-pc-linux-gnu/bin/../lib/gcc/nios2-elf/4.1.2/../../../../nios2-elf/lib/mno-hw-mul/pg/libc.a(lib_a-__call_atexit.o)
 .debug_line    0x0001dc53      0x176 /opt/altera/13.0sp1/nios2eds/bin/gnu/H-i686-pc-linux-gnu/bin/../lib/gcc/nios2-elf/4.1.2/mno-hw-mul/pg/libgcc.a(_fixunsdfsi.o)
 .debug_line    0x0001ddc9      0x2c5 ../il2212-rtos_bsp//libucosii_bsp.a(alt_exit.o)

.debug_frame    0x00000000     0x2b68
 *(.debug_frame)
 .debug_frame   0x00000000      0x23c obj/default/cpu_0.o
 .debug_frame   0x0000023c       0x30 /opt/altera/13.0sp1/nios2eds/bin/gnu/H-i686-pc-linux-gnu/bin/../lib/gcc/nios2-elf/4.1.2/mno-hw-mul/pg/libgcc.a(_floatundidf.o)
 .debug_frame   0x0000026c       0x6c /opt/altera/13.0sp1/nios2eds/bin/gnu/H-i686-pc-linux-gnu/bin/../lib/gcc/nios2-elf/4.1.2/mno-hw-mul/pg/libgcc.a(_addsub_df.o)
 .debug_frame   0x000002d8       0x38 /opt/altera/13.0sp1/nios2eds/bin/gnu/H-i686-pc-linux-gnu/bin/../lib/gcc/nios2-elf/4.1.2/mno-hw-mul/pg/libgcc.a(_mul_df.o)
 .debug_frame   0x00000310       0x30 /opt/altera/13.0sp1/nios2eds/bin/gnu/H-i686-pc-linux-gnu/bin/../lib/gcc/nios2-elf/4.1.2/mno-hw-mul/pg/libgcc.a(_div_df.o)
 .debug_frame   0x00000340       0x38 /opt/altera/13.0sp1/nios2eds/bin/gnu/H-i686-pc-linux-gnu/bin/../lib/gcc/nios2-elf/4.1.2/mno-hw-mul/pg/libgcc.a(_usi_to_df.o)
 .debug_frame   0x00000378       0x70 /opt/altera/13.0sp1/nios2eds/bin/gnu/H-i686-pc-linux-gnu/bin/../lib/gcc/nios2-elf/4.1.2/mno-hw-mul/pg/libgcc.a(lib2-divmod.o)
 .debug_frame   0x000003e8       0x20 /opt/altera/13.0sp1/nios2eds/bin/gnu/H-i686-pc-linux-gnu/bin/../lib/gcc/nios2-elf/4.1.2/mno-hw-mul/pg/libgcc.a(lib2-mul.o)
 .debug_frame   0x00000408       0x38 /opt/altera/13.0sp1/nios2eds/bin/gnu/H-i686-pc-linux-gnu/bin/../lib/gcc/nios2-elf/4.1.2/mno-hw-mul/pg/libgcc.a(_muldi3.o)
 .debug_frame   0x00000440       0x20 /opt/altera/13.0sp1/nios2eds/bin/gnu/H-i686-pc-linux-gnu/bin/../lib/gcc/nios2-elf/4.1.2/mno-hw-mul/pg/libgcc.a(_clzsi2.o)
 .debug_frame   0x00000460       0x2c /opt/altera/13.0sp1/nios2eds/bin/gnu/H-i686-pc-linux-gnu/bin/../lib/gcc/nios2-elf/4.1.2/mno-hw-mul/pg/libgcc.a(_pack_df.o)
 .debug_frame   0x0000048c       0x20 /opt/altera/13.0sp1/nios2eds/bin/gnu/H-i686-pc-linux-gnu/bin/../lib/gcc/nios2-elf/4.1.2/mno-hw-mul/pg/libgcc.a(_unpack_df.o)
 .debug_frame   0x000004ac       0x40 /opt/altera/13.0sp1/nios2eds/bin/gnu/H-i686-pc-linux-gnu/bin/../lib/gcc/nios2-elf/4.1.2/../../../../nios2-elf/lib/mno-hw-mul/pg/libc.a(lib_a-printf.o)
 .debug_frame   0x000004ec       0x30 /opt/altera/13.0sp1/nios2eds/bin/gnu/H-i686-pc-linux-gnu/bin/../lib/gcc/nios2-elf/4.1.2/../../../../nios2-elf/lib/mno-hw-mul/pg/libc.a(lib_a-putchar.o)
 .debug_frame   0x0000051c       0x3c /opt/altera/13.0sp1/nios2eds/bin/gnu/H-i686-pc-linux-gnu/bin/../lib/gcc/nios2-elf/4.1.2/../../../../nios2-elf/lib/mno-hw-mul/pg/libc.a(lib_a-puts.o)
 .debug_frame   0x00000558       0x20 /opt/altera/13.0sp1/nios2eds/bin/gnu/H-i686-pc-linux-gnu/bin/../lib/gcc/nios2-elf/4.1.2/../../../../nios2-elf/lib/mno-hw-mul/pg/libc.a(lib_a-strlen.o)
 .debug_frame   0x00000578       0x64 /opt/altera/13.0sp1/nios2eds/bin/gnu/H-i686-pc-linux-gnu/bin/../lib/gcc/nios2-elf/4.1.2/../../../../nios2-elf/lib/mno-hw-mul/pg/libc.a(lib_a-vfprintf.o)
 .debug_frame   0x000005dc       0x2c /opt/altera/13.0sp1/nios2eds/bin/gnu/H-i686-pc-linux-gnu/bin/../lib/gcc/nios2-elf/4.1.2/../../../../nios2-elf/lib/mno-hw-mul/pg/libc.a(lib_a-wsetup.o)
 .debug_frame   0x00000608       0x64 /opt/altera/13.0sp1/nios2eds/bin/gnu/H-i686-pc-linux-gnu/bin/../lib/gcc/nios2-elf/4.1.2/../../../../nios2-elf/lib/mno-hw-mul/pg/libc.a(lib_a-dtoa.o)
 .debug_frame   0x0000066c       0x40 /opt/altera/13.0sp1/nios2eds/bin/gnu/H-i686-pc-linux-gnu/bin/../lib/gcc/nios2-elf/4.1.2/../../../../nios2-elf/lib/mno-hw-mul/pg/libc.a(lib_a-fflush.o)
 .debug_frame   0x000006ac      0x114 /opt/altera/13.0sp1/nios2eds/bin/gnu/H-i686-pc-linux-gnu/bin/../lib/gcc/nios2-elf/4.1.2/../../../../nios2-elf/lib/mno-hw-mul/pg/libc.a(lib_a-findfp.o)
 .debug_frame   0x000007c0       0x4c /opt/altera/13.0sp1/nios2eds/bin/gnu/H-i686-pc-linux-gnu/bin/../lib/gcc/nios2-elf/4.1.2/../../../../nios2-elf/lib/mno-hw-mul/pg/libc.a(lib_a-freer.o)
 .debug_frame   0x0000080c       0x38 /opt/altera/13.0sp1/nios2eds/bin/gnu/H-i686-pc-linux-gnu/bin/../lib/gcc/nios2-elf/4.1.2/../../../../nios2-elf/lib/mno-hw-mul/pg/libc.a(lib_a-fvwrite.o)
 .debug_frame   0x00000844       0x5c /opt/altera/13.0sp1/nios2eds/bin/gnu/H-i686-pc-linux-gnu/bin/../lib/gcc/nios2-elf/4.1.2/../../../../nios2-elf/lib/mno-hw-mul/pg/libc.a(lib_a-fwalk.o)
 .debug_frame   0x000008a0       0x6c /opt/altera/13.0sp1/nios2eds/bin/gnu/H-i686-pc-linux-gnu/bin/../lib/gcc/nios2-elf/4.1.2/../../../../nios2-elf/lib/mno-hw-mul/pg/libc.a(lib_a-locale.o)
 .debug_frame   0x0000090c       0x2c /opt/altera/13.0sp1/nios2eds/bin/gnu/H-i686-pc-linux-gnu/bin/../lib/gcc/nios2-elf/4.1.2/../../../../nios2-elf/lib/mno-hw-mul/pg/libc.a(lib_a-makebuf.o)
 .debug_frame   0x00000938       0x38 /opt/altera/13.0sp1/nios2eds/bin/gnu/H-i686-pc-linux-gnu/bin/../lib/gcc/nios2-elf/4.1.2/../../../../nios2-elf/lib/mno-hw-mul/pg/libc.a(lib_a-mallocr.o)
 .debug_frame   0x00000970       0x20 /opt/altera/13.0sp1/nios2eds/bin/gnu/H-i686-pc-linux-gnu/bin/../lib/gcc/nios2-elf/4.1.2/../../../../nios2-elf/lib/mno-hw-mul/pg/libc.a(lib_a-memchr.o)
 .debug_frame   0x00000990       0x20 /opt/altera/13.0sp1/nios2eds/bin/gnu/H-i686-pc-linux-gnu/bin/../lib/gcc/nios2-elf/4.1.2/../../../../nios2-elf/lib/mno-hw-mul/pg/libc.a(lib_a-memcpy.o)
 .debug_frame   0x000009b0       0x20 /opt/altera/13.0sp1/nios2eds/bin/gnu/H-i686-pc-linux-gnu/bin/../lib/gcc/nios2-elf/4.1.2/../../../../nios2-elf/lib/mno-hw-mul/pg/libc.a(lib_a-memmove.o)
 .debug_frame   0x000009d0       0x20 /opt/altera/13.0sp1/nios2eds/bin/gnu/H-i686-pc-linux-gnu/bin/../lib/gcc/nios2-elf/4.1.2/../../../../nios2-elf/lib/mno-hw-mul/pg/libc.a(lib_a-memset.o)
 .debug_frame   0x000009f0      0x218 /opt/altera/13.0sp1/nios2eds/bin/gnu/H-i686-pc-linux-gnu/bin/../lib/gcc/nios2-elf/4.1.2/../../../../nios2-elf/lib/mno-hw-mul/pg/libc.a(lib_a-mprec.o)
 .debug_frame   0x00000c08       0x48 /opt/altera/13.0sp1/nios2eds/bin/gnu/H-i686-pc-linux-gnu/bin/../lib/gcc/nios2-elf/4.1.2/../../../../nios2-elf/lib/mno-hw-mul/pg/libc.a(lib_a-putc.o)
 .debug_frame   0x00000c50       0x38 /opt/altera/13.0sp1/nios2eds/bin/gnu/H-i686-pc-linux-gnu/bin/../lib/gcc/nios2-elf/4.1.2/../../../../nios2-elf/lib/mno-hw-mul/pg/libc.a(lib_a-reallocr.o)
 .debug_frame   0x00000c88       0x20 /opt/altera/13.0sp1/nios2eds/bin/gnu/H-i686-pc-linux-gnu/bin/../lib/gcc/nios2-elf/4.1.2/../../../../nios2-elf/lib/mno-hw-mul/pg/libc.a(lib_a-s_isinfd.o)
 .debug_frame   0x00000ca8       0x20 /opt/altera/13.0sp1/nios2eds/bin/gnu/H-i686-pc-linux-gnu/bin/../lib/gcc/nios2-elf/4.1.2/../../../../nios2-elf/lib/mno-hw-mul/pg/libc.a(lib_a-s_isnand.o)
 .debug_frame   0x00000cc8       0x2c /opt/altera/13.0sp1/nios2eds/bin/gnu/H-i686-pc-linux-gnu/bin/../lib/gcc/nios2-elf/4.1.2/../../../../nios2-elf/lib/mno-hw-mul/pg/libc.a(lib_a-sbrkr.o)
 .debug_frame   0x00000cf4       0x70 /opt/altera/13.0sp1/nios2eds/bin/gnu/H-i686-pc-linux-gnu/bin/../lib/gcc/nios2-elf/4.1.2/../../../../nios2-elf/lib/mno-hw-mul/pg/libc.a(lib_a-stdio.o)
 .debug_frame   0x00000d64       0x20 /opt/altera/13.0sp1/nios2eds/bin/gnu/H-i686-pc-linux-gnu/bin/../lib/gcc/nios2-elf/4.1.2/../../../../nios2-elf/lib/mno-hw-mul/pg/libc.a(lib_a-strcmp.o)
 .debug_frame   0x00000d84       0x3c /opt/altera/13.0sp1/nios2eds/bin/gnu/H-i686-pc-linux-gnu/bin/../lib/gcc/nios2-elf/4.1.2/../../../../nios2-elf/lib/mno-hw-mul/pg/libc.a(lib_a-wbuf.o)
 .debug_frame   0x00000dc0       0x2c /opt/altera/13.0sp1/nios2eds/bin/gnu/H-i686-pc-linux-gnu/bin/../lib/gcc/nios2-elf/4.1.2/../../../../nios2-elf/lib/mno-hw-mul/pg/libc.a(lib_a-writer.o)
 .debug_frame   0x00000dec       0x28 /opt/altera/13.0sp1/nios2eds/bin/gnu/H-i686-pc-linux-gnu/bin/../lib/gcc/nios2-elf/4.1.2/../../../../nios2-elf/lib/mno-hw-mul/pg/libc.a(lib_a-callocr.o)
 .debug_frame   0x00000e14       0x2c /opt/altera/13.0sp1/nios2eds/bin/gnu/H-i686-pc-linux-gnu/bin/../lib/gcc/nios2-elf/4.1.2/../../../../nios2-elf/lib/mno-hw-mul/pg/libc.a(lib_a-closer.o)
 .debug_frame   0x00000e40       0x3c /opt/altera/13.0sp1/nios2eds/bin/gnu/H-i686-pc-linux-gnu/bin/../lib/gcc/nios2-elf/4.1.2/../../../../nios2-elf/lib/mno-hw-mul/pg/libc.a(lib_a-fclose.o)
 .debug_frame   0x00000e7c       0x2c /opt/altera/13.0sp1/nios2eds/bin/gnu/H-i686-pc-linux-gnu/bin/../lib/gcc/nios2-elf/4.1.2/../../../../nios2-elf/lib/mno-hw-mul/pg/libc.a(lib_a-fstatr.o)
 .debug_frame   0x00000ea8       0x2c /opt/altera/13.0sp1/nios2eds/bin/gnu/H-i686-pc-linux-gnu/bin/../lib/gcc/nios2-elf/4.1.2/../../../../nios2-elf/lib/mno-hw-mul/pg/libc.a(lib_a-isattyr.o)
 .debug_frame   0x00000ed4       0x2c /opt/altera/13.0sp1/nios2eds/bin/gnu/H-i686-pc-linux-gnu/bin/../lib/gcc/nios2-elf/4.1.2/../../../../nios2-elf/lib/mno-hw-mul/pg/libc.a(lib_a-lseekr.o)
 .debug_frame   0x00000f00       0x2c /opt/altera/13.0sp1/nios2eds/bin/gnu/H-i686-pc-linux-gnu/bin/../lib/gcc/nios2-elf/4.1.2/../../../../nios2-elf/lib/mno-hw-mul/pg/libc.a(lib_a-readr.o)
 .debug_frame   0x00000f2c       0x38 /opt/altera/13.0sp1/nios2eds/bin/gnu/H-i686-pc-linux-gnu/bin/../lib/gcc/nios2-elf/4.1.2/mno-hw-mul/pg/libgcc.a(_udivdi3.o)
 .debug_frame   0x00000f64       0x38 /opt/altera/13.0sp1/nios2eds/bin/gnu/H-i686-pc-linux-gnu/bin/../lib/gcc/nios2-elf/4.1.2/mno-hw-mul/pg/libgcc.a(_umoddi3.o)
 .debug_frame   0x00000f9c       0x2c /opt/altera/13.0sp1/nios2eds/bin/gnu/H-i686-pc-linux-gnu/bin/../lib/gcc/nios2-elf/4.1.2/mno-hw-mul/pg/libgcc.a(_eq_df.o)
 .debug_frame   0x00000fc8       0x2c /opt/altera/13.0sp1/nios2eds/bin/gnu/H-i686-pc-linux-gnu/bin/../lib/gcc/nios2-elf/4.1.2/mno-hw-mul/pg/libgcc.a(_ne_df.o)
 .debug_frame   0x00000ff4       0x2c /opt/altera/13.0sp1/nios2eds/bin/gnu/H-i686-pc-linux-gnu/bin/../lib/gcc/nios2-elf/4.1.2/mno-hw-mul/pg/libgcc.a(_gt_df.o)
 .debug_frame   0x00001020       0x2c /opt/altera/13.0sp1/nios2eds/bin/gnu/H-i686-pc-linux-gnu/bin/../lib/gcc/nios2-elf/4.1.2/mno-hw-mul/pg/libgcc.a(_ge_df.o)
 .debug_frame   0x0000104c       0x2c /opt/altera/13.0sp1/nios2eds/bin/gnu/H-i686-pc-linux-gnu/bin/../lib/gcc/nios2-elf/4.1.2/mno-hw-mul/pg/libgcc.a(_lt_df.o)
 .debug_frame   0x00001078       0x30 /opt/altera/13.0sp1/nios2eds/bin/gnu/H-i686-pc-linux-gnu/bin/../lib/gcc/nios2-elf/4.1.2/mno-hw-mul/pg/libgcc.a(_si_to_df.o)
 .debug_frame   0x000010a8       0x28 /opt/altera/13.0sp1/nios2eds/bin/gnu/H-i686-pc-linux-gnu/bin/../lib/gcc/nios2-elf/4.1.2/mno-hw-mul/pg/libgcc.a(_df_to_si.o)
 .debug_frame   0x000010d0       0x20 /opt/altera/13.0sp1/nios2eds/bin/gnu/H-i686-pc-linux-gnu/bin/../lib/gcc/nios2-elf/4.1.2/mno-hw-mul/pg/libgcc.a(_fpcmp_parts_df.o)
 .debug_frame   0x000010f0       0x2c ../il2212-rtos_bsp//libucosii_bsp.a(alt_alarm_start.o)
 .debug_frame   0x0000111c       0x48 ../il2212-rtos_bsp//libucosii_bsp.a(alt_close.o)
 .debug_frame   0x00001164       0x2c ../il2212-rtos_bsp//libucosii_bsp.a(alt_dev.o)
 .debug_frame   0x00001190       0x48 ../il2212-rtos_bsp//libucosii_bsp.a(alt_fstat.o)
 .debug_frame   0x000011d8       0x48 ../il2212-rtos_bsp//libucosii_bsp.a(alt_isatty.o)
 .debug_frame   0x00001220       0x48 ../il2212-rtos_bsp//libucosii_bsp.a(alt_load.o)
 .debug_frame   0x00001268       0x48 ../il2212-rtos_bsp//libucosii_bsp.a(alt_lseek.o)
 .debug_frame   0x000012b0       0x2c ../il2212-rtos_bsp//libucosii_bsp.a(alt_main.o)
 .debug_frame   0x000012dc       0x40 ../il2212-rtos_bsp//libucosii_bsp.a(alt_mcount.o)
 .debug_frame   0x0000131c       0x48 ../il2212-rtos_bsp//libucosii_bsp.a(alt_read.o)
 .debug_frame   0x00001364       0x30 ../il2212-rtos_bsp//libucosii_bsp.a(alt_release_fd.o)
 .debug_frame   0x00001394       0x2c ../il2212-rtos_bsp//libucosii_bsp.a(alt_sbrk.o)
 .debug_frame   0x000013c0       0x48 ../il2212-rtos_bsp//libucosii_bsp.a(alt_tick.o)
 .debug_frame   0x00001408       0x48 ../il2212-rtos_bsp//libucosii_bsp.a(alt_write.o)
 .debug_frame   0x00001450       0x4c ../il2212-rtos_bsp//libucosii_bsp.a(alt_env_lock.o)
 .debug_frame   0x0000149c       0x4c ../il2212-rtos_bsp//libucosii_bsp.a(alt_malloc_lock.o)
 .debug_frame   0x000014e8      0x3e4 ../il2212-rtos_bsp//libucosii_bsp.a(os_core.o)
 .debug_frame   0x000018cc       0x2c ../il2212-rtos_bsp//libucosii_bsp.a(os_dbg.o)
 .debug_frame   0x000018f8      0x180 ../il2212-rtos_bsp//libucosii_bsp.a(os_flag.o)
 .debug_frame   0x00001a78       0xd4 ../il2212-rtos_bsp//libucosii_bsp.a(os_mem.o)
 .debug_frame   0x00001b4c      0x144 ../il2212-rtos_bsp//libucosii_bsp.a(os_q.o)
 .debug_frame   0x00001c90       0xf0 ../il2212-rtos_bsp//libucosii_bsp.a(os_sem.o)
 .debug_frame   0x00001d80      0x160 ../il2212-rtos_bsp//libucosii_bsp.a(os_task.o)
 .debug_frame   0x00001ee0       0xa0 ../il2212-rtos_bsp//libucosii_bsp.a(os_time.o)
 .debug_frame   0x00001f80      0x1ec ../il2212-rtos_bsp//libucosii_bsp.a(os_tmr.o)
 .debug_frame   0x0000216c       0x9c ../il2212-rtos_bsp//libucosii_bsp.a(alt_sys_init.o)
 .debug_frame   0x00002208       0x80 ../il2212-rtos_bsp//libucosii_bsp.a(altera_avalon_jtag_uart_fd.o)
 .debug_frame   0x00002288       0x80 ../il2212-rtos_bsp//libucosii_bsp.a(altera_avalon_jtag_uart_init.o)
 .debug_frame   0x00002308       0x2c ../il2212-rtos_bsp//libucosii_bsp.a(altera_avalon_jtag_uart_ioctl.o)
 .debug_frame   0x00002334       0x2c ../il2212-rtos_bsp//libucosii_bsp.a(altera_avalon_jtag_uart_read.o)
 .debug_frame   0x00002360       0x2c ../il2212-rtos_bsp//libucosii_bsp.a(altera_avalon_jtag_uart_write.o)
 .debug_frame   0x0000238c      0x10c ../il2212-rtos_bsp//libucosii_bsp.a(altera_avalon_mutex.o)
 .debug_frame   0x00002498       0x9c ../il2212-rtos_bsp//libucosii_bsp.a(altera_avalon_performance_counter.o)
 .debug_frame   0x00002534       0x48 ../il2212-rtos_bsp//libucosii_bsp.a(altera_avalon_timer_sc.o)
 .debug_frame   0x0000257c       0x34 ../il2212-rtos_bsp//libucosii_bsp.a(perf_print_formatted_report.o)
 .debug_frame   0x000025b0       0x2c ../il2212-rtos_bsp//libucosii_bsp.a(alt_dcache_flush_all.o)
 .debug_frame   0x000025dc       0x48 ../il2212-rtos_bsp//libucosii_bsp.a(alt_dev_llist_insert.o)
 .debug_frame   0x00002624       0x2c ../il2212-rtos_bsp//libucosii_bsp.a(alt_do_ctors.o)
 .debug_frame   0x00002650       0x2c ../il2212-rtos_bsp//libucosii_bsp.a(alt_do_dtors.o)
 .debug_frame   0x0000267c       0x2c ../il2212-rtos_bsp//libucosii_bsp.a(alt_find_dev.o)
 .debug_frame   0x000026a8       0x80 ../il2212-rtos_bsp//libucosii_bsp.a(alt_gmon.o)
 .debug_frame   0x00002728       0x2c ../il2212-rtos_bsp//libucosii_bsp.a(alt_icache_flush_all.o)
 .debug_frame   0x00002754       0x4c ../il2212-rtos_bsp//libucosii_bsp.a(alt_io_redirect.o)
 .debug_frame   0x000027a0       0x2c ../il2212-rtos_bsp//libucosii_bsp.a(alt_irq_register.o)
 .debug_frame   0x000027cc       0x68 ../il2212-rtos_bsp//libucosii_bsp.a(alt_open.o)
 .debug_frame   0x00002834       0x2c ../il2212-rtos_bsp//libucosii_bsp.a(altera_nios2_qsys_irq.o)
 .debug_frame   0x00002860      0x128 ../il2212-rtos_bsp//libucosii_bsp.a(os_cpu_c.o)
 .debug_frame   0x00002988       0x2c ../il2212-rtos_bsp//libucosii_bsp.a(alt_find_file.o)
 .debug_frame   0x000029b4       0x30 ../il2212-rtos_bsp//libucosii_bsp.a(alt_get_fd.o)
 .debug_frame   0x000029e4       0x2c ../il2212-rtos_bsp//libucosii_bsp.a(alt_irq_handler.o)
 .debug_frame   0x00002a10       0x20 /opt/altera/13.0sp1/nios2eds/bin/gnu/H-i686-pc-linux-gnu/bin/../lib/gcc/nios2-elf/4.1.2/../../../../nios2-elf/lib/mno-hw-mul/pg/libc.a(lib_a-atexit.o)
 .debug_frame   0x00002a30       0x28 /opt/altera/13.0sp1/nios2eds/bin/gnu/H-i686-pc-linux-gnu/bin/../lib/gcc/nios2-elf/4.1.2/../../../../nios2-elf/lib/mno-hw-mul/pg/libc.a(lib_a-exit.o)
 .debug_frame   0x00002a58       0x20 /opt/altera/13.0sp1/nios2eds/bin/gnu/H-i686-pc-linux-gnu/bin/../lib/gcc/nios2-elf/4.1.2/../../../../nios2-elf/lib/mno-hw-mul/pg/libc.a(lib_a-memcmp.o)
 .debug_frame   0x00002a78       0x30 /opt/altera/13.0sp1/nios2eds/bin/gnu/H-i686-pc-linux-gnu/bin/../lib/gcc/nios2-elf/4.1.2/../../../../nios2-elf/lib/mno-hw-mul/pg/libc.a(lib_a-__atexit.o)
 .debug_frame   0x00002aa8       0x48 /opt/altera/13.0sp1/nios2eds/bin/gnu/H-i686-pc-linux-gnu/bin/../lib/gcc/nios2-elf/4.1.2/../../../../nios2-elf/lib/mno-hw-mul/pg/libc.a(lib_a-__call_atexit.o)
 .debug_frame   0x00002af0       0x30 /opt/altera/13.0sp1/nios2eds/bin/gnu/H-i686-pc-linux-gnu/bin/../lib/gcc/nios2-elf/4.1.2/mno-hw-mul/pg/libgcc.a(_fixunsdfsi.o)
 .debug_frame   0x00002b20       0x48 ../il2212-rtos_bsp//libucosii_bsp.a(alt_exit.o)

.debug_str      0x00000000     0x271d
 *(.debug_str)
 .debug_str     0x00000000       0x5c obj/default/cpu_0.o
 .debug_str     0x0000005c      0x12b /opt/altera/13.0sp1/nios2eds/bin/gnu/H-i686-pc-linux-gnu/bin/../lib/gcc/nios2-elf/4.1.2/mno-hw-mul/pg/libgcc.a(_floatundidf.o)
                                0x171 (size before relaxing)
 .debug_str     0x00000187      0x138 /opt/altera/13.0sp1/nios2eds/bin/gnu/H-i686-pc-linux-gnu/bin/../lib/gcc/nios2-elf/4.1.2/mno-hw-mul/pg/libgcc.a(_addsub_df.o)
                                0x274 (size before relaxing)
 .debug_str     0x000002bf       0x45 /opt/altera/13.0sp1/nios2eds/bin/gnu/H-i686-pc-linux-gnu/bin/../lib/gcc/nios2-elf/4.1.2/mno-hw-mul/pg/libgcc.a(_mul_df.o)
                                0x246 (size before relaxing)
 .debug_str     0x00000304       0x35 /opt/altera/13.0sp1/nios2eds/bin/gnu/H-i686-pc-linux-gnu/bin/../lib/gcc/nios2-elf/4.1.2/mno-hw-mul/pg/libgcc.a(_div_df.o)
                                0x236 (size before relaxing)
 .debug_str     0x00000000      0x1a8 /opt/altera/13.0sp1/nios2eds/bin/gnu/H-i686-pc-linux-gnu/bin/../lib/gcc/nios2-elf/4.1.2/mno-hw-mul/pg/libgcc.a(_thenan_df.o)
 .debug_str     0x00000339       0x1b /opt/altera/13.0sp1/nios2eds/bin/gnu/H-i686-pc-linux-gnu/bin/../lib/gcc/nios2-elf/4.1.2/mno-hw-mul/pg/libgcc.a(_usi_to_df.o)
                                0x1df (size before relaxing)
 .debug_str     0x00000354       0x76 /opt/altera/13.0sp1/nios2eds/bin/gnu/H-i686-pc-linux-gnu/bin/../lib/gcc/nios2-elf/4.1.2/mno-hw-mul/pg/libgcc.a(lib2-divmod.o)
                                0x1b9 (size before relaxing)
 .debug_str     0x000003ca       0x37 /opt/altera/13.0sp1/nios2eds/bin/gnu/H-i686-pc-linux-gnu/bin/../lib/gcc/nios2-elf/4.1.2/mno-hw-mul/pg/libgcc.a(lib2-mul.o)
                                0x17a (size before relaxing)
 .debug_str     0x00000401       0x42 /opt/altera/13.0sp1/nios2eds/bin/gnu/H-i686-pc-linux-gnu/bin/../lib/gcc/nios2-elf/4.1.2/mno-hw-mul/pg/libgcc.a(_muldi3.o)
                                0x1b1 (size before relaxing)
 .debug_str     0x00000443       0x20 /opt/altera/13.0sp1/nios2eds/bin/gnu/H-i686-pc-linux-gnu/bin/../lib/gcc/nios2-elf/4.1.2/mno-hw-mul/pg/libgcc.a(_clzsi2.o)
                                0x183 (size before relaxing)
 .debug_str     0x00000463       0x10 /opt/altera/13.0sp1/nios2eds/bin/gnu/H-i686-pc-linux-gnu/bin/../lib/gcc/nios2-elf/4.1.2/mno-hw-mul/pg/libgcc.a(_pack_df.o)
                                0x20b (size before relaxing)
 .debug_str     0x00000473        0xb /opt/altera/13.0sp1/nios2eds/bin/gnu/H-i686-pc-linux-gnu/bin/../lib/gcc/nios2-elf/4.1.2/mno-hw-mul/pg/libgcc.a(_unpack_df.o)
                                0x1ed (size before relaxing)
 .debug_str     0x00000000      0x166 /opt/altera/13.0sp1/nios2eds/bin/gnu/H-i686-pc-linux-gnu/bin/../lib/gcc/nios2-elf/4.1.2/mno-hw-mul/pg/libgcc.a(_clz.o)
 .debug_str     0x0000047e      0x458 /opt/altera/13.0sp1/nios2eds/bin/gnu/H-i686-pc-linux-gnu/bin/../lib/gcc/nios2-elf/4.1.2/../../../../nios2-elf/lib/mno-hw-mul/pg/libc.a(lib_a-printf.o)
                                0x53c (size before relaxing)
 .debug_str     0x000008d6       0x54 /opt/altera/13.0sp1/nios2eds/bin/gnu/H-i686-pc-linux-gnu/bin/../lib/gcc/nios2-elf/4.1.2/../../../../nios2-elf/lib/mno-hw-mul/pg/libc.a(lib_a-putchar.o)
                                0x528 (size before relaxing)
 .debug_str     0x0000092a       0x87 /opt/altera/13.0sp1/nios2eds/bin/gnu/H-i686-pc-linux-gnu/bin/../lib/gcc/nios2-elf/4.1.2/../../../../nios2-elf/lib/mno-hw-mul/pg/libc.a(lib_a-puts.o)
                                0x562 (size before relaxing)
 .debug_str     0x000009b1       0xf4 /opt/altera/13.0sp1/nios2eds/bin/gnu/H-i686-pc-linux-gnu/bin/../lib/gcc/nios2-elf/4.1.2/../../../../nios2-elf/lib/mno-hw-mul/pg/libc.a(lib_a-strlen.o)
                                0x196 (size before relaxing)
 .debug_str     0x00000aa5      0x18b /opt/altera/13.0sp1/nios2eds/bin/gnu/H-i686-pc-linux-gnu/bin/../lib/gcc/nios2-elf/4.1.2/../../../../nios2-elf/lib/mno-hw-mul/pg/libc.a(lib_a-vfprintf.o)
                                0x711 (size before relaxing)
 .debug_str     0x00000c30       0x4c /opt/altera/13.0sp1/nios2eds/bin/gnu/H-i686-pc-linux-gnu/bin/../lib/gcc/nios2-elf/4.1.2/../../../../nios2-elf/lib/mno-hw-mul/pg/libc.a(lib_a-wsetup.o)
                                0x525 (size before relaxing)
 .debug_str     0x00000c7c      0x1a7 /opt/altera/13.0sp1/nios2eds/bin/gnu/H-i686-pc-linux-gnu/bin/../lib/gcc/nios2-elf/4.1.2/../../../../nios2-elf/lib/mno-hw-mul/pg/libc.a(lib_a-dtoa.o)
                                0x61a (size before relaxing)
 .debug_str     0x00000e23       0x6b /opt/altera/13.0sp1/nios2eds/bin/gnu/H-i686-pc-linux-gnu/bin/../lib/gcc/nios2-elf/4.1.2/../../../../nios2-elf/lib/mno-hw-mul/pg/libc.a(lib_a-fflush.o)
                                0x54b (size before relaxing)
 .debug_str     0x00000e8e      0x108 /opt/altera/13.0sp1/nios2eds/bin/gnu/H-i686-pc-linux-gnu/bin/../lib/gcc/nios2-elf/4.1.2/../../../../nios2-elf/lib/mno-hw-mul/pg/libc.a(lib_a-findfp.o)
                                0x60d (size before relaxing)
 .debug_str     0x00000f96      0x161 /opt/altera/13.0sp1/nios2eds/bin/gnu/H-i686-pc-linux-gnu/bin/../lib/gcc/nios2-elf/4.1.2/../../../../nios2-elf/lib/mno-hw-mul/pg/libc.a(lib_a-freer.o)
                                0x65c (size before relaxing)
 .debug_str     0x000010f7       0x6c /opt/altera/13.0sp1/nios2eds/bin/gnu/H-i686-pc-linux-gnu/bin/../lib/gcc/nios2-elf/4.1.2/../../../../nios2-elf/lib/mno-hw-mul/pg/libc.a(lib_a-fvwrite.o)
                                0x57c (size before relaxing)
 .debug_str     0x00001163       0x64 /opt/altera/13.0sp1/nios2eds/bin/gnu/H-i686-pc-linux-gnu/bin/../lib/gcc/nios2-elf/4.1.2/../../../../nios2-elf/lib/mno-hw-mul/pg/libc.a(lib_a-fwalk.o)
                                0x54e (size before relaxing)
 .debug_str     0x000011c7       0xea /opt/altera/13.0sp1/nios2eds/bin/gnu/H-i686-pc-linux-gnu/bin/../lib/gcc/nios2-elf/4.1.2/../../../../nios2-elf/lib/mno-hw-mul/pg/libc.a(lib_a-impure.o)
                                0x533 (size before relaxing)
 .debug_str     0x000012b1      0x23e /opt/altera/13.0sp1/nios2eds/bin/gnu/H-i686-pc-linux-gnu/bin/../lib/gcc/nios2-elf/4.1.2/../../../../nios2-elf/lib/mno-hw-mul/pg/libc.a(lib_a-locale.o)
                                0x6c2 (size before relaxing)
 .debug_str     0x000014ef      0x129 /opt/altera/13.0sp1/nios2eds/bin/gnu/H-i686-pc-linux-gnu/bin/../lib/gcc/nios2-elf/4.1.2/../../../../nios2-elf/lib/mno-hw-mul/pg/libc.a(lib_a-makebuf.o)
                                0x61f (size before relaxing)
 .debug_str     0x00001618       0xef /opt/altera/13.0sp1/nios2eds/bin/gnu/H-i686-pc-linux-gnu/bin/../lib/gcc/nios2-elf/4.1.2/../../../../nios2-elf/lib/mno-hw-mul/pg/libc.a(lib_a-mallocr.o)
                                0x70a (size before relaxing)
 .debug_str     0x00001707       0x62 /opt/altera/13.0sp1/nios2eds/bin/gnu/H-i686-pc-linux-gnu/bin/../lib/gcc/nios2-elf/4.1.2/../../../../nios2-elf/lib/mno-hw-mul/pg/libc.a(lib_a-memchr.o)
                                0x1a4 (size before relaxing)
 .debug_str     0x00001769       0x6f /opt/altera/13.0sp1/nios2eds/bin/gnu/H-i686-pc-linux-gnu/bin/../lib/gcc/nios2-elf/4.1.2/../../../../nios2-elf/lib/mno-hw-mul/pg/libc.a(lib_a-memcpy.o)
                                0x141 (size before relaxing)
 .debug_str     0x000017d8       0x53 /opt/altera/13.0sp1/nios2eds/bin/gnu/H-i686-pc-linux-gnu/bin/../lib/gcc/nios2-elf/4.1.2/../../../../nios2-elf/lib/mno-hw-mul/pg/libc.a(lib_a-memmove.o)
                                0x1b6 (size before relaxing)
 .debug_str     0x0000182b       0x48 /opt/altera/13.0sp1/nios2eds/bin/gnu/H-i686-pc-linux-gnu/bin/../lib/gcc/nios2-elf/4.1.2/../../../../nios2-elf/lib/mno-hw-mul/pg/libc.a(lib_a-memset.o)
                                0x197 (size before relaxing)
 .debug_str     0x00001873       0xfe /opt/altera/13.0sp1/nios2eds/bin/gnu/H-i686-pc-linux-gnu/bin/../lib/gcc/nios2-elf/4.1.2/../../../../nios2-elf/lib/mno-hw-mul/pg/libc.a(lib_a-mprec.o)
                                0x627 (size before relaxing)
 .debug_str     0x00001971       0x4b /opt/altera/13.0sp1/nios2eds/bin/gnu/H-i686-pc-linux-gnu/bin/../lib/gcc/nios2-elf/4.1.2/../../../../nios2-elf/lib/mno-hw-mul/pg/libc.a(lib_a-putc.o)
                                0x52b (size before relaxing)
 .debug_str     0x000019bc       0x59 /opt/altera/13.0sp1/nios2eds/bin/gnu/H-i686-pc-linux-gnu/bin/../lib/gcc/nios2-elf/4.1.2/../../../../nios2-elf/lib/mno-hw-mul/pg/libc.a(lib_a-reallocr.o)
                                0x5dc (size before relaxing)
 .debug_str     0x00001a15       0xf5 /opt/altera/13.0sp1/nios2eds/bin/gnu/H-i686-pc-linux-gnu/bin/../lib/gcc/nios2-elf/4.1.2/../../../../nios2-elf/lib/mno-hw-mul/pg/libc.a(lib_a-s_isinfd.o)
                                0x1a3 (size before relaxing)
 .debug_str     0x00001b0a       0x4c /opt/altera/13.0sp1/nios2eds/bin/gnu/H-i686-pc-linux-gnu/bin/../lib/gcc/nios2-elf/4.1.2/../../../../nios2-elf/lib/mno-hw-mul/pg/libc.a(lib_a-s_isnand.o)
                                0x1a3 (size before relaxing)
 .debug_str     0x00001b56       0x56 /opt/altera/13.0sp1/nios2eds/bin/gnu/H-i686-pc-linux-gnu/bin/../lib/gcc/nios2-elf/4.1.2/../../../../nios2-elf/lib/mno-hw-mul/pg/libc.a(lib_a-sbrkr.o)
                                0x524 (size before relaxing)
 .debug_str     0x00001bac       0x68 /opt/altera/13.0sp1/nios2eds/bin/gnu/H-i686-pc-linux-gnu/bin/../lib/gcc/nios2-elf/4.1.2/../../../../nios2-elf/lib/mno-hw-mul/pg/libc.a(lib_a-stdio.o)
                                0x54a (size before relaxing)
 .debug_str     0x00001c14       0x48 /opt/altera/13.0sp1/nios2eds/bin/gnu/H-i686-pc-linux-gnu/bin/../lib/gcc/nios2-elf/4.1.2/../../../../nios2-elf/lib/mno-hw-mul/pg/libc.a(lib_a-strcmp.o)
                                0x17c (size before relaxing)
 .debug_str     0x00001c5c       0x50 /opt/altera/13.0sp1/nios2eds/bin/gnu/H-i686-pc-linux-gnu/bin/../lib/gcc/nios2-elf/4.1.2/../../../../nios2-elf/lib/mno-hw-mul/pg/libc.a(lib_a-wbuf.o)
                                0x529 (size before relaxing)
 .debug_str     0x00001cac       0x52 /opt/altera/13.0sp1/nios2eds/bin/gnu/H-i686-pc-linux-gnu/bin/../lib/gcc/nios2-elf/4.1.2/../../../../nios2-elf/lib/mno-hw-mul/pg/libc.a(lib_a-writer.o)
                                0x527 (size before relaxing)
 .debug_str     0x00001cfe       0x19 /opt/altera/13.0sp1/nios2eds/bin/gnu/H-i686-pc-linux-gnu/bin/../lib/gcc/nios2-elf/4.1.2/../../../../nios2-elf/lib/mno-hw-mul/pg/libc.a(lib_a-callocr.o)
                                0x55b (size before relaxing)
 .debug_str     0x00001d17       0x49 /opt/altera/13.0sp1/nios2eds/bin/gnu/H-i686-pc-linux-gnu/bin/../lib/gcc/nios2-elf/4.1.2/../../../../nios2-elf/lib/mno-hw-mul/pg/libc.a(lib_a-closer.o)
                                0x517 (size before relaxing)
 .debug_str     0x00001d60       0x51 /opt/altera/13.0sp1/nios2eds/bin/gnu/H-i686-pc-linux-gnu/bin/../lib/gcc/nios2-elf/4.1.2/../../../../nios2-elf/lib/mno-hw-mul/pg/libc.a(lib_a-fclose.o)
                                0x52f (size before relaxing)
 .debug_str     0x00001db1       0x4f /opt/altera/13.0sp1/nios2eds/bin/gnu/H-i686-pc-linux-gnu/bin/../lib/gcc/nios2-elf/4.1.2/../../../../nios2-elf/lib/mno-hw-mul/pg/libc.a(lib_a-fstatr.o)
                                0x60a (size before relaxing)
 .debug_str     0x00001e00       0x43 /opt/altera/13.0sp1/nios2eds/bin/gnu/H-i686-pc-linux-gnu/bin/../lib/gcc/nios2-elf/4.1.2/../../../../nios2-elf/lib/mno-hw-mul/pg/libc.a(lib_a-int_errno.o)
                                0x17c (size before relaxing)
 .debug_str     0x00001e43       0x4b /opt/altera/13.0sp1/nios2eds/bin/gnu/H-i686-pc-linux-gnu/bin/../lib/gcc/nios2-elf/4.1.2/../../../../nios2-elf/lib/mno-hw-mul/pg/libc.a(lib_a-isattyr.o)
                                0x519 (size before relaxing)
 .debug_str     0x00001e8e       0x49 /opt/altera/13.0sp1/nios2eds/bin/gnu/H-i686-pc-linux-gnu/bin/../lib/gcc/nios2-elf/4.1.2/../../../../nios2-elf/lib/mno-hw-mul/pg/libc.a(lib_a-lseekr.o)
                                0x525 (size before relaxing)
 .debug_str     0x00001ed7       0x47 /opt/altera/13.0sp1/nios2eds/bin/gnu/H-i686-pc-linux-gnu/bin/../lib/gcc/nios2-elf/4.1.2/../../../../nios2-elf/lib/mno-hw-mul/pg/libc.a(lib_a-readr.o)
                                0x525 (size before relaxing)
 .debug_str     0x00001f1e       0x35 /opt/altera/13.0sp1/nios2eds/bin/gnu/H-i686-pc-linux-gnu/bin/../lib/gcc/nios2-elf/4.1.2/mno-hw-mul/pg/libgcc.a(_udivdi3.o)
                                0x1fc (size before relaxing)
 .debug_str     0x00001f53        0xa /opt/altera/13.0sp1/nios2eds/bin/gnu/H-i686-pc-linux-gnu/bin/../lib/gcc/nios2-elf/4.1.2/mno-hw-mul/pg/libgcc.a(_umoddi3.o)
                                0x1fc (size before relaxing)
 .debug_str     0x00001f5d        0x8 /opt/altera/13.0sp1/nios2eds/bin/gnu/H-i686-pc-linux-gnu/bin/../lib/gcc/nios2-elf/4.1.2/mno-hw-mul/pg/libgcc.a(_eq_df.o)
                                0x203 (size before relaxing)
 .debug_str     0x00001f65        0x8 /opt/altera/13.0sp1/nios2eds/bin/gnu/H-i686-pc-linux-gnu/bin/../lib/gcc/nios2-elf/4.1.2/mno-hw-mul/pg/libgcc.a(_ne_df.o)
                                0x203 (size before relaxing)
 .debug_str     0x00001f6d        0x8 /opt/altera/13.0sp1/nios2eds/bin/gnu/H-i686-pc-linux-gnu/bin/../lib/gcc/nios2-elf/4.1.2/mno-hw-mul/pg/libgcc.a(_gt_df.o)
                                0x203 (size before relaxing)
 .debug_str     0x00001f75        0x8 /opt/altera/13.0sp1/nios2eds/bin/gnu/H-i686-pc-linux-gnu/bin/../lib/gcc/nios2-elf/4.1.2/mno-hw-mul/pg/libgcc.a(_ge_df.o)
                                0x203 (size before relaxing)
 .debug_str     0x00001f7d        0x8 /opt/altera/13.0sp1/nios2eds/bin/gnu/H-i686-pc-linux-gnu/bin/../lib/gcc/nios2-elf/4.1.2/mno-hw-mul/pg/libgcc.a(_lt_df.o)
                                0x203 (size before relaxing)
 .debug_str     0x00001f85       0x11 /opt/altera/13.0sp1/nios2eds/bin/gnu/H-i686-pc-linux-gnu/bin/../lib/gcc/nios2-elf/4.1.2/mno-hw-mul/pg/libgcc.a(_si_to_df.o)
                                0x1e3 (size before relaxing)
 .debug_str     0x00001f96        0xa /opt/altera/13.0sp1/nios2eds/bin/gnu/H-i686-pc-linux-gnu/bin/../lib/gcc/nios2-elf/4.1.2/mno-hw-mul/pg/libgcc.a(_df_to_si.o)
                                0x20c (size before relaxing)
 .debug_str     0x00001fa0       0x10 /opt/altera/13.0sp1/nios2eds/bin/gnu/H-i686-pc-linux-gnu/bin/../lib/gcc/nios2-elf/4.1.2/mno-hw-mul/pg/libgcc.a(_fpcmp_parts_df.o)
                                0x1cb (size before relaxing)
 .debug_str     0x00001fb0       0x23 ../il2212-rtos_bsp//libucosii_bsp.a(alt_alarm_start.o)
 .debug_str     0x00001fd3       0x12 ../il2212-rtos_bsp//libucosii_bsp.a(alt_close.o)
 .debug_str     0x00001fe5       0x12 ../il2212-rtos_bsp//libucosii_bsp.a(alt_dev.o)
 .debug_str     0x00001ff7       0x12 ../il2212-rtos_bsp//libucosii_bsp.a(alt_errno.o)
 .debug_str     0x00002009       0x12 ../il2212-rtos_bsp//libucosii_bsp.a(alt_fstat.o)
 .debug_str     0x0000201b       0x12 ../il2212-rtos_bsp//libucosii_bsp.a(alt_isatty.o)
 .debug_str     0x0000202d       0x12 ../il2212-rtos_bsp//libucosii_bsp.a(alt_load.o)
 .debug_str     0x0000203f       0x12 ../il2212-rtos_bsp//libucosii_bsp.a(alt_lseek.o)
 .debug_str     0x00002051       0x12 ../il2212-rtos_bsp//libucosii_bsp.a(alt_main.o)
 .debug_str     0x00002063       0x12 ../il2212-rtos_bsp//libucosii_bsp.a(alt_read.o)
 .debug_str     0x00002075       0x12 ../il2212-rtos_bsp//libucosii_bsp.a(alt_release_fd.o)
 .debug_str     0x00002087       0x1a ../il2212-rtos_bsp//libucosii_bsp.a(alt_sbrk.o)
 .debug_str     0x000020a1       0x1a ../il2212-rtos_bsp//libucosii_bsp.a(alt_tick.o)
 .debug_str     0x000020bb       0x12 ../il2212-rtos_bsp//libucosii_bsp.a(alt_write.o)
 .debug_str     0x000020cd       0x36 ../il2212-rtos_bsp//libucosii_bsp.a(alt_env_lock.o)
 .debug_str     0x00002103       0x36 ../il2212-rtos_bsp//libucosii_bsp.a(alt_malloc_lock.o)
 .debug_str     0x00002139       0x46 ../il2212-rtos_bsp//libucosii_bsp.a(os_core.o)
 .debug_str     0x0000217f       0x2b ../il2212-rtos_bsp//libucosii_bsp.a(os_dbg.o)
 .debug_str     0x000021aa       0x4e ../il2212-rtos_bsp//libucosii_bsp.a(os_flag.o)
 .debug_str     0x000021f8       0x2c ../il2212-rtos_bsp//libucosii_bsp.a(os_mem.o)
 .debug_str     0x00002224       0x36 ../il2212-rtos_bsp//libucosii_bsp.a(os_q.o)
 .debug_str     0x0000225a       0x36 ../il2212-rtos_bsp//libucosii_bsp.a(os_sem.o)
 .debug_str     0x00002290       0x23 ../il2212-rtos_bsp//libucosii_bsp.a(os_task.o)
 .debug_str     0x000022b3       0x1f ../il2212-rtos_bsp//libucosii_bsp.a(os_time.o)
 .debug_str     0x000022d2       0x30 ../il2212-rtos_bsp//libucosii_bsp.a(os_tmr.o)
 .debug_str     0x00002302       0x39 ../il2212-rtos_bsp//libucosii_bsp.a(alt_sys_init.o)
 .debug_str     0x0000233b       0x12 ../il2212-rtos_bsp//libucosii_bsp.a(altera_avalon_jtag_uart_fd.o)
 .debug_str     0x0000234d       0x1a ../il2212-rtos_bsp//libucosii_bsp.a(altera_avalon_jtag_uart_init.o)
 .debug_str     0x00002367       0x12 ../il2212-rtos_bsp//libucosii_bsp.a(altera_avalon_jtag_uart_ioctl.o)
 .debug_str     0x00002379       0x22 ../il2212-rtos_bsp//libucosii_bsp.a(altera_avalon_jtag_uart_read.o)
 .debug_str     0x0000239b       0x22 ../il2212-rtos_bsp//libucosii_bsp.a(altera_avalon_jtag_uart_write.o)
 .debug_str     0x000023bd       0x2f ../il2212-rtos_bsp//libucosii_bsp.a(altera_avalon_mutex.o)
 .debug_str     0x000023ec       0x1e ../il2212-rtos_bsp//libucosii_bsp.a(altera_avalon_performance_counter.o)
 .debug_str     0x0000240a       0x12 ../il2212-rtos_bsp//libucosii_bsp.a(altera_avalon_timer_sc.o)
 .debug_str     0x0000241c       0x12 ../il2212-rtos_bsp//libucosii_bsp.a(altera_avalon_timer_vars.o)
 .debug_str     0x0000242e       0x12 ../il2212-rtos_bsp//libucosii_bsp.a(perf_print_formatted_report.o)
 .debug_str     0x00002440       0x12 ../il2212-rtos_bsp//libucosii_bsp.a(alt_dcache_flush_all.o)
 .debug_str     0x00002452       0x12 ../il2212-rtos_bsp//libucosii_bsp.a(alt_dev_llist_insert.o)
 .debug_str     0x00002464       0x12 ../il2212-rtos_bsp//libucosii_bsp.a(alt_find_dev.o)
 .debug_str     0x00002476       0x1a ../il2212-rtos_bsp//libucosii_bsp.a(alt_gmon.o)
 .debug_str     0x00002490       0x12 ../il2212-rtos_bsp//libucosii_bsp.a(alt_icache_flush_all.o)
 .debug_str     0x000024a2       0x12 ../il2212-rtos_bsp//libucosii_bsp.a(alt_io_redirect.o)
 .debug_str     0x000024b4       0x21 ../il2212-rtos_bsp//libucosii_bsp.a(alt_irq_register.o)
 .debug_str     0x000024d5       0x12 ../il2212-rtos_bsp//libucosii_bsp.a(alt_open.o)
 .debug_str     0x000024e7       0x12 ../il2212-rtos_bsp//libucosii_bsp.a(altera_nios2_qsys_irq.o)
 .debug_str     0x000024f9       0x20 ../il2212-rtos_bsp//libucosii_bsp.a(os_cpu_c.o)
 .debug_str     0x00002519       0x12 ../il2212-rtos_bsp//libucosii_bsp.a(alt_find_file.o)
 .debug_str     0x0000252b       0x12 ../il2212-rtos_bsp//libucosii_bsp.a(alt_get_fd.o)
 .debug_str     0x0000253d       0x12 ../il2212-rtos_bsp//libucosii_bsp.a(alt_irq_handler.o)
 .debug_str     0x0000254f       0x41 /opt/altera/13.0sp1/nios2eds/bin/gnu/H-i686-pc-linux-gnu/bin/../lib/gcc/nios2-elf/4.1.2/../../../../nios2-elf/lib/mno-hw-mul/pg/libc.a(lib_a-atexit.o)
                                0x1d8 (size before relaxing)
 .debug_str     0x00002590       0x44 /opt/altera/13.0sp1/nios2eds/bin/gnu/H-i686-pc-linux-gnu/bin/../lib/gcc/nios2-elf/4.1.2/../../../../nios2-elf/lib/mno-hw-mul/pg/libc.a(lib_a-exit.o)
                                0x525 (size before relaxing)
 .debug_str     0x000025d4       0x48 /opt/altera/13.0sp1/nios2eds/bin/gnu/H-i686-pc-linux-gnu/bin/../lib/gcc/nios2-elf/4.1.2/../../../../nios2-elf/lib/mno-hw-mul/pg/libc.a(lib_a-memcmp.o)
                                0x183 (size before relaxing)
 .debug_str     0x0000261c       0x57 /opt/altera/13.0sp1/nios2eds/bin/gnu/H-i686-pc-linux-gnu/bin/../lib/gcc/nios2-elf/4.1.2/../../../../nios2-elf/lib/mno-hw-mul/pg/libc.a(lib_a-__atexit.o)
                                0x53d (size before relaxing)
 .debug_str     0x00002673       0x81 /opt/altera/13.0sp1/nios2eds/bin/gnu/H-i686-pc-linux-gnu/bin/../lib/gcc/nios2-elf/4.1.2/../../../../nios2-elf/lib/mno-hw-mul/pg/libc.a(lib_a-__call_atexit.o)
                                0x567 (size before relaxing)
 .debug_str     0x000026f4        0xd /opt/altera/13.0sp1/nios2eds/bin/gnu/H-i686-pc-linux-gnu/bin/../lib/gcc/nios2-elf/4.1.2/mno-hw-mul/pg/libgcc.a(_fixunsdfsi.o)
                                0x170 (size before relaxing)
 .debug_str     0x00002701       0x1c ../il2212-rtos_bsp//libucosii_bsp.a(alt_exit.o)

.debug_loc      0x00000000     0xdc53
 *(.debug_loc)
 .debug_loc     0x00000000      0x333 obj/default/cpu_0.o
 .debug_loc     0x00000333       0x5f /opt/altera/13.0sp1/nios2eds/bin/gnu/H-i686-pc-linux-gnu/bin/../lib/gcc/nios2-elf/4.1.2/mno-hw-mul/pg/libgcc.a(_floatundidf.o)
 .debug_loc     0x00000392      0x47a /opt/altera/13.0sp1/nios2eds/bin/gnu/H-i686-pc-linux-gnu/bin/../lib/gcc/nios2-elf/4.1.2/mno-hw-mul/pg/libgcc.a(_addsub_df.o)
 .debug_loc     0x0000080c      0x3b4 /opt/altera/13.0sp1/nios2eds/bin/gnu/H-i686-pc-linux-gnu/bin/../lib/gcc/nios2-elf/4.1.2/mno-hw-mul/pg/libgcc.a(_mul_df.o)
 .debug_loc     0x00000bc0      0x1df /opt/altera/13.0sp1/nios2eds/bin/gnu/H-i686-pc-linux-gnu/bin/../lib/gcc/nios2-elf/4.1.2/mno-hw-mul/pg/libgcc.a(_div_df.o)
 .debug_loc     0x00000d9f       0x5b /opt/altera/13.0sp1/nios2eds/bin/gnu/H-i686-pc-linux-gnu/bin/../lib/gcc/nios2-elf/4.1.2/mno-hw-mul/pg/libgcc.a(_usi_to_df.o)
 .debug_loc     0x00000dfa      0x1d2 /opt/altera/13.0sp1/nios2eds/bin/gnu/H-i686-pc-linux-gnu/bin/../lib/gcc/nios2-elf/4.1.2/mno-hw-mul/pg/libgcc.a(lib2-divmod.o)
 .debug_loc     0x00000fcc       0x4f /opt/altera/13.0sp1/nios2eds/bin/gnu/H-i686-pc-linux-gnu/bin/../lib/gcc/nios2-elf/4.1.2/mno-hw-mul/pg/libgcc.a(lib2-mul.o)
 .debug_loc     0x0000101b      0x103 /opt/altera/13.0sp1/nios2eds/bin/gnu/H-i686-pc-linux-gnu/bin/../lib/gcc/nios2-elf/4.1.2/mno-hw-mul/pg/libgcc.a(_muldi3.o)
 .debug_loc     0x0000111e       0x1e /opt/altera/13.0sp1/nios2eds/bin/gnu/H-i686-pc-linux-gnu/bin/../lib/gcc/nios2-elf/4.1.2/mno-hw-mul/pg/libgcc.a(_clzsi2.o)
 .debug_loc     0x0000113c      0x184 /opt/altera/13.0sp1/nios2eds/bin/gnu/H-i686-pc-linux-gnu/bin/../lib/gcc/nios2-elf/4.1.2/mno-hw-mul/pg/libgcc.a(_pack_df.o)
 .debug_loc     0x000012c0       0xe5 /opt/altera/13.0sp1/nios2eds/bin/gnu/H-i686-pc-linux-gnu/bin/../lib/gcc/nios2-elf/4.1.2/mno-hw-mul/pg/libgcc.a(_unpack_df.o)
 .debug_loc     0x000013a5       0xcb /opt/altera/13.0sp1/nios2eds/bin/gnu/H-i686-pc-linux-gnu/bin/../lib/gcc/nios2-elf/4.1.2/../../../../nios2-elf/lib/mno-hw-mul/pg/libc.a(lib_a-printf.o)
 .debug_loc     0x00001470       0x44 /opt/altera/13.0sp1/nios2eds/bin/gnu/H-i686-pc-linux-gnu/bin/../lib/gcc/nios2-elf/4.1.2/../../../../nios2-elf/lib/mno-hw-mul/pg/libc.a(lib_a-putchar.o)
 .debug_loc     0x000014b4       0xa2 /opt/altera/13.0sp1/nios2eds/bin/gnu/H-i686-pc-linux-gnu/bin/../lib/gcc/nios2-elf/4.1.2/../../../../nios2-elf/lib/mno-hw-mul/pg/libc.a(lib_a-puts.o)
 .debug_loc     0x00001556       0x3c /opt/altera/13.0sp1/nios2eds/bin/gnu/H-i686-pc-linux-gnu/bin/../lib/gcc/nios2-elf/4.1.2/../../../../nios2-elf/lib/mno-hw-mul/pg/libc.a(lib_a-strlen.o)
 .debug_loc     0x00001592     0x1dc0 /opt/altera/13.0sp1/nios2eds/bin/gnu/H-i686-pc-linux-gnu/bin/../lib/gcc/nios2-elf/4.1.2/../../../../nios2-elf/lib/mno-hw-mul/pg/libc.a(lib_a-vfprintf.o)
 .debug_loc     0x00003352       0x7c /opt/altera/13.0sp1/nios2eds/bin/gnu/H-i686-pc-linux-gnu/bin/../lib/gcc/nios2-elf/4.1.2/../../../../nios2-elf/lib/mno-hw-mul/pg/libc.a(lib_a-wsetup.o)
 .debug_loc     0x000033ce     0x1da7 /opt/altera/13.0sp1/nios2eds/bin/gnu/H-i686-pc-linux-gnu/bin/../lib/gcc/nios2-elf/4.1.2/../../../../nios2-elf/lib/mno-hw-mul/pg/libc.a(lib_a-dtoa.o)
 .debug_loc     0x00005175      0x1f6 /opt/altera/13.0sp1/nios2eds/bin/gnu/H-i686-pc-linux-gnu/bin/../lib/gcc/nios2-elf/4.1.2/../../../../nios2-elf/lib/mno-hw-mul/pg/libc.a(lib_a-fflush.o)
 .debug_loc     0x0000536b      0x1e1 /opt/altera/13.0sp1/nios2eds/bin/gnu/H-i686-pc-linux-gnu/bin/../lib/gcc/nios2-elf/4.1.2/../../../../nios2-elf/lib/mno-hw-mul/pg/libc.a(lib_a-findfp.o)
 .debug_loc     0x0000554c      0x4a7 /opt/altera/13.0sp1/nios2eds/bin/gnu/H-i686-pc-linux-gnu/bin/../lib/gcc/nios2-elf/4.1.2/../../../../nios2-elf/lib/mno-hw-mul/pg/libc.a(lib_a-freer.o)
 .debug_loc     0x000059f3      0x4e4 /opt/altera/13.0sp1/nios2eds/bin/gnu/H-i686-pc-linux-gnu/bin/../lib/gcc/nios2-elf/4.1.2/../../../../nios2-elf/lib/mno-hw-mul/pg/libc.a(lib_a-fvwrite.o)
 .debug_loc     0x00005ed7      0x1d2 /opt/altera/13.0sp1/nios2eds/bin/gnu/H-i686-pc-linux-gnu/bin/../lib/gcc/nios2-elf/4.1.2/../../../../nios2-elf/lib/mno-hw-mul/pg/libc.a(lib_a-fwalk.o)
 .debug_loc     0x000060a9       0xe1 /opt/altera/13.0sp1/nios2eds/bin/gnu/H-i686-pc-linux-gnu/bin/../lib/gcc/nios2-elf/4.1.2/../../../../nios2-elf/lib/mno-hw-mul/pg/libc.a(lib_a-locale.o)
 .debug_loc     0x0000618a      0x11c /opt/altera/13.0sp1/nios2eds/bin/gnu/H-i686-pc-linux-gnu/bin/../lib/gcc/nios2-elf/4.1.2/../../../../nios2-elf/lib/mno-hw-mul/pg/libc.a(lib_a-makebuf.o)
 .debug_loc     0x000062a6      0xaeb /opt/altera/13.0sp1/nios2eds/bin/gnu/H-i686-pc-linux-gnu/bin/../lib/gcc/nios2-elf/4.1.2/../../../../nios2-elf/lib/mno-hw-mul/pg/libc.a(lib_a-mallocr.o)
 .debug_loc     0x00006d91      0x106 /opt/altera/13.0sp1/nios2eds/bin/gnu/H-i686-pc-linux-gnu/bin/../lib/gcc/nios2-elf/4.1.2/../../../../nios2-elf/lib/mno-hw-mul/pg/libc.a(lib_a-memchr.o)
 .debug_loc     0x00006e97       0xca /opt/altera/13.0sp1/nios2eds/bin/gnu/H-i686-pc-linux-gnu/bin/../lib/gcc/nios2-elf/4.1.2/../../../../nios2-elf/lib/mno-hw-mul/pg/libc.a(lib_a-memcpy.o)
 .debug_loc     0x00006f61      0x117 /opt/altera/13.0sp1/nios2eds/bin/gnu/H-i686-pc-linux-gnu/bin/../lib/gcc/nios2-elf/4.1.2/../../../../nios2-elf/lib/mno-hw-mul/pg/libc.a(lib_a-memmove.o)
 .debug_loc     0x00007078       0xa1 /opt/altera/13.0sp1/nios2eds/bin/gnu/H-i686-pc-linux-gnu/bin/../lib/gcc/nios2-elf/4.1.2/../../../../nios2-elf/lib/mno-hw-mul/pg/libc.a(lib_a-memset.o)
 .debug_loc     0x00007119     0x1547 /opt/altera/13.0sp1/nios2eds/bin/gnu/H-i686-pc-linux-gnu/bin/../lib/gcc/nios2-elf/4.1.2/../../../../nios2-elf/lib/mno-hw-mul/pg/libc.a(lib_a-mprec.o)
 .debug_loc     0x00008660      0x20d /opt/altera/13.0sp1/nios2eds/bin/gnu/H-i686-pc-linux-gnu/bin/../lib/gcc/nios2-elf/4.1.2/../../../../nios2-elf/lib/mno-hw-mul/pg/libc.a(lib_a-putc.o)
 .debug_loc     0x0000886d      0x8c0 /opt/altera/13.0sp1/nios2eds/bin/gnu/H-i686-pc-linux-gnu/bin/../lib/gcc/nios2-elf/4.1.2/../../../../nios2-elf/lib/mno-hw-mul/pg/libc.a(lib_a-reallocr.o)
 .debug_loc     0x0000912d       0x36 /opt/altera/13.0sp1/nios2eds/bin/gnu/H-i686-pc-linux-gnu/bin/../lib/gcc/nios2-elf/4.1.2/../../../../nios2-elf/lib/mno-hw-mul/pg/libc.a(lib_a-s_isinfd.o)
 .debug_loc     0x00009163       0x18 /opt/altera/13.0sp1/nios2eds/bin/gnu/H-i686-pc-linux-gnu/bin/../lib/gcc/nios2-elf/4.1.2/../../../../nios2-elf/lib/mno-hw-mul/pg/libc.a(lib_a-s_isnand.o)
 .debug_loc     0x0000917b       0x5b /opt/altera/13.0sp1/nios2eds/bin/gnu/H-i686-pc-linux-gnu/bin/../lib/gcc/nios2-elf/4.1.2/../../../../nios2-elf/lib/mno-hw-mul/pg/libc.a(lib_a-sbrkr.o)
 .debug_loc     0x000091d6      0x21f /opt/altera/13.0sp1/nios2eds/bin/gnu/H-i686-pc-linux-gnu/bin/../lib/gcc/nios2-elf/4.1.2/../../../../nios2-elf/lib/mno-hw-mul/pg/libc.a(lib_a-stdio.o)
 .debug_loc     0x000093f5       0x65 /opt/altera/13.0sp1/nios2eds/bin/gnu/H-i686-pc-linux-gnu/bin/../lib/gcc/nios2-elf/4.1.2/../../../../nios2-elf/lib/mno-hw-mul/pg/libc.a(lib_a-strcmp.o)
 .debug_loc     0x0000945a      0x157 /opt/altera/13.0sp1/nios2eds/bin/gnu/H-i686-pc-linux-gnu/bin/../lib/gcc/nios2-elf/4.1.2/../../../../nios2-elf/lib/mno-hw-mul/pg/libc.a(lib_a-wbuf.o)
 .debug_loc     0x000095b1       0x97 /opt/altera/13.0sp1/nios2eds/bin/gnu/H-i686-pc-linux-gnu/bin/../lib/gcc/nios2-elf/4.1.2/../../../../nios2-elf/lib/mno-hw-mul/pg/libc.a(lib_a-writer.o)
 .debug_loc     0x00009648       0xff /opt/altera/13.0sp1/nios2eds/bin/gnu/H-i686-pc-linux-gnu/bin/../lib/gcc/nios2-elf/4.1.2/../../../../nios2-elf/lib/mno-hw-mul/pg/libc.a(lib_a-callocr.o)
 .debug_loc     0x00009747       0x5b /opt/altera/13.0sp1/nios2eds/bin/gnu/H-i686-pc-linux-gnu/bin/../lib/gcc/nios2-elf/4.1.2/../../../../nios2-elf/lib/mno-hw-mul/pg/libc.a(lib_a-closer.o)
 .debug_loc     0x000097a2       0xe4 /opt/altera/13.0sp1/nios2eds/bin/gnu/H-i686-pc-linux-gnu/bin/../lib/gcc/nios2-elf/4.1.2/../../../../nios2-elf/lib/mno-hw-mul/pg/libc.a(lib_a-fclose.o)
 .debug_loc     0x00009886       0x79 /opt/altera/13.0sp1/nios2eds/bin/gnu/H-i686-pc-linux-gnu/bin/../lib/gcc/nios2-elf/4.1.2/../../../../nios2-elf/lib/mno-hw-mul/pg/libc.a(lib_a-fstatr.o)
 .debug_loc     0x000098ff       0x5b /opt/altera/13.0sp1/nios2eds/bin/gnu/H-i686-pc-linux-gnu/bin/../lib/gcc/nios2-elf/4.1.2/../../../../nios2-elf/lib/mno-hw-mul/pg/libc.a(lib_a-isattyr.o)
 .debug_loc     0x0000995a       0x97 /opt/altera/13.0sp1/nios2eds/bin/gnu/H-i686-pc-linux-gnu/bin/../lib/gcc/nios2-elf/4.1.2/../../../../nios2-elf/lib/mno-hw-mul/pg/libc.a(lib_a-lseekr.o)
 .debug_loc     0x000099f1       0x97 /opt/altera/13.0sp1/nios2eds/bin/gnu/H-i686-pc-linux-gnu/bin/../lib/gcc/nios2-elf/4.1.2/../../../../nios2-elf/lib/mno-hw-mul/pg/libc.a(lib_a-readr.o)
 .debug_loc     0x00009a88      0xc12 /opt/altera/13.0sp1/nios2eds/bin/gnu/H-i686-pc-linux-gnu/bin/../lib/gcc/nios2-elf/4.1.2/mno-hw-mul/pg/libgcc.a(_udivdi3.o)
 .debug_loc     0x0000a69a      0xbcc /opt/altera/13.0sp1/nios2eds/bin/gnu/H-i686-pc-linux-gnu/bin/../lib/gcc/nios2-elf/4.1.2/mno-hw-mul/pg/libgcc.a(_umoddi3.o)
 .debug_loc     0x0000b266       0x70 /opt/altera/13.0sp1/nios2eds/bin/gnu/H-i686-pc-linux-gnu/bin/../lib/gcc/nios2-elf/4.1.2/mno-hw-mul/pg/libgcc.a(_eq_df.o)
 .debug_loc     0x0000b2d6       0x70 /opt/altera/13.0sp1/nios2eds/bin/gnu/H-i686-pc-linux-gnu/bin/../lib/gcc/nios2-elf/4.1.2/mno-hw-mul/pg/libgcc.a(_ne_df.o)
 .debug_loc     0x0000b346       0x70 /opt/altera/13.0sp1/nios2eds/bin/gnu/H-i686-pc-linux-gnu/bin/../lib/gcc/nios2-elf/4.1.2/mno-hw-mul/pg/libgcc.a(_gt_df.o)
 .debug_loc     0x0000b3b6       0x70 /opt/altera/13.0sp1/nios2eds/bin/gnu/H-i686-pc-linux-gnu/bin/../lib/gcc/nios2-elf/4.1.2/mno-hw-mul/pg/libgcc.a(_ge_df.o)
 .debug_loc     0x0000b426       0x70 /opt/altera/13.0sp1/nios2eds/bin/gnu/H-i686-pc-linux-gnu/bin/../lib/gcc/nios2-elf/4.1.2/mno-hw-mul/pg/libgcc.a(_lt_df.o)
 .debug_loc     0x0000b496       0x9a /opt/altera/13.0sp1/nios2eds/bin/gnu/H-i686-pc-linux-gnu/bin/../lib/gcc/nios2-elf/4.1.2/mno-hw-mul/pg/libgcc.a(_si_to_df.o)
 .debug_loc     0x0000b530       0x8b /opt/altera/13.0sp1/nios2eds/bin/gnu/H-i686-pc-linux-gnu/bin/../lib/gcc/nios2-elf/4.1.2/mno-hw-mul/pg/libgcc.a(_df_to_si.o)
 .debug_loc     0x0000b5bb       0x2b ../il2212-rtos_bsp//libucosii_bsp.a(alt_alarm_start.o)
 .debug_loc     0x0000b5e6       0x56 ../il2212-rtos_bsp//libucosii_bsp.a(alt_close.o)
 .debug_loc     0x0000b63c       0x2b ../il2212-rtos_bsp//libucosii_bsp.a(alt_dev.o)
 .debug_loc     0x0000b667       0x56 ../il2212-rtos_bsp//libucosii_bsp.a(alt_fstat.o)
 .debug_loc     0x0000b6bd       0x57 ../il2212-rtos_bsp//libucosii_bsp.a(alt_isatty.o)
 .debug_loc     0x0000b714       0x56 ../il2212-rtos_bsp//libucosii_bsp.a(alt_load.o)
 .debug_loc     0x0000b76a       0x56 ../il2212-rtos_bsp//libucosii_bsp.a(alt_lseek.o)
 .debug_loc     0x0000b7c0       0x2b ../il2212-rtos_bsp//libucosii_bsp.a(alt_main.o)
 .debug_loc     0x0000b7eb       0x56 ../il2212-rtos_bsp//libucosii_bsp.a(alt_read.o)
 .debug_loc     0x0000b841       0x2b ../il2212-rtos_bsp//libucosii_bsp.a(alt_release_fd.o)
 .debug_loc     0x0000b86c       0x2b ../il2212-rtos_bsp//libucosii_bsp.a(alt_sbrk.o)
 .debug_loc     0x0000b897       0x56 ../il2212-rtos_bsp//libucosii_bsp.a(alt_tick.o)
 .debug_loc     0x0000b8ed       0x56 ../il2212-rtos_bsp//libucosii_bsp.a(alt_write.o)
 .debug_loc     0x0000b943       0x57 ../il2212-rtos_bsp//libucosii_bsp.a(alt_env_lock.o)
 .debug_loc     0x0000b99a       0x57 ../il2212-rtos_bsp//libucosii_bsp.a(alt_malloc_lock.o)
 .debug_loc     0x0000b9f1      0x5e2 ../il2212-rtos_bsp//libucosii_bsp.a(os_core.o)
 .debug_loc     0x0000bfd3       0x2b ../il2212-rtos_bsp//libucosii_bsp.a(os_dbg.o)
 .debug_loc     0x0000bffe      0x232 ../il2212-rtos_bsp//libucosii_bsp.a(os_flag.o)
 .debug_loc     0x0000c230      0x12d ../il2212-rtos_bsp//libucosii_bsp.a(os_mem.o)
 .debug_loc     0x0000c35d      0x1da ../il2212-rtos_bsp//libucosii_bsp.a(os_q.o)
 .debug_loc     0x0000c537      0x158 ../il2212-rtos_bsp//libucosii_bsp.a(os_sem.o)
 .debug_loc     0x0000c68f      0x207 ../il2212-rtos_bsp//libucosii_bsp.a(os_task.o)
 .debug_loc     0x0000c896       0xd7 ../il2212-rtos_bsp//libucosii_bsp.a(os_time.o)
 .debug_loc     0x0000c96d      0x2db ../il2212-rtos_bsp//libucosii_bsp.a(os_tmr.o)
 .debug_loc     0x0000cc48       0xd7 ../il2212-rtos_bsp//libucosii_bsp.a(alt_sys_init.o)
 .debug_loc     0x0000cd1f       0xac ../il2212-rtos_bsp//libucosii_bsp.a(altera_avalon_jtag_uart_fd.o)
 .debug_loc     0x0000cdcb       0xac ../il2212-rtos_bsp//libucosii_bsp.a(altera_avalon_jtag_uart_init.o)
 .debug_loc     0x0000ce77       0x2b ../il2212-rtos_bsp//libucosii_bsp.a(altera_avalon_jtag_uart_ioctl.o)
 .debug_loc     0x0000cea2       0x2c ../il2212-rtos_bsp//libucosii_bsp.a(altera_avalon_jtag_uart_read.o)
 .debug_loc     0x0000cece       0x2c ../il2212-rtos_bsp//libucosii_bsp.a(altera_avalon_jtag_uart_write.o)
 .debug_loc     0x0000cefa      0x183 ../il2212-rtos_bsp//libucosii_bsp.a(altera_avalon_mutex.o)
 .debug_loc     0x0000d07d       0xd7 ../il2212-rtos_bsp//libucosii_bsp.a(altera_avalon_performance_counter.o)
 .debug_loc     0x0000d154       0x56 ../il2212-rtos_bsp//libucosii_bsp.a(altera_avalon_timer_sc.o)
 .debug_loc     0x0000d1aa       0x2c ../il2212-rtos_bsp//libucosii_bsp.a(perf_print_formatted_report.o)
 .debug_loc     0x0000d1d6       0x2b ../il2212-rtos_bsp//libucosii_bsp.a(alt_dcache_flush_all.o)
 .debug_loc     0x0000d201       0x56 ../il2212-rtos_bsp//libucosii_bsp.a(alt_dev_llist_insert.o)
 .debug_loc     0x0000d257       0x2b ../il2212-rtos_bsp//libucosii_bsp.a(alt_do_ctors.o)
 .debug_loc     0x0000d282       0x2b ../il2212-rtos_bsp//libucosii_bsp.a(alt_do_dtors.o)
 .debug_loc     0x0000d2ad       0x2b ../il2212-rtos_bsp//libucosii_bsp.a(alt_find_dev.o)
 .debug_loc     0x0000d2d8       0xac ../il2212-rtos_bsp//libucosii_bsp.a(alt_gmon.o)
 .debug_loc     0x0000d384       0x2b ../il2212-rtos_bsp//libucosii_bsp.a(alt_icache_flush_all.o)
 .debug_loc     0x0000d3af       0x56 ../il2212-rtos_bsp//libucosii_bsp.a(alt_io_redirect.o)
 .debug_loc     0x0000d405       0x2c ../il2212-rtos_bsp//libucosii_bsp.a(alt_irq_register.o)
 .debug_loc     0x0000d431       0x81 ../il2212-rtos_bsp//libucosii_bsp.a(alt_open.o)
 .debug_loc     0x0000d4b2       0x2b ../il2212-rtos_bsp//libucosii_bsp.a(altera_nios2_qsys_irq.o)
 .debug_loc     0x0000d4dd      0x1ae ../il2212-rtos_bsp//libucosii_bsp.a(os_cpu_c.o)
 .debug_loc     0x0000d68b       0x2b ../il2212-rtos_bsp//libucosii_bsp.a(alt_find_file.o)
 .debug_loc     0x0000d6b6       0x2b ../il2212-rtos_bsp//libucosii_bsp.a(alt_get_fd.o)
 .debug_loc     0x0000d6e1       0x2b ../il2212-rtos_bsp//libucosii_bsp.a(alt_irq_handler.o)
 .debug_loc     0x0000d70c       0x1e /opt/altera/13.0sp1/nios2eds/bin/gnu/H-i686-pc-linux-gnu/bin/../lib/gcc/nios2-elf/4.1.2/../../../../nios2-elf/lib/mno-hw-mul/pg/libc.a(lib_a-atexit.o)
 .debug_loc     0x0000d72a       0x3d /opt/altera/13.0sp1/nios2eds/bin/gnu/H-i686-pc-linux-gnu/bin/../lib/gcc/nios2-elf/4.1.2/../../../../nios2-elf/lib/mno-hw-mul/pg/libc.a(lib_a-exit.o)
 .debug_loc     0x0000d767      0x114 /opt/altera/13.0sp1/nios2eds/bin/gnu/H-i686-pc-linux-gnu/bin/../lib/gcc/nios2-elf/4.1.2/../../../../nios2-elf/lib/mno-hw-mul/pg/libc.a(lib_a-memcmp.o)
 .debug_loc     0x0000d87b      0x120 /opt/altera/13.0sp1/nios2eds/bin/gnu/H-i686-pc-linux-gnu/bin/../lib/gcc/nios2-elf/4.1.2/../../../../nios2-elf/lib/mno-hw-mul/pg/libc.a(lib_a-__atexit.o)
 .debug_loc     0x0000d99b      0x1cb /opt/altera/13.0sp1/nios2eds/bin/gnu/H-i686-pc-linux-gnu/bin/../lib/gcc/nios2-elf/4.1.2/../../../../nios2-elf/lib/mno-hw-mul/pg/libc.a(lib_a-__call_atexit.o)
 .debug_loc     0x0000db66       0x97 /opt/altera/13.0sp1/nios2eds/bin/gnu/H-i686-pc-linux-gnu/bin/../lib/gcc/nios2-elf/4.1.2/mno-hw-mul/pg/libgcc.a(_fixunsdfsi.o)
 .debug_loc     0x0000dbfd       0x56 ../il2212-rtos_bsp//libucosii_bsp.a(alt_exit.o)

.debug_macinfo
 *(.debug_macinfo)

.debug_weaknames
 *(.debug_weaknames)

.debug_funcnames
 *(.debug_funcnames)

.debug_typenames
 *(.debug_typenames)

.debug_varnames
 *(.debug_varnames)

.debug_alt_sim_info
                0x00000000       0x10
 *(.debug_alt_sim_info)
 .debug_alt_sim_info
                0x00000000       0x10 ../il2212-rtos_bsp//obj/HAL/src/crt0.o
                0x01800000                __alt_data_end = 0x1800000
                0x01800000                PROVIDE (__alt_stack_pointer, __alt_data_end)
                0x01049f74                PROVIDE (__alt_stack_limit, __alt_stack_base)
                0x01049f74                PROVIDE (__alt_heap_start, end)
                0x01800000                PROVIDE (__alt_heap_limit, 0x1800000)
OUTPUT(il2212-rtos.elf elf32-littlenios2)

.debug_ranges   0x00000000      0x9c8
 .debug_ranges  0x00000000       0x20 ../il2212-rtos_bsp//obj/HAL/src/crt0.o
 .debug_ranges  0x00000020       0x30 /opt/altera/13.0sp1/nios2eds/bin/gnu/H-i686-pc-linux-gnu/bin/../lib/gcc/nios2-elf/4.1.2/mno-hw-mul/pg/libgcc.a(_addsub_df.o)
 .debug_ranges  0x00000050       0x88 /opt/altera/13.0sp1/nios2eds/bin/gnu/H-i686-pc-linux-gnu/bin/../lib/gcc/nios2-elf/4.1.2/mno-hw-mul/pg/libgcc.a(_mul_df.o)
 .debug_ranges  0x000000d8       0x50 /opt/altera/13.0sp1/nios2eds/bin/gnu/H-i686-pc-linux-gnu/bin/../lib/gcc/nios2-elf/4.1.2/mno-hw-mul/pg/libgcc.a(_div_df.o)
 .debug_ranges  0x00000128       0x18 /opt/altera/13.0sp1/nios2eds/bin/gnu/H-i686-pc-linux-gnu/bin/../lib/gcc/nios2-elf/4.1.2/mno-hw-mul/pg/libgcc.a(_usi_to_df.o)
 .debug_ranges  0x00000140       0x58 /opt/altera/13.0sp1/nios2eds/bin/gnu/H-i686-pc-linux-gnu/bin/../lib/gcc/nios2-elf/4.1.2/mno-hw-mul/pg/libgcc.a(_muldi3.o)
 .debug_ranges  0x00000198       0x28 /opt/altera/13.0sp1/nios2eds/bin/gnu/H-i686-pc-linux-gnu/bin/../lib/gcc/nios2-elf/4.1.2/mno-hw-mul/pg/libgcc.a(_clzsi2.o)
 .debug_ranges  0x000001c0       0x28 /opt/altera/13.0sp1/nios2eds/bin/gnu/H-i686-pc-linux-gnu/bin/../lib/gcc/nios2-elf/4.1.2/mno-hw-mul/pg/libgcc.a(_pack_df.o)
 .debug_ranges  0x000001e8      0x168 /opt/altera/13.0sp1/nios2eds/bin/gnu/H-i686-pc-linux-gnu/bin/../lib/gcc/nios2-elf/4.1.2/../../../../nios2-elf/lib/mno-hw-mul/pg/libc.a(lib_a-vfprintf.o)
 .debug_ranges  0x00000350       0x20 /opt/altera/13.0sp1/nios2eds/bin/gnu/H-i686-pc-linux-gnu/bin/../lib/gcc/nios2-elf/4.1.2/../../../../nios2-elf/lib/mno-hw-mul/pg/libc.a(lib_a-fflush.o)
 .debug_ranges  0x00000370       0x28 /opt/altera/13.0sp1/nios2eds/bin/gnu/H-i686-pc-linux-gnu/bin/../lib/gcc/nios2-elf/4.1.2/../../../../nios2-elf/lib/mno-hw-mul/pg/libc.a(lib_a-fvwrite.o)
 .debug_ranges  0x00000398       0xa0 /opt/altera/13.0sp1/nios2eds/bin/gnu/H-i686-pc-linux-gnu/bin/../lib/gcc/nios2-elf/4.1.2/../../../../nios2-elf/lib/mno-hw-mul/pg/libc.a(lib_a-fwalk.o)
 .debug_ranges  0x00000438       0x70 /opt/altera/13.0sp1/nios2eds/bin/gnu/H-i686-pc-linux-gnu/bin/../lib/gcc/nios2-elf/4.1.2/../../../../nios2-elf/lib/mno-hw-mul/pg/libc.a(lib_a-mallocr.o)
 .debug_ranges  0x000004a8      0x110 /opt/altera/13.0sp1/nios2eds/bin/gnu/H-i686-pc-linux-gnu/bin/../lib/gcc/nios2-elf/4.1.2/../../../../nios2-elf/lib/mno-hw-mul/pg/libc.a(lib_a-reallocr.o)
 .debug_ranges  0x000005b8       0x38 /opt/altera/13.0sp1/nios2eds/bin/gnu/H-i686-pc-linux-gnu/bin/../lib/gcc/nios2-elf/4.1.2/../../../../nios2-elf/lib/mno-hw-mul/pg/libc.a(lib_a-callocr.o)
 .debug_ranges  0x000005f0      0x190 /opt/altera/13.0sp1/nios2eds/bin/gnu/H-i686-pc-linux-gnu/bin/../lib/gcc/nios2-elf/4.1.2/mno-hw-mul/pg/libgcc.a(_udivdi3.o)
 .debug_ranges  0x00000780      0x1c0 /opt/altera/13.0sp1/nios2eds/bin/gnu/H-i686-pc-linux-gnu/bin/../lib/gcc/nios2-elf/4.1.2/mno-hw-mul/pg/libgcc.a(_umoddi3.o)
 .debug_ranges  0x00000940       0x18 ../il2212-rtos_bsp//libucosii_bsp.a(altera_avalon_jtag_uart_init.o)
 .debug_ranges  0x00000958       0x28 ../il2212-rtos_bsp//libucosii_bsp.a(alt_irq_entry.o)
 .debug_ranges  0x00000980       0x30 ../il2212-rtos_bsp//libucosii_bsp.a(alt_exception_entry.o)
 .debug_ranges  0x000009b0       0x18 /opt/altera/13.0sp1/nios2eds/bin/gnu/H-i686-pc-linux-gnu/bin/../lib/gcc/nios2-elf/4.1.2/../../../../nios2-elf/lib/mno-hw-mul/pg/libc.a(lib_a-__call_atexit.o)
