
il2212-rtos.elf:     file format elf32-littlenios2
il2212-rtos.elf
architecture: nios2, flags 0x00000112:
EXEC_P, HAS_SYMS, D_PAGED
start address 0x010001ac

Program Header:
    LOAD off    0x00001000 vaddr 0x00080000 paddr 0x00080000 align 2**12
         filesz 0x00000020 memsz 0x00000020 flags r-x
    LOAD off    0x00001020 vaddr 0x00080020 paddr 0x01000000 align 2**12
         filesz 0x000001ac memsz 0x000001ac flags r-x
    LOAD off    0x000021ac vaddr 0x010001ac paddr 0x010001ac align 2**12
         filesz 0x0001a30c memsz 0x0001a30c flags r-x
    LOAD off    0x0001c4b8 vaddr 0x0101a4b8 paddr 0x010280ec align 2**12
         filesz 0x0000dc34 memsz 0x0000dc34 flags rw-
    LOAD off    0x0002ad20 vaddr 0x01035d20 paddr 0x01035d20 align 2**12
         filesz 0x00000000 memsz 0x00014254 flags rw-

Sections:
Idx Name          Size      VMA       LMA       File off  Algn
  0 .entry        00000020  00080000  00080000  00001000  2**5
                  CONTENTS, ALLOC, LOAD, READONLY, CODE
  1 .exceptions   000001ac  00080020  01000000  00001020  2**2
                  CONTENTS, ALLOC, LOAD, READONLY, CODE
  2 .text         00019c1c  010001ac  010001ac  000021ac  2**2
                  CONTENTS, ALLOC, LOAD, READONLY, CODE
  3 .rodata       000006f0  01019dc8  01019dc8  0001bdc8  2**2
                  CONTENTS, ALLOC, LOAD, READONLY, DATA
  4 .rwdata       0000dc34  0101a4b8  010280ec  0001c4b8  2**2
                  CONTENTS, ALLOC, LOAD, DATA, SMALL_DATA
  5 .bss          00014254  01035d20  01035d20  0002ad20  2**2
                  ALLOC, SMALL_DATA
  6 .comment      00000026  00000000  00000000  0002a0ec  2**0
                  CONTENTS, READONLY
  7 .debug_aranges 00000f18  00000000  00000000  0002a118  2**3
                  CONTENTS, READONLY, DEBUGGING
  8 .debug_pubnames 0000269a  00000000  00000000  0002b030  2**0
                  CONTENTS, READONLY, DEBUGGING
  9 .debug_info   00034f56  00000000  00000000  0002d6ca  2**0
                  CONTENTS, READONLY, DEBUGGING
 10 .debug_abbrev 00009f27  00000000  00000000  00062620  2**0
                  CONTENTS, READONLY, DEBUGGING
 11 .debug_line   0001e08e  00000000  00000000  0006c547  2**0
                  CONTENTS, READONLY, DEBUGGING
 12 .debug_frame  00002b68  00000000  00000000  0008a5d8  2**2
                  CONTENTS, READONLY, DEBUGGING
 13 .debug_str    0000271d  00000000  00000000  0008d140  2**0
                  CONTENTS, READONLY, DEBUGGING
 14 .debug_loc    0000dc53  00000000  00000000  0008f85d  2**0
                  CONTENTS, READONLY, DEBUGGING
 15 .debug_alt_sim_info 00000010  00000000  00000000  0009d4b0  2**2
                  CONTENTS, READONLY, DEBUGGING
 16 .debug_ranges 000009c8  00000000  00000000  0009d4c0  2**3
                  CONTENTS, READONLY, DEBUGGING
 17 .thread_model 00000006  00000000  00000000  000a34fa  2**0
                  CONTENTS, READONLY
 18 .cpu          00000005  00000000  00000000  000a3500  2**0
                  CONTENTS, READONLY
 19 .qsys         00000001  00000000  00000000  000a3505  2**0
                  CONTENTS, READONLY
 20 .simulation_enabled 00000001  00000000  00000000  000a3506  2**0
                  CONTENTS, READONLY
 21 .sysid_hash   00000004  00000000  00000000  000a3507  2**0
                  CONTENTS, READONLY
 22 .sysid_base   00000004  00000000  00000000  000a350b  2**0
                  CONTENTS, READONLY
 23 .sysid_time   00000004  00000000  00000000  000a350f  2**0
                  CONTENTS, READONLY
 24 .profiling_enabled 00000001  00000000  00000000  000a3513  2**0
                  CONTENTS, READONLY
 25 .stderr_dev   0000000b  00000000  00000000  000a3514  2**0
                  CONTENTS, READONLY
 26 .stdin_dev    0000000b  00000000  00000000  000a351f  2**0
                  CONTENTS, READONLY
 27 .stdout_dev   0000000b  00000000  00000000  000a352a  2**0
                  CONTENTS, READONLY
 28 .sopc_system_name 0000000b  00000000  00000000  000a3535  2**0
                  CONTENTS, READONLY
 29 .quartus_project_dir 00000040  00000000  00000000  000a3540  2**0
                  CONTENTS, READONLY
 30 .jdi          000175b7  00000000  00000000  000a3580  2**0
                  CONTENTS, READONLY
 31 .sopcinfo     00157894  00000000  00000000  000bab37  2**0
                  CONTENTS, READONLY
SYMBOL TABLE:
00080000 l    d  .entry	00000000 .entry
00080020 l    d  .exceptions	00000000 .exceptions
010001ac l    d  .text	00000000 .text
01019dc8 l    d  .rodata	00000000 .rodata
0101a4b8 l    d  .rwdata	00000000 .rwdata
01035d20 l    d  .bss	00000000 .bss
00000000 l    d  .comment	00000000 .comment
00000000 l    d  .debug_aranges	00000000 .debug_aranges
00000000 l    d  .debug_pubnames	00000000 .debug_pubnames
00000000 l    d  .debug_info	00000000 .debug_info
00000000 l    d  .debug_abbrev	00000000 .debug_abbrev
00000000 l    d  .debug_line	00000000 .debug_line
00000000 l    d  .debug_frame	00000000 .debug_frame
00000000 l    d  .debug_str	00000000 .debug_str
00000000 l    d  .debug_loc	00000000 .debug_loc
00000000 l    d  .debug_alt_sim_info	00000000 .debug_alt_sim_info
00000000 l    d  .debug_ranges	00000000 .debug_ranges
010001e4 l       .text	00000000 alt_after_alt_main
00000000 l    df *ABS*	00000000 alt_irq_handler.c
00000000 l    df *ABS*	00000000 cpu_0.c
01035e18 l     O .bss	00000018 alarm.3490
00000000 l    df *ABS*	00000000 libgcc2.c
00000000 l    df *ABS*	00000000 dp-bit.c
010017e4 l     F .text	0000041c _fpadd_parts
00000000 l    df *ABS*	00000000 dp-bit.c
00000000 l    df *ABS*	00000000 dp-bit.c
00000000 l    df *ABS*	00000000 dp-bit.c
00000000 l    df *ABS*	00000000 dp-bit.c
00000000 l    df *ABS*	00000000 lib2-divmod.c
010024e0 l     F .text	00000088 udivmodsi4
00000000 l    df *ABS*	00000000 lib2-mul.c
00000000 l    df *ABS*	00000000 libgcc2.c
00000000 l    df *ABS*	00000000 libgcc2.c
00000000 l    df *ABS*	00000000 dp-bit.c
00000000 l    df *ABS*	00000000 dp-bit.c
00000000 l    df *ABS*	00000000 libgcc2.c
00000000 l    df *ABS*	00000000 printf.c
00000000 l    df *ABS*	00000000 putchar.c
00000000 l    df *ABS*	00000000 puts.c
00000000 l    df *ABS*	00000000 strlen.c
00000000 l    df *ABS*	00000000 vfprintf.c
01002ee4 l     F .text	00000064 __sprint_r
0101a01e l     O .rodata	00000010 blanks.3452
0101a00e l     O .rodata	00000010 zeroes.3453
00000000 l    df *ABS*	00000000 wsetup.c
00000000 l    df *ABS*	00000000 dtoa.c
01004f90 l     F .text	00000250 quorem
00000000 l    df *ABS*	00000000 fflush.c
00000000 l    df *ABS*	00000000 findfp.c
010069e8 l     F .text	00000064 std
01006b3c l     F .text	00000014 __fp_lock
01006b50 l     F .text	00000014 __fp_unlock
00000000 l    df *ABS*	00000000 mallocr.c
00000000 l    df *ABS*	00000000 fvwrite.c
00000000 l    df *ABS*	00000000 fwalk.c
00000000 l    df *ABS*	00000000 impure.c
010264e4 l     O .rwdata	00000400 impure_data
00000000 l    df *ABS*	00000000 locale.c
01028028 l     O .rwdata	00000004 charset
0101a054 l     O .rodata	00000030 lconv
00000000 l    df *ABS*	00000000 makebuf.c
00000000 l    df *ABS*	00000000 mallocr.c
00000000 l    df *ABS*	00000000 memchr.c
00000000 l    df *ABS*	00000000 memcpy.c
00000000 l    df *ABS*	00000000 memmove.c
00000000 l    df *ABS*	00000000 memset.c
00000000 l    df *ABS*	00000000 mprec.c
0101a19c l     O .rodata	0000000c p05.2458
00000000 l    df *ABS*	00000000 putc.c
00000000 l    df *ABS*	00000000 mallocr.c
00000000 l    df *ABS*	00000000 s_isinfd.c
00000000 l    df *ABS*	00000000 s_isnand.c
00000000 l    df *ABS*	00000000 sbrkr.c
00000000 l    df *ABS*	00000000 stdio.c
00000000 l    df *ABS*	00000000 strcmp.c
00000000 l    df *ABS*	00000000 wbuf.c
00000000 l    df *ABS*	00000000 writer.c
00000000 l    df *ABS*	00000000 mallocr.c
00000000 l    df *ABS*	00000000 closer.c
00000000 l    df *ABS*	00000000 fclose.c
00000000 l    df *ABS*	00000000 fstatr.c
00000000 l    df *ABS*	00000000 int_errno.c
00000000 l    df *ABS*	00000000 isattyr.c
00000000 l    df *ABS*	00000000 lseekr.c
00000000 l    df *ABS*	00000000 readr.c
00000000 l    df *ABS*	00000000 libgcc2.c
00000000 l    df *ABS*	00000000 libgcc2.c
00000000 l    df *ABS*	00000000 dp-bit.c
00000000 l    df *ABS*	00000000 dp-bit.c
00000000 l    df *ABS*	00000000 dp-bit.c
00000000 l    df *ABS*	00000000 dp-bit.c
00000000 l    df *ABS*	00000000 dp-bit.c
00000000 l    df *ABS*	00000000 dp-bit.c
00000000 l    df *ABS*	00000000 dp-bit.c
00000000 l    df *ABS*	00000000 dp-bit.c
00000000 l    df *ABS*	00000000 alt_alarm_start.c
00000000 l    df *ABS*	00000000 alt_close.c
0100bd64 l     F .text	0000006c alt_get_errno
00000000 l    df *ABS*	00000000 alt_dev.c
0100bdd0 l     F .text	00000038 alt_dev_null_write
00000000 l    df *ABS*	00000000 alt_errno.c
00000000 l    df *ABS*	00000000 alt_fstat.c
0100beec l     F .text	0000006c alt_get_errno
00000000 l    df *ABS*	00000000 alt_isatty.c
0100c028 l     F .text	0000006c alt_get_errno
00000000 l    df *ABS*	00000000 alt_load.c
0100c120 l     F .text	00000078 alt_load_section
00000000 l    df *ABS*	00000000 alt_lseek.c
0100c298 l     F .text	0000006c alt_get_errno
00000000 l    df *ABS*	00000000 alt_main.c
00000000 l    df *ABS*	00000000 alt_read.c
0100c5a4 l     F .text	0000006c alt_get_errno
00000000 l    df *ABS*	00000000 alt_release_fd.c
00000000 l    df *ABS*	00000000 alt_sbrk.c
0102804c l     O .rwdata	00000004 heap_end
00000000 l    df *ABS*	00000000 alt_tick.c
00000000 l    df *ABS*	00000000 alt_write.c
0100ca40 l     F .text	0000006c alt_get_errno
00000000 l    df *ABS*	00000000 alt_env_lock.c
01028058 l     O .rwdata	00000004 lockid
01035d84 l     O .bss	00000004 locks
00000000 l    df *ABS*	00000000 alt_malloc_lock.c
0102805c l     O .rwdata	00000004 lockid
01035d8c l     O .bss	00000004 locks
00000000 l    df *ABS*	00000000 os_core.c
0100e5a8 l     F .text	00000050 OS_InitMisc
0100e5f8 l     F .text	00000078 OS_InitRdyList
0100e780 l     F .text	000000ec OS_InitTCBList
0100e4c0 l     F .text	000000e8 OS_InitEventList
0100e670 l     F .text	00000088 OS_InitTaskIdle
0100e6f8 l     F .text	00000088 OS_InitTaskStat
0100ea24 l     F .text	0000007c OS_SchedNew
00000000 l    df *ABS*	00000000 os_dbg.c
00000000 l    df *ABS*	00000000 os_flag.c
01010a88 l     F .text	0000011c OS_FlagTaskRdy
010107c8 l     F .text	000001d0 OS_FlagBlock
00000000 l    df *ABS*	00000000 os_mem.c
00000000 l    df *ABS*	00000000 os_q.c
00000000 l    df *ABS*	00000000 os_sem.c
00000000 l    df *ABS*	00000000 os_task.c
00000000 l    df *ABS*	00000000 os_time.c
00000000 l    df *ABS*	00000000 os_tmr.c
0101687c l     F .text	00000048 OSTmr_Lock
0101622c l     F .text	000000c8 OSTmr_Alloc
010168c4 l     F .text	00000040 OSTmr_Unlock
01016774 l     F .text	00000108 OSTmr_Unlink
010162f4 l     F .text	000000dc OSTmr_Free
01016604 l     F .text	00000170 OSTmr_Link
0101657c l     F .text	00000088 OSTmr_InitTask
01016904 l     F .text	0000013c OSTmr_Task
00000000 l    df *ABS*	00000000 alt_sys_init.c
01026ea0 l     O .rwdata	0000106c jtag_uart_0
01027f0c l     O .rwdata	00000014 mutex_0
01027f20 l     O .rwdata	00000014 mutex_1
01027f34 l     O .rwdata	00000014 mutex_2
01027f48 l     O .rwdata	00000014 mutex_3
01027f5c l     O .rwdata	00000014 mutex_4
01027f70 l     O .rwdata	0000002c Buttons
01027f9c l     O .rwdata	0000002c HEX3_HEX0
01027fc8 l     O .rwdata	0000002c HEX7_HEX4
01016cac l     F .text	00000044 alt_dev_reg
01016b80 l     F .text	000000c0 alt_avalon_mutex_reg
01016c40 l     F .text	0000006c alt_get_errno
00000000 l    df *ABS*	00000000 altera_avalon_jtag_uart_fd.c
00000000 l    df *ABS*	00000000 altera_avalon_jtag_uart_init.c
01016fa4 l     F .text	000002d4 altera_avalon_jtag_uart_irq
01017278 l     F .text	00000120 altera_avalon_jtag_uart_timeout
00000000 l    df *ABS*	00000000 altera_avalon_jtag_uart_ioctl.c
00000000 l    df *ABS*	00000000 altera_avalon_jtag_uart_read.c
00000000 l    df *ABS*	00000000 altera_avalon_jtag_uart_write.c
00000000 l    df *ABS*	00000000 altera_avalon_mutex.c
01017acc l     F .text	00000088 alt_mutex_trylock
01017bb8 l     F .text	0000006c alt_get_errno
00000000 l    df *ABS*	00000000 altera_avalon_performance_counter.c
00000000 l    df *ABS*	00000000 altera_avalon_timer_sc.c
01018070 l     F .text	00000080 alt_avalon_timer_sc_irq
00000000 l    df *ABS*	00000000 altera_avalon_timer_vars.c
00000000 l    df *ABS*	00000000 perf_print_formatted_report.c
00000000 l    df *ABS*	00000000 alt_dcache_flush_all.c
00000000 l    df *ABS*	00000000 alt_dev_llist_insert.c
0101850c l     F .text	0000006c alt_get_errno
00000000 l    df *ABS*	00000000 alt_do_ctors.c
00000000 l    df *ABS*	00000000 alt_do_dtors.c
00000000 l    df *ABS*	00000000 alt_find_dev.c
00000000 l    df *ABS*	00000000 alt_gmon.c
010280dc l     O .rwdata	00000004 pcsample_need_init
01035e04 l     O .bss	00000004 s_pcsamples
010280e0 l     O .rwdata	00000004 s_low_pc
010280e4 l     O .rwdata	00000004 s_high_pc
01035e08 l     O .bss	00000004 mcount_slab_ptr
01035e0c l     O .bss	00000004 mcount_slab_size
01018878 l     F .text	000000e4 nios2_pcsample_init
010187fc l     F .text	0000007c mcount_allocate
01035e58 l     O .bss	00000018 s_nios2_pcsample_alarm
0101895c l     F .text	00000084 nios2_pcsample
00000000 l    df *ABS*	00000000 alt_icache_flush_all.c
00000000 l    df *ABS*	00000000 alt_io_redirect.c
01018a08 l     F .text	000000e4 alt_open_fd
00000000 l    df *ABS*	00000000 alt_irq_register.c
00000000 l    df *ABS*	00000000 alt_irq_vars.c
00000000 l    df *ABS*	00000000 alt_open.c
01018d3c l     F .text	00000104 alt_file_locked
01018fd8 l     F .text	0000006c alt_get_errno
00000000 l    df *ABS*	00000000 altera_nios2_qsys_irq.c
00000040 l       *ABS*	00000000 OSCtxSw_SWITCH_PC
00000000 l    df *ABS*	00000000 os_cpu_c.c
00000014 l       *ABS*	00000000 OSTCBNext_OFFSET
00000032 l       *ABS*	00000000 OSTCBPrio_OFFSET
00000000 l       *ABS*	00000000 OSTCBStkPtr_OFFSET
01035e14 l     O .bss	00000002 OSTmrCtr
00000000 l    df *ABS*	00000000 alt_find_file.c
00000000 l    df *ABS*	00000000 alt_get_fd.c
00000000 l    df *ABS*	00000000 atexit.c
00000000 l    df *ABS*	00000000 exit.c
00000000 l    df *ABS*	00000000 memcmp.c
00000000 l    df *ABS*	00000000 __atexit.c
00000000 l    df *ABS*	00000000 __call_atexit.c
01019a84 l     F .text	00000010 register_fini
00000000 l    df *ABS*	00000000 libgcc2.c
00000000 l    df *ABS*	00000000 alt_exit.c
01019d00 l     F .text	0000008c alt_sim_halt
01002d5c g     F .text	00000028 putchar
01008994 g     F .text	000000a0 _mprec_log10
0100127c g     F .text	00000050 PosMaxTask
010280aa g     O .rwdata	00000002 OSTaskNameSize
01008a98 g     F .text	00000098 __any_on
0100a6e8 g     F .text	0000007c _isatty_r
0101a174 g     O .rodata	00000028 __mprec_tinytens
0100c304 g     F .text	000000d4 alt_main
01002d98 g     F .text	000000ac _puts_r
01035d94 g     O .bss	00000004 OSTmrFreeList
01049ce4 g     O .bss	00000100 alt_irq
0100a764 g     F .text	00000084 _lseek_r
010204ce g     O .rwdata	00003003 test_ppm_3
010113dc g     F .text	000000e0 OS_MemInit
010280ec g       *ABS*	00000000 __flash_rwdata_start
010155b4 g     F .text	00000070 OSTimeSet
0100b550 g     F .text	00000094 __eqdf2
01045e70 g     O .bss	00000010 OSTmrWheelTbl
0100d048 g     F .text	000006c0 OSEventPendMulti
01049f74 g       *ABS*	00000000 __alt_heap_start
0101945c g     F .text	0000002c OSTaskCreateHook
01035e70 g     O .bss	00002000 task1_stk
01002ccc g     F .text	00000050 printf
01028082 g     O .rwdata	00000002 OSMboxEn
0100d76c g     F .text	00000088 OSIntEnter
00080000 g       *ABS*	00000000 __alt_mem_sram
01009fc4 g     F .text	00000074 __sseek
01006a8c g     F .text	000000b0 __sinit
01018040 g     F .text	00000030 alt_get_cpu_freq
0100a1f4 g     F .text	0000013c __swbuf_r
01028092 g     O .rwdata	00000002 OSQEn
01007864 g     F .text	00000090 _setlocale_r
01006be0 g     F .text	000000a8 __sfmoreglue
0100cce0 g     F .text	000000dc __malloc_unlock
010194dc g     F .text	00000028 OSTaskStatHook
01035d98 g     O .bss	00000001 OSLockNesting
01035d9c g     O .bss	00000004 OSTmrSemSignal
01035d28 g     O .bss	00000004 PosMaxSem
010280d0 g     O .rwdata	00000002 OSDataSize
01035da0 g     O .bss	00000001 OSRunning
01035e00 g     O .bss	00000004 altera_avalon_timer_ts_freq
010083a4 g     F .text	000000ec memmove
0101957c g     F .text	0000002c OSInitHookBegin
01018184 g     F .text	000002a0 perf_print_formatted_report
010280c8 g     O .rwdata	00000002 OSTmrSize
01006bc4 g     F .text	0000001c _cleanup
01017cbc g     F .text	00000084 altera_avalon_mutex_trylock
01008b30 g     F .text	000000c8 _Balloc
01035da4 g     O .bss	00000004 OSIdleCtr
0100b678 g     F .text	00000094 __gtdf2
0101911c g       .text	00000000 OSStartTsk
00000000  w      *UND*	00000000 __errno
0100eda0 g     F .text	000002ec OS_TCBInit
01028019 g     O .rwdata	00000001 sequence_length
00080000 g     F .entry	0000000c __reset
01035da8 g     O .bss	00000002 OSTmrUsed
010280ce g     O .rwdata	00000002 OSTmrWheelTblSize
01017dbc g     F .text	00000088 altera_avalon_mutex_is_mine
01000000 g       *ABS*	00000000 __flash_exceptions_start
0102806e g     O .rwdata	00000002 OSEventSize
01035daa g     O .bss	00000001 OSPrioHighRdy
0100a668 g     F .text	00000080 _fstat_r
01019488 g     F .text	0000002c OSTaskDelHook
01035d68 g     O .bss	00000004 errno
010190fc g       .text	00000000 OSStartHighRdy
01013bfc g     F .text	0000020c OSTaskCreateExt
010012cc g     F .text	00000084 objectPos
010102c0 g     F .text	00000074 OSFlagPendGetFlagsRdy
010280ae g     O .rwdata	00000002 OSTaskStatStkSize
0100f284 g     F .text	00000340 OSFlagAccept
01011b48 g     F .text	000000d4 OSQFlush
010114bc g     F .text	00000160 OSQAccept
01035d74 g     O .bss	00000004 alt_argv
01030018 g       *ABS*	00000000 _gp
01013a1c g     F .text	000001e0 OSTaskCreate
0101349c g     F .text	00000580 OSTaskChangePrio
01035d90 g     O .bss	00000004 alt_heapsem
0100f08c g     F .text	000001f8 OSDebugInit
01013e08 g     F .text	00000418 OSTaskDel
01026d20 g     O .rwdata	00000180 alt_fd_list
01045e80 g     O .bss	00000370 OSFlagTbl
01002d84 g     F .text	00000014 _putchar_r
0100e278 g     F .text	000000c4 OS_EventTaskRemove
01018658 g     F .text	000000a0 alt_find_dev
010082f8 g     F .text	000000ac memcpy
01028098 g     O .rwdata	00000002 OSRdyTblSize
010461f0 g     O .bss	00000340 OSTmrTbl
01006bac g     F .text	00000018 _cleanup_r
0100b834 g     F .text	00000104 __floatsidf
01018aec g     F .text	00000084 alt_io_redirect
0100b7a0 g     F .text	00000094 __ltdf2
01019dc8 g       *ABS*	00000000 __DTOR_END__
01002e44 g     F .text	00000020 puts
0100cdbc g     F .text	0000013c OSEventNameGet
0102807c g     O .rwdata	00000002 OSFlagMax
01028018 g     O .rwdata	00000001 NR_ASCII_CHARS
010088d8 g     F .text	000000bc __ratio
0100d7f4 g     F .text	0000010c OSIntExit
010280b6 g     O .rwdata	00000002 OSTCBSize
010264d4 g     O .rwdata	00000010 image_sequence
01035dab g     O .bss	00000001 OSPrioCur
01017518 g     F .text	000002cc altera_avalon_jtag_uart_read
00000000  w      *UND*	00000000 malloc
01002d1c g     F .text	00000040 _printf_r
01002640 g     F .text	00000014 __udivsi3
0100bf58 g     F .text	000000d0 isatty
0102809c g     O .rwdata	00000002 OSStkWidth
0101a084 g     O .rodata	000000c8 __mprec_tens
01028090 g     O .rwdata	00000002 OSPtrSize
0100781c g     F .text	00000014 __locale_charset
01028070 g     O .rwdata	00000002 OSEventTblSize
01019c50 g     F .text	000000b0 __fixunsdfsi
01019070 g       .text	00000000 OSCtxSw
01035d5c g     O .bss	00000004 __malloc_top_pad
01035dac g     O .bss	00000004 OSTCBList
010161e4 g     F .text	00000048 OSTmrSignal
01017fc4 g     F .text	0000004c perf_get_num_starts
01035d6c g     O .bss	00000004 alt_fd_list_lock
01028024 g     O .rwdata	00000004 __mb_cur_max
01007830 g     F .text	00000018 _localeconv_r
010092d0 g     F .text	00000048 __i2b
010071dc g     F .text	000004a8 __sfvwrite_r
01046530 g     O .bss	00000c30 OSMemTbl
01035db0 g     O .bss	00000001 OSTickStepState
01009f34 g     F .text	0000007c _sbrk_r
01028094 g     O .rwdata	00000002 OSQMax
01047160 g     O .bss	00000800 OSTaskStatStk
010010e0 g     F .text	0000019c posMax
01010f94 g     F .text	00000118 OSMemNameGet
01028074 g     O .rwdata	00000002 OSFlagEn
0100a7e8 g     F .text	00000084 _read_r
010280ba g     O .rwdata	00000002 OSTimeTickHookEn
01035d2c g     O .bss	00000004 CalcCoordSem
010120d0 g     F .text	0000018c OSQPost
01010ba4 g     F .text	000000b8 OS_FlagUnlink
010268e4 g     O .rwdata	0000000c __lc_ctype
01028044 g     O .rwdata	00000004 alt_max_fd
0100e8cc g     F .text	00000078 OS_MemCopy
01035d30 g     O .bss	00000004 objectPosSem
0100e944 g     F .text	000000e0 OS_Sched
01002b88 g     F .text	00000144 __unpack_d
0100a52c g     F .text	0000011c _fclose_r
01010e84 g     F .text	00000110 OSMemGet
01014560 g     F .text	000001d0 OSTaskNameSet
010069a8 g     F .text	00000040 fflush
01035d60 g     O .bss	00000004 __malloc_max_sbrked_mem
01035db4 g     O .bss	00000004 OSCtxSwCtr
01019504 g     F .text	00000078 OSTimeTickHook
01018b70 g     F .text	000001cc alt_irq_register
0102807e g     O .rwdata	00000002 OSFlagNameSize
0100e33c g     F .text	00000110 OS_EventTaskRemoveMulti
01001c8c g     F .text	00000080 __adddf3
0100e118 g     F .text	00000160 OS_EventTaskWaitMulti
010087ac g     F .text	0000012c __b2d
01028096 g     O .rwdata	00000002 OSQSize
0100aee4 g     F .text	0000066c __umoddi3
0100c198 g     F .text	00000100 lseek
010002fc g     F .text	000001c8 printAsciiHidden
01017e44 g     F .text	00000064 altera_avalon_mutex_first_lock
01012d0c g     F .text	00000288 OSSemPend
01028020 g     O .rwdata	00000004 _global_impure_ptr
010098ac g     F .text	00000600 _realloc_r
01028080 g     O .rwdata	00000002 OSLowestPrio
01049f74 g       *ABS*	00000000 __bss_end
010195f8 g     F .text	0000002c OSTCBInitHook
010280c6 g     O .rwdata	00000002 OSTmrCfgTicksPerSec
0100c7f4 g     F .text	0000011c alt_tick
01001090 g     F .text	00000050 xCorr2Task
0100a86c g     F .text	00000678 __udivdi3
01028068 g     O .rwdata	00000002 OSEventEn
0101a14c g     O .rodata	00000028 __mprec_bigtens
0100957c g     F .text	0000012c __s2b
010280c2 g     O .rwdata	00000002 OSTmrCfgNameSize
01002340 g     F .text	000001a0 __floatunsidf
010086b4 g     F .text	0000006c __mcmp
01006b88 g     F .text	00000024 __fp_lock_all
0102801b g     O .rwdata	00000001 cropSIZE
01035db8 g     O .bss	00000002 OSTmrFree
01010998 g     F .text	000000f0 OS_FlagInit
0100c750 g     F .text	000000a4 alt_alarm_stop
01015814 g     F .text	00000184 OSTmrDel
010280a4 g     O .rwdata	00000002 OSTaskIdleStkSize
01035e10 g     O .bss	00000004 alt_irq_active
01012874 g     F .text	000000cc OSSemAccept
010111d8 g     F .text	000000fc OSMemPut
01010c5c g     F .text	00000228 OSMemCreate
01035dbc g     O .bss	00000004 OSIdleCtrMax
000800ec g     F .exceptions	000000e0 alt_irq_handler
01026cf8 g     O .rwdata	00000028 alt_dev_null
010280b8 g     O .rwdata	00000002 OSTicksPerSec
01017b54 g     F .text	00000064 altera_avalon_mutex_open
0101d4cb g     O .rwdata	00003003 test_ppm_2
01037e70 g     O .bss	00002000 xCorr2Task_stk
01019070 g       .text	00000000 OSIntCtxSw
01018424 g     F .text	00000028 alt_dcache_flush_all
01008568 g     F .text	0000007c __hi0bits
0100b938 g     F .text	000000e4 __fixdfsi
010001ac g       *ABS*	00000000 stext
01039e70 g     O .bss	00002000 GrayTask_stk
010186f8 g     F .text	00000104 __mcount_record
010234d1 g     O .rwdata	00003003 test_ppm_4
01035dc0 g     O .bss	00000004 OSTCBFreeList
010280ec g       *ABS*	00000000 __ram_rwdata_end
01012f94 g     F .text	00000188 OSSemPendAbort
0102803c g     O .rwdata	00000008 alt_dev_list
0100c910 g     F .text	00000130 write
01035d34 g     O .bss	00000004 xCorr2Sem
010097b8 g     F .text	000000f4 _putc_r
010280bc g     O .rwdata	00000002 OSVersionNbr
010280d4 g     O .rwdata	00000008 alt_mutex_list
0101a4b8 g       *ABS*	00000000 __ram_rodata_end
0100be08 g     F .text	000000e4 fstat
01015b10 g     F .text	00000208 OSTmrRemainGet
01028064 g     O .rwdata	00000004 OSEndiannessTest
01009450 g     F .text	0000012c __pow5mult
01035d50 g     O .bss	00000004 __nlocale_changed
01002654 g     F .text	00000014 __umodsi3
01028076 g     O .rwdata	00000002 OSFlagGrpSize
01015d18 g     F .text	00000108 OSTmrStateGet
01049f74 g       *ABS*	00000000 end
01016e68 g     F .text	0000013c altera_avalon_jtag_uart_init
0100ebf8 g     F .text	000000d4 OS_TaskStat
01019dc4 g       *ABS*	00000000 __CTOR_LIST__
01800000 g       *ABS*	00000000 __alt_stack_pointer
010180f0 g     F .text	00000094 alt_avalon_timer_sc_init
010027dc g     F .text	0000008c __clzsi2
010177e4 g     F .text	000002e8 altera_avalon_jtag_uart_write
010163d0 g     F .text	000001ac OSTmr_Init
01006a4c g     F .text	00000010 __sfp_lock_acquire
01019dc4 g       *ABS*	00000000 etext
01008208 g     F .text	000000f0 memchr
0100e86c g     F .text	00000060 OS_MemClr
01002f48 g     F .text	00001ed0 ___vfprintf_internal_r
01019140 g     F .text	0000031c OSTaskStkInit
01000500 g     F .text	0000010c task1
01000f3c g     F .text	00000154 xCorr2
01006ebc g     F .text	00000320 _free_r
0100de5c g     F .text	000001a0 OS_EventTaskRdy
01019a94 g     F .text	000001bc __call_exitprocs
01035dc4 g     O .bss	00000001 OSCPUUsage
01035d54 g     O .bss	00000004 __mlocale_changed
01028030 g     O .rwdata	00000004 __malloc_sbrk_base
010001ac g     F .text	0000003c _start
01035d7c g     O .bss	00000004 _alt_tick_rate
01011c1c g     F .text	0000032c OSQPend
01014f6c g     F .text	00000158 OSTimeDly
01001750 g     F .text	00000094 __floatundidf
01008f18 g     F .text	00000158 __lshift
01035d80 g     O .bss	00000004 _alt_nticks
0100c474 g     F .text	00000130 read
01016a80 g     F .text	00000100 alt_sys_init
01035d38 g     O .bss	00000004 CropSem
01019944 g     F .text	00000140 __register_exitproc
01035dc5 g     O .bss	00000001 OSTaskCtr
01027ff4 g     O .rwdata	00000024 alt_gmon_data
01017d40 g     F .text	0000007c altera_avalon_mutex_unlock
010150c4 g     F .text	00000264 OSTimeDlyHMSM
01009070 g     F .text	00000260 __multiply
0100c3d8 g       .text	00000000 mcount
01017398 g     F .text	00000080 altera_avalon_jtag_uart_close
01002668 g     F .text	00000044 __mulsi3
0101a4b8 g       *ABS*	00000000 __ram_rwdata_start
01019dc8 g       *ABS*	00000000 __ram_rodata_start
01035e30 g     O .bss	00000028 __malloc_current_mallinfo
0102806a g     O .rwdata	00000002 OSEventMax
01008bf8 g     F .text	00000188 __d2b
0101311c g     F .text	00000134 OSSemPost
0100d998 g     F .text	000000f0 OSSchedUnlock
01016cf0 g     F .text	00000064 altera_avalon_jtag_uart_read_fd
01019750 g     F .text	00000110 alt_get_fd
01035dc8 g     O .bss	00000004 OSMemFreeList
0100db04 g     F .text	000000b8 OSStatInit
010106e8 g     F .text	000000e0 OSFlagQuery
0100ba1c g     F .text	000000dc __fpcmp_parts_d
010280a0 g     O .rwdata	00000002 OSTaskCreateExtEn
0100a4b0 g     F .text	0000007c _close_r
01017ea8 g     F .text	000000bc perf_get_section_time
010198c4 g     F .text	00000080 memcmp
0100de34 g     F .text	00000028 OS_Dummy
01016db8 g     F .text	00000054 altera_avalon_jtag_uart_close_fd
01049f74 g       *ABS*	00000000 __alt_stack_base
01016e0c g     F .text	0000005c altera_avalon_jtag_uart_ioctl_fd
01000bac g     F .text	0000011c crop
01004e48 g     F .text	00000148 __swsetup_r
01047960 g     O .bss	000001e0 OSQTbl
010020dc g     F .text	00000264 __divdf3
0103be70 g     O .bss	00002000 CropTask_stk
01006c88 g     F .text	000000fc __sfp
01008a34 g     F .text	00000064 __copybits
01017f64 g     F .text	00000060 perf_get_total_time
010268f0 g     O .rwdata	00000408 __malloc_av_
01006a7c g     F .text	00000010 __sinit_lock_release
01035dcc g     O .bss	00000004 OSTCBHighRdy
01001d0c g     F .text	000003d0 __muldf3
0100a0c0 g     F .text	0000006c __sread
01035d24 g     O .bss	00000004 counter
01035dd0 g     O .bss	00000004 OSQFreeList
01019624 g     F .text	0000012c alt_find_file
0101844c g     F .text	000000c0 alt_dev_llist_insert
0100cbcc g     F .text	00000114 __malloc_lock
0100c694 g     F .text	000000bc sbrk
0100cef8 g     F .text	00000150 OSEventNameSet
010067a0 g     F .text	00000208 _fflush_r
0100a3dc g     F .text	000000d4 _calloc_r
01035dd4 g     O .bss	00000001 OSRdyGrp
01015e20 g     F .text	0000018c OSTmrStart
01035d20 g       *ABS*	00000000 __bss_start
01000b2c g     F .text	00000080 CalcCoordTask
01008490 g     F .text	000000a4 memset
01035d3c g     O .bss	00000001 err
01001688 g     F .text	000000c8 main
01035d78 g     O .bss	00000004 alt_envp
01035d64 g     O .bss	00000004 __malloc_max_total_mem
01016d54 g     F .text	00000064 altera_avalon_jtag_uart_write_fd
0100a330 g     F .text	00000028 __swbuf
0101a1c8 g     O .rodata	00000100 OSUnMapTbl
0102809a g     O .rwdata	00000002 OSSemEn
01010334 g     F .text	000003b4 OSFlagPost
01009fb0 g     F .text	00000014 __sclose
01800000 g       *ABS*	00000000 __alt_heap_limit
0100a648 g     F .text	00000020 fclose
0100dffc g     F .text	0000011c OS_EventTaskWait
0100eccc g     F .text	000000d4 OS_TaskStatStkChk
01049de4 g     O .bss	00000190 _atexit0
01017c50 g     F .text	0000006c altera_avalon_mutex_lock
01014220 g     F .text	0000017c OSTaskDelReq
010051e0 g     F .text	000015c0 _dtoa_r
01007abc g     F .text	0000074c _malloc_r
01028048 g     O .rwdata	00000004 alt_errno
0100da88 g     F .text	0000007c OSStart
0100cb64 g     F .text	00000068 __env_unlock
01007758 g     F .text	000000c4 _fwalk
0103de70 g     O .bss	00002000 StartTask_Stack
01014730 g     F .text	00000224 OSTaskResume
010112d4 g     F .text	00000108 OSMemQuery
010280ac g     O .rwdata	00000002 OSTaskStatEn
01028086 g     O .rwdata	00000002 OSMemMax
0101225c g     F .text	00000194 OSQPostFront
010096a8 g     F .text	00000110 putc
01002568 g     F .text	0000006c __divsi3
01035dd5 g     O .bss	00000003 OSRdyTbl
01028060 g     O .rwdata	00000002 OSDebugEn
01019e98 g     O .rodata	00000014 __thenan_df
01006d84 g     F .text	00000138 _malloc_trim_r
01019dc8 g       *ABS*	00000000 __CTOR_END__
01028078 g     O .rwdata	00000002 OSFlagNodeSize
010280c0 g     O .rwdata	00000002 OSTmrCfgMax
0100a12c g     F .text	000000c8 strcmp
0101161c g     F .text	00000220 OSQCreate
0101439c g     F .text	000001c4 OSTaskNameGet
0103fe70 g     O .bss	00002000 ObjectPosTask_stk
01019dc8 g       *ABS*	00000000 __flash_rodata_start
010123f0 g     F .text	00000240 OSQPostOpt
0100dbbc g     F .text	0000024c OSTimeTick
010280a8 g     O .rwdata	00000002 OSTaskMax
01019dc8 g       *ABS*	00000000 __DTOR_LIST__
01012940 g     F .text	00000120 OSSemCreate
010280cc g     O .rwdata	00000002 OSTmrWheelSize
01035d40 g     O .bss	00000004 delay
0100b5e4 g     F .text	00000094 __nedf2
010280a2 g     O .rwdata	00000002 OSTaskDelEn
0101a4c8 g     O .rwdata	00003003 test_ppm_1
01013250 g     F .text	0000013c OSSemQuery
0101183c g     F .text	0000030c OSQDel
01011f48 g     F .text	00000188 OSQPendAbort
01016a40 g     F .text	00000040 alt_irq_init
0100c610 g     F .text	00000084 alt_release_fd
00102000 g       *ABS*	00000000 __alt_mem_shared_onchip
01019eac g     O .rodata	00000100 __clz_tab
010001e8 g     F .text	00000114 printAscii
01035d58 g     O .bss	00000004 _PathLocale
01015fac g     F .text	00000238 OSTmrStop
01019860 g     F .text	00000020 atexit
0100a358 g     F .text	00000084 _write_r
0100d900 g     F .text	00000098 OSSchedLock
010078f4 g     F .text	00000028 setlocale
01047b40 g     O .bss	00000800 OSTmrTaskStk
0100f5c4 g     F .text	00000148 OSFlagCreate
01035d44 g     O .bss	00000004 Task1TmrSem
010009cc g     F .text	00000160 CalcCoord
0102801c g     O .rwdata	00000004 _impure_ptr
01035d48 g     O .bss	00000004 GrayedSem
01035d70 g     O .bss	00000004 alt_argc
01035dfc g     O .bss	00000004 altera_avalon_timer_ts_base
010185e8 g     F .text	00000070 _do_dtors
01028072 g     O .rwdata	00000002 OSEventMultiEn
01015624 g     F .text	000001f0 OSTmrCreate
0100f70c g     F .text	000002b4 OSFlagDel
01035dd8 g     O .bss	00000004 OSEventFreeList
00080020 g       .exceptions	00000000 alt_irq_entry
01008720 g     F .text	0000008c __ulp
01009eac g     F .text	0000004c __isinfd
0100fc70 g     F .text	00000650 OSFlagPend
010280be g     O .rwdata	00000002 OSTmrEn
01006b64 g     F .text	00000024 __fp_unlock_all
01041e70 g     O .bss	00002000 PosMaxTask_stk
01028034 g     O .rwdata	00000008 alt_fs_list
01015998 g     F .text	00000178 OSTmrNameGet
0100eaa0 g     F .text	0000008c OS_StrCopy
01028088 g     O .rwdata	00000002 OSMemNameSize
010195a8 g     F .text	00000028 OSInitHookEnd
00080020 g       *ABS*	00000000 __ram_exceptions_start
010280b4 g     O .rwdata	00000002 OSTCBPrioTblMax
01007848 g     F .text	0000001c localeconv
010280b0 g     O .rwdata	00000002 OSTaskStatStkChkEn
010004c4 g     F .text	0000003c alarm_handler
01028084 g     O .rwdata	00000002 OSMemEn
0102808e g     O .rwdata	00000002 OSMutexEn
010280ec g       *ABS*	00000000 _edata
01049f74 g       *ABS*	00000000 _end
01035ddc g     O .bss	00000001 OSIntNesting
000801cc g       *ABS*	00000000 __ram_exceptions_end
01017418 g     F .text	00000100 altera_avalon_jtag_uart_ioctl
01015328 g     F .text	0000021c OSTimeDlyResume
0100fb10 g     F .text	00000160 OSFlagNameSet
01014954 g     F .text	00000208 OSTaskStkChk
0102808a g     O .rwdata	00000002 OSMemSize
0100a038 g     F .text	00000088 __swrite
0102802c g     O .rwdata	00000004 __malloc_trim_threshold
01018010 g     F .text	00000030 alt_get_performance_counter_base
01019044 g     F .text	0000002c altera_nios2_qsys_irq_init
01035de0 g     O .bss	00000004 OSTCBCur
01019880 g     F .text	00000044 exit
0102808c g     O .rwdata	00000002 OSMemTblSize
01007684 g     F .text	000000d4 _fwalk_reent
01008d80 g     F .text	00000198 __mdiff
010025d4 g     F .text	0000006c __modsi3
0102801a g     O .rwdata	00000001 dSPAN
01035d20 g     O .bss	00000004 current_image
01800000 g       *ABS*	00000000 __alt_data_end
00080020 g     F .exceptions	00000000 alt_exception
01006a5c g     F .text	00000010 __sfp_lock_release
0100d708 g     F .text	00000064 OSInit
01035de4 g     O .bss	00000004 OSTmrTime
01000000 g       *ABS*	00000000 __alt_mem_sdram
01014d94 g     F .text	00000150 OSTaskQuery
010127bc g     F .text	000000b8 OS_QInit
0100eb2c g     F .text	00000064 OS_StrLen
010110ac g     F .text	0000012c OSMemNameSet
010280a6 g     O .rwdata	00000002 OSTaskProfileEn
01035de8 g     O .bss	00000004 OSTime
01035dec g     O .bss	00000004 OSTmrSem
01048340 g     O .bss	00000800 OSTaskIdleStk
01019d8c g     F .text	00000038 _exit
01009ef8 g     F .text	0000003c __isnand
01043e70 g     O .bss	00002000 CalcCoordTask_stk
0100f9c0 g     F .text	00000150 OSFlagNameGet
0100baf8 g     F .text	00000160 alt_alarm_start
01015544 g     F .text	00000070 OSTimeGet
010026ac g     F .text	00000130 __muldi3
01049be4 g     O .bss	00000100 __mcount_fn_head
0100791c g     F .text	000001a0 __smakebuf_r
0100060c g     F .text	000001cc Grayscale
01002e64 g     F .text	00000080 strlen
010194b4 g     F .text	00000028 OSTaskSwHook
01018e40 g     F .text	00000198 open
01048b40 g     O .bss	00000b40 OSEventTbl
0100b70c g     F .text	00000094 __gedf2
01049680 g     O .bss	00000510 OSTCBTbl
0101338c g     F .text	00000110 OSSemSet
01000cc8 g     F .text	00000074 CropTask
010013e0 g     F .text	000002a8 StartTask
010189e0 g     F .text	00000028 alt_icache_flush_all
010007d8 g     F .text	000001f4 GrayTask
010280e8 g     O .rwdata	00000004 alt_priority_mask
01001350 g     F .text	00000090 ObjectPosTask
01012a60 g     F .text	000002ac OSSemDel
01035df0 g     O .bss	00000004 OSFlagFreeList
0102806c g     O .rwdata	00000002 OSEventNameSize
01004e18 g     F .text	00000030 __vfprintf_internal
01035df4 g     O .bss	00000001 OSStatRdy
01017c24 g     F .text	0000002c altera_avalon_mutex_close
01049b90 g     O .bss	00000054 OSTCBPrioTbl
0100caac g     F .text	000000b8 __env_lock
010280b2 g     O .rwdata	00000002 OSTaskSwHookEn
01001c00 g     F .text	0000008c __subdf3
010085e4 g     F .text	000000d0 __lo0bits
0100c3d8 g       .text	00000000 _mcount
01028050 g     O .rwdata	00000008 alt_alarm_list
0102807a g     O .rwdata	00000002 OSFlagWidth
01018578 g     F .text	00000070 _do_ctors
01000d3c g     F .text	00000200 stencilmat
0100bc58 g     F .text	0000010c close
01035d88 g     O .bss	00000004 alt_envsem
01035df8 g     O .bss	00000004 OSIdleCtrRun
0100de08 g     F .text	0000002c OSVersion
010280c4 g     O .rwdata	00000002 OSTmrCfgWheelSize
0100c094 g     F .text	0000008c alt_load
01014ee4 g     F .text	00000088 OS_TaskStkClr
01002868 g     F .text	00000320 __pack_d
0102809e g     O .rwdata	00000002 OSTaskCreateEn
01035d4c g     O .bss	00000004 Task1Sem
0100e44c g     F .text	00000074 OS_EventWaitListInit
0101a4b8 g     O .rwdata	00000010 asciiChars
010195d0 g     F .text	00000028 OSTaskIdleHook
00000000  w      *UND*	00000000 free
01006a6c g     F .text	00000010 __sinit_lock_acquire
01009318 g     F .text	00000138 __multadd
01014b5c g     F .text	00000238 OSTaskSuspend
01008534 g     F .text	00000034 _Bfree
0100eb90 g     F .text	00000068 OS_TaskIdle
010280ca g     O .rwdata	00000002 OSTmrTblSize
01012630 g     F .text	0000018c OSQQuery



Disassembly of section .entry:

00080000 <__reset>:
 * Jump to the _start entry point in the .text section if reset code
 * is allowed or if optimizing for RTL simulation.
 */
#if defined(ALT_ALLOW_CODE_AT_RESET) || defined(ALT_SIM_OPTIMIZE)
    /* Jump to the _start entry point in the .text section. */
    movhi r1, %hi(_start)
   80000:	00404034 	movhi	at,256
    ori r1, r1, %lo(_start)
   80004:	08406b14 	ori	at,at,428
    jmp r1
   80008:	0800683a 	jmp	at
	...

Disassembly of section .exceptions:

00080020 <alt_exception>:
         * Process an exception.  For all exceptions we must preserve all
         * caller saved registers on the stack (See the Nios2 ABI
         * documentation for details).
         */

        addi  sp, sp, -76
   80020:	deffed04 	addi	sp,sp,-76

#endif

#endif

        stw   ra,  0(sp)
   80024:	dfc00015 	stw	ra,0(sp)
        /*
         * Leave a gap in the stack frame at 4(sp) for the muldiv handler to
         * store zero into.
         */

        stw   r1,   8(sp)
   80028:	d8400215 	stw	at,8(sp)
        stw   r2,  12(sp)
   8002c:	d8800315 	stw	r2,12(sp)
        stw   r3,  16(sp)
   80030:	d8c00415 	stw	r3,16(sp)
        stw   r4,  20(sp)
   80034:	d9000515 	stw	r4,20(sp)
        stw   r5,  24(sp)
   80038:	d9400615 	stw	r5,24(sp)
        stw   r6,  28(sp)
   8003c:	d9800715 	stw	r6,28(sp)
        stw   r7,  32(sp)
   80040:	d9c00815 	stw	r7,32(sp)

        rdctl r5, estatus
   80044:	000b307a 	rdctl	r5,estatus

        stw   r8,  36(sp)
   80048:	da000915 	stw	r8,36(sp)
        stw   r9,  40(sp)
   8004c:	da400a15 	stw	r9,40(sp)
        stw   r10, 44(sp)
   80050:	da800b15 	stw	r10,44(sp)
        stw   r11, 48(sp)
   80054:	dac00c15 	stw	r11,48(sp)
        stw   r12, 52(sp)
   80058:	db000d15 	stw	r12,52(sp)
        stw   r13, 56(sp)
   8005c:	db400e15 	stw	r13,56(sp)
        stw   r14, 60(sp)
   80060:	db800f15 	stw	r14,60(sp)
        stw   r15, 64(sp)
   80064:	dbc01015 	stw	r15,64(sp)
        /*
         * ea-4 contains the address of the instruction being executed
         * when the exception occured. For interrupt exceptions, we will
         * will be re-issue the isntruction. Store it in 72(sp)
         */
        stw   r5,  68(sp)  /* estatus */
   80068:	d9401115 	stw	r5,68(sp)
        addi  r15, ea, -4  /* instruction that caused exception */
   8006c:	ebffff04 	addi	r15,ea,-4
        stw   r15,  72(sp)
   80070:	dbc01215 	stw	r15,72(sp)
#else
        /*
         * Test to see if the exception was a software exception or caused 
         * by an external interrupt, and vector accordingly.
         */
        rdctl r4, ipending
   80074:	0009313a 	rdctl	r4,ipending
        andi  r2, r5, 1
   80078:	2880004c 	andi	r2,r5,1
        beq   r2, zero, .Lnot_irq
   8007c:	10000326 	beq	r2,zero,8008c <alt_exception+0x6c>
        beq   r4, zero, .Lnot_irq
   80080:	20000226 	beq	r4,zero,8008c <alt_exception+0x6c>
        /*
         * Now that all necessary registers have been preserved, call 
         * alt_irq_handler() to process the interrupts.
         */

        call alt_irq_handler
   80084:	00800ec0 	call	800ec <alt_irq_handler>

        .section .exceptions.irqreturn, "xa"

        br    .Lexception_exit
   80088:	00000306 	br	80098 <alt_exception+0x78>
         * upon completion, so we write ea (address of instruction *after*
         * the one where the exception occured) into 72(sp). The actual
         * instruction that caused the exception is written in r2, which these
         * handlers will utilize.
         */
        stw   ea,  72(sp)  /* Don't re-issue */
   8008c:	df401215 	stw	ea,72(sp)
        ldw   r2, -4(ea)   /* Instruction that caused exception */
   80090:	e8bfff17 	ldw	r2,-4(ea)
#ifdef NIOS2_HAS_DEBUG_STUB
       /*
        *  Either tell the user now (if there is a debugger attached) or go into
        *  the debug monitor which will loop until a debugger is attached.
        */
        break
   80094:	003da03a 	break	0
        /* 
         * Restore the saved registers, so that all general purpose registers 
         * have been restored to their state at the time the interrupt occured.
         */

        ldw   r5,  68(sp)
   80098:	d9401117 	ldw	r5,68(sp)
        ldw   ea,  72(sp)  /* This becomes the PC once eret is executed */
   8009c:	df401217 	ldw	ea,72(sp)
        ldw   ra,   0(sp)
   800a0:	dfc00017 	ldw	ra,0(sp)

        wrctl estatus, r5
   800a4:	2801707a 	wrctl	estatus,r5

        ldw   r1,   8(sp)
   800a8:	d8400217 	ldw	at,8(sp)
        ldw   r2,  12(sp)
   800ac:	d8800317 	ldw	r2,12(sp)
        ldw   r3,  16(sp)
   800b0:	d8c00417 	ldw	r3,16(sp)
        ldw   r4,  20(sp)
   800b4:	d9000517 	ldw	r4,20(sp)
        ldw   r5,  24(sp)
   800b8:	d9400617 	ldw	r5,24(sp)
        ldw   r6,  28(sp)
   800bc:	d9800717 	ldw	r6,28(sp)
        ldw   r7,  32(sp)
   800c0:	d9c00817 	ldw	r7,32(sp)
#ifdef ALT_STACK_CHECK
        ldw   et, %gprel(alt_exception_old_stack_limit)(gp)
#endif
#endif

        ldw   r8,  36(sp)
   800c4:	da000917 	ldw	r8,36(sp)
        ldw   r9,  40(sp)
   800c8:	da400a17 	ldw	r9,40(sp)
        ldw   r10, 44(sp)
   800cc:	da800b17 	ldw	r10,44(sp)
        ldw   r11, 48(sp)
   800d0:	dac00c17 	ldw	r11,48(sp)
        ldw   r12, 52(sp)
   800d4:	db000d17 	ldw	r12,52(sp)
        ldw   r13, 56(sp)
   800d8:	db400e17 	ldw	r13,56(sp)
        ldw   r14, 60(sp)
   800dc:	db800f17 	ldw	r14,60(sp)
        ldw   r15, 64(sp)
   800e0:	dbc01017 	ldw	r15,64(sp)
#endif

        ldw   sp,  76(sp)

#else
        addi  sp, sp, 76
   800e4:	dec01304 	addi	sp,sp,76

        /*
         * Return to the interrupted instruction.
         */

        eret
   800e8:	ef80083a 	eret

000800ec <alt_irq_handler>:
 * instruction is present if the macro ALT_CI_INTERRUPT_VECTOR defined.
 */

void alt_irq_handler (void) __attribute__ ((section (".exceptions")));
void alt_irq_handler (void)
{
   800ec:	f811883a 	mov	r8,ra
   800f0:	100c3d80 	call	100c3d8 <_mcount>
   800f4:	403f883a 	mov	ra,r8
   800f8:	defff904 	addi	sp,sp,-28
   800fc:	dfc00615 	stw	ra,24(sp)
   80100:	df000515 	stw	fp,20(sp)
   80104:	df000504 	addi	fp,sp,20
  
  /*
   * Notify the operating system that we are at interrupt level.
   */ 
  
  ALT_OS_INT_ENTER();
   80108:	100d76c0 	call	100d76c <OSIntEnter>
#ifndef NIOS2_EIC_PRESENT
static ALT_INLINE alt_u32 ALT_ALWAYS_INLINE alt_irq_pending (void)
{
  alt_u32 active;

  NIOS2_READ_IPENDING (active);
   8010c:	0005313a 	rdctl	r2,ipending
   80110:	e0bffc15 	stw	r2,-16(fp)

  return active;
   80114:	e0bffc17 	ldw	r2,-16(fp)
   * Consider the case where the high priority interupt is asserted during
   * the interrupt entry sequence for a lower priority interrupt to see why
   * this is the case.
   */

  active = alt_irq_pending ();
   80118:	e0bfff15 	stw	r2,-4(fp)

  do
  {
    i = 0;
   8011c:	e03ffd15 	stw	zero,-12(fp)
    mask = 1;
   80120:	00800044 	movi	r2,1
   80124:	e0bffe15 	stw	r2,-8(fp)
     * called to clear the interrupt condition.
     */

    do
    {
      if (active & mask)
   80128:	e0ffff17 	ldw	r3,-4(fp)
   8012c:	e0bffe17 	ldw	r2,-8(fp)
   80130:	1884703a 	and	r2,r3,r2
   80134:	1005003a 	cmpeq	r2,r2,zero
   80138:	1000171e 	bne	r2,zero,80198 <alt_irq_handler+0xac>
      { 
#ifdef ALT_ENHANCED_INTERRUPT_API_PRESENT
        alt_irq[i].handler(alt_irq[i].context); 
#else
        alt_irq[i].handler(alt_irq[i].context, i); 
   8013c:	e0bffd17 	ldw	r2,-12(fp)
   80140:	00c04174 	movhi	r3,261
   80144:	18e73904 	addi	r3,r3,-25372
   80148:	100490fa 	slli	r2,r2,3
   8014c:	10c5883a 	add	r2,r2,r3
   80150:	11800017 	ldw	r6,0(r2)
   80154:	e0bffd17 	ldw	r2,-12(fp)
   80158:	00c04174 	movhi	r3,261
   8015c:	18e73904 	addi	r3,r3,-25372
   80160:	100490fa 	slli	r2,r2,3
   80164:	10c5883a 	add	r2,r2,r3
   80168:	10800104 	addi	r2,r2,4
   8016c:	11000017 	ldw	r4,0(r2)
   80170:	e17ffd17 	ldw	r5,-12(fp)
   80174:	303ee83a 	callr	r6
#ifndef NIOS2_EIC_PRESENT
static ALT_INLINE alt_u32 ALT_ALWAYS_INLINE alt_irq_pending (void)
{
  alt_u32 active;

  NIOS2_READ_IPENDING (active);
   80178:	0005313a 	rdctl	r2,ipending
   8017c:	e0bffb15 	stw	r2,-20(fp)

  return active;
   80180:	e0bffb17 	ldw	r2,-20(fp)
      mask <<= 1;
      i++;

    } while (1);

    active = alt_irq_pending ();
   80184:	e0bfff15 	stw	r2,-4(fp)
    
  } while (active);
   80188:	e0bfff17 	ldw	r2,-4(fp)
   8018c:	1004c03a 	cmpne	r2,r2,zero
   80190:	103fe21e 	bne	r2,zero,8011c <alt_irq_handler+0x30>
   80194:	00000706 	br	801b4 <alt_irq_handler+0xc8>
#else
        alt_irq[i].handler(alt_irq[i].context, i); 
#endif
        break;
      }
      mask <<= 1;
   80198:	e0bffe17 	ldw	r2,-8(fp)
   8019c:	1085883a 	add	r2,r2,r2
   801a0:	e0bffe15 	stw	r2,-8(fp)
      i++;
   801a4:	e0bffd17 	ldw	r2,-12(fp)
   801a8:	10800044 	addi	r2,r2,1
   801ac:	e0bffd15 	stw	r2,-12(fp)

    } while (1);
   801b0:	003fdd06 	br	80128 <alt_irq_handler+0x3c>

  /*
   * Notify the operating system that interrupt processing is complete.
   */ 

  ALT_OS_INT_EXIT();
   801b4:	100d7f40 	call	100d7f4 <OSIntExit>
}
   801b8:	e037883a 	mov	sp,fp
   801bc:	dfc00117 	ldw	ra,4(sp)
   801c0:	df000017 	ldw	fp,0(sp)
   801c4:	dec00204 	addi	sp,sp,8
   801c8:	f800283a 	ret

Disassembly of section .text:

010001ac <_start>:
#if (NIOS2_NUM_OF_SHADOW_REG_SETS == 0)    
    /*
     * Now that the caches are initialized, set up the stack pointer.
     * The value provided by the linker is assumed to be correctly aligned.
     */
    movhi sp, %hi(__alt_stack_pointer)
 10001ac:	06c06034 	movhi	sp,384
    ori sp, sp, %lo(__alt_stack_pointer)
 10001b0:	dec00014 	ori	sp,sp,0

    /* Set up the global pointer. */
    movhi gp, %hi(_gp)
 10001b4:	068040f4 	movhi	gp,259
    ori gp, gp, %lo(_gp)
 10001b8:	d6800614 	ori	gp,gp,24
 */
#ifndef ALT_SIM_OPTIMIZE
    /* Log that the BSS is about to be cleared. */
    ALT_LOG_PUTS(alt_log_msg_bss)

    movhi r2, %hi(__bss_start)
 10001bc:	008040f4 	movhi	r2,259
    ori r2, r2, %lo(__bss_start)
 10001c0:	10974814 	ori	r2,r2,23840

    movhi r3, %hi(__bss_end)
 10001c4:	00c04134 	movhi	r3,260
    ori r3, r3, %lo(__bss_end)
 10001c8:	18e7dd14 	ori	r3,r3,40820

    beq r2, r3, 1f
 10001cc:	10c00326 	beq	r2,r3,10001dc <_start+0x30>

0:
    stw zero, (r2)
 10001d0:	10000015 	stw	zero,0(r2)
    addi r2, r2, 4
 10001d4:	10800104 	addi	r2,r2,4
    bltu r2, r3, 0b
 10001d8:	10fffd36 	bltu	r2,r3,10001d0 <_start+0x24>
     * section aren't defined until alt_load() has been called).
     */
    mov   et, zero
#endif

    call alt_load
 10001dc:	100c0940 	call	100c094 <alt_load>

    /* Log that alt_main is about to be called. */
    ALT_LOG_PUTS(alt_log_msg_alt_main)

    /* Call the C entry point. It should never return. */
    call alt_main
 10001e0:	100c3040 	call	100c304 <alt_main>

010001e4 <alt_after_alt_main>:

    /* Wait in infinite loop in case alt_main does return. */
alt_after_alt_main:
    br alt_after_alt_main
 10001e4:	003fff06 	br	10001e4 <alt_after_alt_main>

010001e8 <printAscii>:
 * @brief Prints out an image of gray values into ASCII art format
 * @param image pointer to an image
 * @param x_dim image X dimention
 * @param y_dim image Y dimention
 */
void printAscii(unsigned int* image, int x_dim, int y_dim) {
 10001e8:	f811883a 	mov	r8,ra
 10001ec:	100c3d80 	call	100c3d8 <_mcount>
 10001f0:	403f883a 	mov	ra,r8
 10001f4:	defff804 	addi	sp,sp,-32
 10001f8:	dfc00715 	stw	ra,28(sp)
 10001fc:	df000615 	stw	fp,24(sp)
 1000200:	df000604 	addi	fp,sp,24
 1000204:	e13ffd15 	stw	r4,-12(fp)
 1000208:	e17ffe15 	stw	r5,-8(fp)
 100020c:	e1bfff15 	stw	r6,-4(fp)
  int k = 0;
 1000210:	e03ffc15 	stw	zero,-16(fp)
  int l = 0;
 1000214:	e03ffb15 	stw	zero,-20(fp)
  for(k = 0; k < y_dim; k++) {
 1000218:	e03ffc15 	stw	zero,-16(fp)
 100021c:	00002f06 	br	10002dc <printAscii+0xf4>
    for(l = 0; l < x_dim; l++) {
 1000220:	e03ffb15 	stw	zero,-20(fp)
 1000224:	00002506 	br	10002bc <printAscii+0xd4>
      unsigned char pixel = image[k * y_dim + l];
 1000228:	e13ffc17 	ldw	r4,-16(fp)
 100022c:	e17fff17 	ldw	r5,-4(fp)
 1000230:	10026680 	call	1002668 <__mulsi3>
 1000234:	1007883a 	mov	r3,r2
 1000238:	e0bffb17 	ldw	r2,-20(fp)
 100023c:	1885883a 	add	r2,r3,r2
 1000240:	1085883a 	add	r2,r2,r2
 1000244:	1085883a 	add	r2,r2,r2
 1000248:	1007883a 	mov	r3,r2
 100024c:	e0bffd17 	ldw	r2,-12(fp)
 1000250:	1885883a 	add	r2,r3,r2
 1000254:	10800017 	ldw	r2,0(r2)
 1000258:	e0bffa45 	stb	r2,-23(fp)
      // Clamp pixel value to 255
      unsigned char c_pixel = pixel > 255 ? 255 : pixel;
 100025c:	e0bffa43 	ldbu	r2,-23(fp)
 1000260:	e0bffa05 	stb	r2,-24(fp)
      // Print normalized value as ASCII character
      printf("%4c", asciiChars[((NR_ASCII_CHARS - 1) * c_pixel) / 255]);
 1000264:	d0a00003 	ldbu	r2,-32768(gp)
 1000268:	10803fcc 	andi	r2,r2,255
 100026c:	113fffc4 	addi	r4,r2,-1
 1000270:	e17ffa03 	ldbu	r5,-24(fp)
 1000274:	10026680 	call	1002668 <__mulsi3>
 1000278:	1009883a 	mov	r4,r2
 100027c:	01403fc4 	movi	r5,255
 1000280:	10025680 	call	1002568 <__divsi3>
 1000284:	1007883a 	mov	r3,r2
 1000288:	008040b4 	movhi	r2,258
 100028c:	10a92e04 	addi	r2,r2,-23368
 1000290:	10c5883a 	add	r2,r2,r3
 1000294:	10800003 	ldbu	r2,0(r2)
 1000298:	11403fcc 	andi	r5,r2,255
 100029c:	2940201c 	xori	r5,r5,128
 10002a0:	297fe004 	addi	r5,r5,-128
 10002a4:	010040b4 	movhi	r4,258
 10002a8:	21277204 	addi	r4,r4,-25144
 10002ac:	1002ccc0 	call	1002ccc <printf>
 */
void printAscii(unsigned int* image, int x_dim, int y_dim) {
  int k = 0;
  int l = 0;
  for(k = 0; k < y_dim; k++) {
    for(l = 0; l < x_dim; l++) {
 10002b0:	e0bffb17 	ldw	r2,-20(fp)
 10002b4:	10800044 	addi	r2,r2,1
 10002b8:	e0bffb15 	stw	r2,-20(fp)
 10002bc:	e0fffb17 	ldw	r3,-20(fp)
 10002c0:	e0bffe17 	ldw	r2,-8(fp)
 10002c4:	18bfd816 	blt	r3,r2,1000228 <printAscii+0x40>
      // Clamp pixel value to 255
      unsigned char c_pixel = pixel > 255 ? 255 : pixel;
      // Print normalized value as ASCII character
      printf("%4c", asciiChars[((NR_ASCII_CHARS - 1) * c_pixel) / 255]);
    }
    printf("\n");
 10002c8:	01000284 	movi	r4,10
 10002cc:	1002d5c0 	call	1002d5c <putchar>
 * @param y_dim image Y dimention
 */
void printAscii(unsigned int* image, int x_dim, int y_dim) {
  int k = 0;
  int l = 0;
  for(k = 0; k < y_dim; k++) {
 10002d0:	e0bffc17 	ldw	r2,-16(fp)
 10002d4:	10800044 	addi	r2,r2,1
 10002d8:	e0bffc15 	stw	r2,-16(fp)
 10002dc:	e0fffc17 	ldw	r3,-16(fp)
 10002e0:	e0bfff17 	ldw	r2,-4(fp)
 10002e4:	18bfce16 	blt	r3,r2,1000220 <printAscii+0x38>
      // Print normalized value as ASCII character
      printf("%4c", asciiChars[((NR_ASCII_CHARS - 1) * c_pixel) / 255]);
    }
    printf("\n");
  }
}
 10002e8:	e037883a 	mov	sp,fp
 10002ec:	dfc00117 	ldw	ra,4(sp)
 10002f0:	df000017 	ldw	fp,0(sp)
 10002f4:	dec00204 	addi	sp,sp,8
 10002f8:	f800283a 	ret

010002fc <printAsciiHidden>:
 * @param size radius of hidden patch
 * @param gray_value gray value of the hiding patch
 */
void printAsciiHidden(unsigned int* image, int x_dim, int y_dim,
		      int x_pos, int y_pos,
		      int size, unsigned int gray_value) {
 10002fc:	f811883a 	mov	r8,ra
 1000300:	100c3d80 	call	100c3d8 <_mcount>
 1000304:	403f883a 	mov	ra,r8
 1000308:	defff704 	addi	sp,sp,-36
 100030c:	dfc00815 	stw	ra,32(sp)
 1000310:	df000715 	stw	fp,28(sp)
 1000314:	df000704 	addi	fp,sp,28
 1000318:	e13ffc15 	stw	r4,-16(fp)
 100031c:	e17ffd15 	stw	r5,-12(fp)
 1000320:	e1bffe15 	stw	r6,-8(fp)
 1000324:	e1ffff15 	stw	r7,-4(fp)
  int k = 0;
 1000328:	e03ffb15 	stw	zero,-20(fp)
  int l = 0;
 100032c:	e03ffa15 	stw	zero,-24(fp)
  for(k = 0; k < y_dim; k++) {
 1000330:	e03ffb15 	stw	zero,-20(fp)
 1000334:	00005b06 	br	10004a4 <printAsciiHidden+0x1a8>
    for(l = 0; l < x_dim; l++) {	
 1000338:	e03ffa15 	stw	zero,-24(fp)
 100033c:	00005106 	br	1000484 <printAsciiHidden+0x188>
      if ((k >= y_pos - size) && (k < y_pos + size) && (l >= x_pos - size) && (l < x_pos + size)) {
 1000340:	e0c00217 	ldw	r3,8(fp)
 1000344:	e0800317 	ldw	r2,12(fp)
 1000348:	1887c83a 	sub	r3,r3,r2
 100034c:	e0bffb17 	ldw	r2,-20(fp)
 1000350:	10c02716 	blt	r2,r3,10003f0 <printAsciiHidden+0xf4>
 1000354:	e0c00217 	ldw	r3,8(fp)
 1000358:	e0800317 	ldw	r2,12(fp)
 100035c:	1887883a 	add	r3,r3,r2
 1000360:	e0bffb17 	ldw	r2,-20(fp)
 1000364:	10c0220e 	bge	r2,r3,10003f0 <printAsciiHidden+0xf4>
 1000368:	e0ffff17 	ldw	r3,-4(fp)
 100036c:	e0800317 	ldw	r2,12(fp)
 1000370:	1887c83a 	sub	r3,r3,r2
 1000374:	e0bffa17 	ldw	r2,-24(fp)
 1000378:	10c01d16 	blt	r2,r3,10003f0 <printAsciiHidden+0xf4>
 100037c:	e0ffff17 	ldw	r3,-4(fp)
 1000380:	e0800317 	ldw	r2,12(fp)
 1000384:	1887883a 	add	r3,r3,r2
 1000388:	e0bffa17 	ldw	r2,-24(fp)
 100038c:	10c0180e 	bge	r2,r3,10003f0 <printAsciiHidden+0xf4>
	unsigned char pixel = gray_value;
 1000390:	e0800417 	ldw	r2,16(fp)
 1000394:	e0bff9c5 	stb	r2,-25(fp)
	unsigned char c_pixel = pixel > 255 ? 255 : pixel;
 1000398:	e0bff9c3 	ldbu	r2,-25(fp)
 100039c:	e0bff985 	stb	r2,-26(fp)
	printf("%4c", asciiChars[((NR_ASCII_CHARS - 1) * c_pixel) / 255]);
 10003a0:	d0a00003 	ldbu	r2,-32768(gp)
 10003a4:	10803fcc 	andi	r2,r2,255
 10003a8:	113fffc4 	addi	r4,r2,-1
 10003ac:	e17ff983 	ldbu	r5,-26(fp)
 10003b0:	10026680 	call	1002668 <__mulsi3>
 10003b4:	1009883a 	mov	r4,r2
 10003b8:	01403fc4 	movi	r5,255
 10003bc:	10025680 	call	1002568 <__divsi3>
 10003c0:	1007883a 	mov	r3,r2
 10003c4:	008040b4 	movhi	r2,258
 10003c8:	10a92e04 	addi	r2,r2,-23368
 10003cc:	10c5883a 	add	r2,r2,r3
 10003d0:	10800003 	ldbu	r2,0(r2)
 10003d4:	11403fcc 	andi	r5,r2,255
 10003d8:	2940201c 	xori	r5,r5,128
 10003dc:	297fe004 	addi	r5,r5,-128
 10003e0:	010040b4 	movhi	r4,258
 10003e4:	21277204 	addi	r4,r4,-25144
 10003e8:	1002ccc0 	call	1002ccc <printf>
		      int size, unsigned int gray_value) {
  int k = 0;
  int l = 0;
  for(k = 0; k < y_dim; k++) {
    for(l = 0; l < x_dim; l++) {	
      if ((k >= y_pos - size) && (k < y_pos + size) && (l >= x_pos - size) && (l < x_pos + size)) {
 10003ec:	00002206 	br	1000478 <printAsciiHidden+0x17c>
	unsigned char pixel = gray_value;
	unsigned char c_pixel = pixel > 255 ? 255 : pixel;
	printf("%4c", asciiChars[((NR_ASCII_CHARS - 1) * c_pixel) / 255]);
      } else {
	unsigned char pixel = image[k * y_dim + l];
 10003f0:	e13ffb17 	ldw	r4,-20(fp)
 10003f4:	e17ffe17 	ldw	r5,-8(fp)
 10003f8:	10026680 	call	1002668 <__mulsi3>
 10003fc:	1007883a 	mov	r3,r2
 1000400:	e0bffa17 	ldw	r2,-24(fp)
 1000404:	1885883a 	add	r2,r3,r2
 1000408:	1085883a 	add	r2,r2,r2
 100040c:	1085883a 	add	r2,r2,r2
 1000410:	1007883a 	mov	r3,r2
 1000414:	e0bffc17 	ldw	r2,-16(fp)
 1000418:	1885883a 	add	r2,r3,r2
 100041c:	10800017 	ldw	r2,0(r2)
 1000420:	e0bff945 	stb	r2,-27(fp)
	unsigned char c_pixel = pixel > 255 ? 255 : pixel;
 1000424:	e0bff943 	ldbu	r2,-27(fp)
 1000428:	e0bff905 	stb	r2,-28(fp)
	printf("%4c", asciiChars[((NR_ASCII_CHARS - 1) * c_pixel) / 255]);	  
 100042c:	d0a00003 	ldbu	r2,-32768(gp)
 1000430:	10803fcc 	andi	r2,r2,255
 1000434:	113fffc4 	addi	r4,r2,-1
 1000438:	e17ff903 	ldbu	r5,-28(fp)
 100043c:	10026680 	call	1002668 <__mulsi3>
 1000440:	1009883a 	mov	r4,r2
 1000444:	01403fc4 	movi	r5,255
 1000448:	10025680 	call	1002568 <__divsi3>
 100044c:	1007883a 	mov	r3,r2
 1000450:	008040b4 	movhi	r2,258
 1000454:	10a92e04 	addi	r2,r2,-23368
 1000458:	10c5883a 	add	r2,r2,r3
 100045c:	10800003 	ldbu	r2,0(r2)
 1000460:	11403fcc 	andi	r5,r2,255
 1000464:	2940201c 	xori	r5,r5,128
 1000468:	297fe004 	addi	r5,r5,-128
 100046c:	010040b4 	movhi	r4,258
 1000470:	21277204 	addi	r4,r4,-25144
 1000474:	1002ccc0 	call	1002ccc <printf>
		      int x_pos, int y_pos,
		      int size, unsigned int gray_value) {
  int k = 0;
  int l = 0;
  for(k = 0; k < y_dim; k++) {
    for(l = 0; l < x_dim; l++) {	
 1000478:	e0bffa17 	ldw	r2,-24(fp)
 100047c:	10800044 	addi	r2,r2,1
 1000480:	e0bffa15 	stw	r2,-24(fp)
 1000484:	e0fffa17 	ldw	r3,-24(fp)
 1000488:	e0bffd17 	ldw	r2,-12(fp)
 100048c:	18bfac16 	blt	r3,r2,1000340 <printAsciiHidden+0x44>
	unsigned char pixel = image[k * y_dim + l];
	unsigned char c_pixel = pixel > 255 ? 255 : pixel;
	printf("%4c", asciiChars[((NR_ASCII_CHARS - 1) * c_pixel) / 255]);	  
      }
    }
    printf("\n");
 1000490:	01000284 	movi	r4,10
 1000494:	1002d5c0 	call	1002d5c <putchar>
void printAsciiHidden(unsigned int* image, int x_dim, int y_dim,
		      int x_pos, int y_pos,
		      int size, unsigned int gray_value) {
  int k = 0;
  int l = 0;
  for(k = 0; k < y_dim; k++) {
 1000498:	e0bffb17 	ldw	r2,-20(fp)
 100049c:	10800044 	addi	r2,r2,1
 10004a0:	e0bffb15 	stw	r2,-20(fp)
 10004a4:	e0fffb17 	ldw	r3,-20(fp)
 10004a8:	e0bffe17 	ldw	r2,-8(fp)
 10004ac:	18bfa216 	blt	r3,r2,1000338 <printAsciiHidden+0x3c>
	printf("%4c", asciiChars[((NR_ASCII_CHARS - 1) * c_pixel) / 255]);	  
      }
    }
    printf("\n");
  }
}
 10004b0:	e037883a 	mov	sp,fp
 10004b4:	dfc00117 	ldw	ra,4(sp)
 10004b8:	df000017 	ldw	fp,0(sp)
 10004bc:	dec00204 	addi	sp,sp,8
 10004c0:	f800283a 	ret

010004c4 <alarm_handler>:

/*
 * ISR for HW Timer
 */
alt_u32 alarm_handler(void* context)
{
 10004c4:	f811883a 	mov	r8,ra
 10004c8:	100c3d80 	call	100c3d8 <_mcount>
 10004cc:	403f883a 	mov	ra,r8
 10004d0:	defffd04 	addi	sp,sp,-12
 10004d4:	dfc00215 	stw	ra,8(sp)
 10004d8:	df000115 	stw	fp,4(sp)
 10004dc:	df000104 	addi	fp,sp,4
 10004e0:	e13fff15 	stw	r4,-4(fp)
  OSTmrSignal(); /* Signals a 'tick' to the SW timers */
 10004e4:	10161e40 	call	10161e4 <OSTmrSignal>

  return delay;
 10004e8:	d0974a17 	ldw	r2,23848(gp)
}
 10004ec:	e037883a 	mov	sp,fp
 10004f0:	dfc00117 	ldw	ra,4(sp)
 10004f4:	df000017 	ldw	fp,0(sp)
 10004f8:	dec00204 	addi	sp,sp,8
 10004fc:	f800283a 	ret

01000500 <task1>:
Every task at the beginning block itself thanks to the utilization of semaphores
and once that the function has finished they increase the value of the semaphore
of the next task.
*/
void task1(void* pdata)
{
 1000500:	f811883a 	mov	r8,ra
 1000504:	100c3d80 	call	100c3d8 <_mcount>
 1000508:	403f883a 	mov	ra,r8
 100050c:	defff804 	addi	sp,sp,-32
 1000510:	dfc00715 	stw	ra,28(sp)
 1000514:	df000615 	stw	fp,24(sp)
 1000518:	df000604 	addi	fp,sp,24
 100051c:	e13fff15 	stw	r4,-4(fp)
	INT8U err;
	INT8U value=0;
 1000520:	e03ffb05 	stb	zero,-20(fp)
	char current_image=0;
 1000524:	e03ffac5 	stb	zero,-21(fp)
	char sequence_length = 4;
	unsigned char* image_sequence[4] = {test_ppm_1, test_ppm_2, test_ppm_3, test_ppm_4};

	#else
	/* Sequence of images for measuring performance */
	char sequence_length=3;
 1000528:	008000c4 	movi	r2,3
 100052c:	e0bffa85 	stb	r2,-22(fp)
	unsigned char* image_sequence[3] = {test_ppm_1, test_ppm_2, test_ppm_3};
 1000530:	008040b4 	movhi	r2,258
 1000534:	10a93204 	addi	r2,r2,-23352
 1000538:	e0bffc15 	stw	r2,-16(fp)
 100053c:	008040b4 	movhi	r2,258
 1000540:	10b532c4 	addi	r2,r2,-11061
 1000544:	e0bffd15 	stw	r2,-12(fp)
 1000548:	008040b4 	movhi	r2,258
 100054c:	10813384 	addi	r2,r2,1230
 1000550:	e0bffe15 	stw	r2,-8(fp)
	#endif

	while (1)
	{
		/* Extract the x and y dimensions of the picture */
		unsigned char i = *image_sequence[current_image];
 1000554:	e0bffac7 	ldb	r2,-21(fp)
 1000558:	1085883a 	add	r2,r2,r2
 100055c:	1085883a 	add	r2,r2,r2
 1000560:	e0fffa04 	addi	r3,fp,-24
 1000564:	10c5883a 	add	r2,r2,r3
 1000568:	10800204 	addi	r2,r2,8
 100056c:	10800017 	ldw	r2,0(r2)
 1000570:	10800003 	ldbu	r2,0(r2)
 1000574:	e0bffa45 	stb	r2,-23(fp)
		unsigned char j = *(image_sequence[current_image]+1);
 1000578:	e0bffac7 	ldb	r2,-21(fp)
 100057c:	1085883a 	add	r2,r2,r2
 1000580:	1085883a 	add	r2,r2,r2
 1000584:	e0fffa04 	addi	r3,fp,-24
 1000588:	10c5883a 	add	r2,r2,r3
 100058c:	10800204 	addi	r2,r2,8
 1000590:	10800017 	ldw	r2,0(r2)
 1000594:	10800044 	addi	r2,r2,1
 1000598:	10800003 	ldbu	r2,0(r2)
 100059c:	e0bffa05 	stb	r2,-24(fp)
		OSSemPend(Task1Sem, 0, &err);
 10005a0:	d1174d17 	ldw	r4,23860(gp)
 10005a4:	e1bffb44 	addi	r6,fp,-19
 10005a8:	000b883a 	mov	r5,zero
 10005ac:	1012d0c0 	call	1012d0c <OSSemPend>

		PERF_RESET(PERFORMANCE_COUNTER_0_BASE);
 10005b0:	00c00434 	movhi	r3,16
 10005b4:	18d40004 	addi	r3,r3,20480
 10005b8:	00800044 	movi	r2,1
 10005bc:	18800035 	stwio	r2,0(r3)
		PERF_START_MEASURING (PERFORMANCE_COUNTER_0_BASE);
 10005c0:	00800434 	movhi	r2,16
 10005c4:	10940104 	addi	r2,r2,20484
 10005c8:	10000035 	stwio	zero,0(r2)
//		PERF_BEGIN(PERFORMANCE_COUNTER_0_BASE, SECTION_1);

		/* Measurement here */
   	Grayscale(image_sequence[current_image]);
 10005cc:	e0bffac7 	ldb	r2,-21(fp)
 10005d0:	1085883a 	add	r2,r2,r2
 10005d4:	1085883a 	add	r2,r2,r2
 10005d8:	e0fffa04 	addi	r3,fp,-24
 10005dc:	10c5883a 	add	r2,r2,r3
 10005e0:	10800204 	addi	r2,r2,8
 10005e4:	11000017 	ldw	r4,0(r2)
 10005e8:	100060c0 	call	100060c <Grayscale>

		//IOWR_ALTERA_AVALON_PIO_DATA(LEDS_GREEN_BASE,value++);

		OSSemPost(GrayedSem);
 10005ec:	d1174c17 	ldw	r4,23856(gp)
 10005f0:	101311c0 	call	101311c <OSSemPost>


		/* Increment the image pointer */
		current_image=(current_image+1) % sequence_length;
 10005f4:	e0bffac7 	ldb	r2,-21(fp)
 10005f8:	11000044 	addi	r4,r2,1
 10005fc:	e17ffa87 	ldb	r5,-22(fp)
 1000600:	10025d40 	call	10025d4 <__modsi3>
 1000604:	e0bffac5 	stb	r2,-21(fp)

	}
 1000608:	003fd206 	br	1000554 <task1+0x54>

0100060c <Grayscale>:
}
void Grayscale(unsigned char* img){
 100060c:	f811883a 	mov	r8,ra
 1000610:	100c3d80 	call	100c3d8 <_mcount>
 1000614:	403f883a 	mov	ra,r8
 1000618:	defff704 	addi	sp,sp,-36
 100061c:	dfc00815 	stw	ra,32(sp)
 1000620:	df000715 	stw	fp,28(sp)
 1000624:	df000704 	addi	fp,sp,28
 1000628:	e13fff15 	stw	r4,-4(fp)
	int maxX=img[0];
 100062c:	e0bfff17 	ldw	r2,-4(fp)
 1000630:	10800003 	ldbu	r2,0(r2)
 1000634:	10803fcc 	andi	r2,r2,255
 1000638:	e0bffe15 	stw	r2,-8(fp)
	int maxY=img[1];
 100063c:	e0bfff17 	ldw	r2,-4(fp)
 1000640:	10800044 	addi	r2,r2,1
 1000644:	10800003 	ldbu	r2,0(r2)
 1000648:	10803fcc 	andi	r2,r2,255
 100064c:	e0bffd15 	stw	r2,-12(fp)
	int total= maxY*maxX*3;
 1000650:	e13ffd17 	ldw	r4,-12(fp)
 1000654:	e17ffe17 	ldw	r5,-8(fp)
 1000658:	10026680 	call	1002668 <__mulsi3>
 100065c:	1007883a 	mov	r3,r2
 1000660:	1805883a 	mov	r2,r3
 1000664:	1085883a 	add	r2,r2,r2
 1000668:	10c5883a 	add	r2,r2,r3
 100066c:	e0bffc15 	stw	r2,-16(fp)
	int moving_index=3;
 1000670:	008000c4 	movi	r2,3
 1000674:	e0bffb15 	stw	r2,-20(fp)
	int basic_index=0;
 1000678:	e03ffa15 	stw	zero,-24(fp)
	unsigned char* shared = (unsigned char)SHARED_ONCHIP_BASE;
 100067c:	e03ff915 	stw	zero,-28(fp)
	*shared++=img[0];
 1000680:	e0bfff17 	ldw	r2,-4(fp)
 1000684:	10c00003 	ldbu	r3,0(r2)
 1000688:	e0bff917 	ldw	r2,-28(fp)
 100068c:	10c00005 	stb	r3,0(r2)
 1000690:	e0bff917 	ldw	r2,-28(fp)
 1000694:	10800044 	addi	r2,r2,1
 1000698:	e0bff915 	stw	r2,-28(fp)
	*shared++=img[1];
 100069c:	e0bfff17 	ldw	r2,-4(fp)
 10006a0:	10800044 	addi	r2,r2,1
 10006a4:	10c00003 	ldbu	r3,0(r2)
 10006a8:	e0bff917 	ldw	r2,-28(fp)
 10006ac:	10c00005 	stb	r3,0(r2)
 10006b0:	e0bff917 	ldw	r2,-28(fp)
 10006b4:	10800044 	addi	r2,r2,1
 10006b8:	e0bff915 	stw	r2,-28(fp)
	*shared++=img[2];
 10006bc:	e0bfff17 	ldw	r2,-4(fp)
 10006c0:	10800084 	addi	r2,r2,2
 10006c4:	10c00003 	ldbu	r3,0(r2)
 10006c8:	e0bff917 	ldw	r2,-28(fp)
 10006cc:	10c00005 	stb	r3,0(r2)
 10006d0:	e0bff917 	ldw	r2,-28(fp)
 10006d4:	10800044 	addi	r2,r2,1
 10006d8:	e0bff915 	stw	r2,-28(fp)

	while(moving_index<total){
 10006dc:	00003606 	br	10007b8 <Grayscale+0x1ac>

		shared[basic_index]=(unsigned char)(((img[moving_index])>>2)+((img[moving_index])>>4)+((img[moving_index+1])>>1)+((img[moving_index+1])>>4)+((img[moving_index+2])>>3));
 10006e0:	e0bffa17 	ldw	r2,-24(fp)
 10006e4:	1007883a 	mov	r3,r2
 10006e8:	e0bff917 	ldw	r2,-28(fp)
 10006ec:	188b883a 	add	r5,r3,r2
 10006f0:	e0bffb17 	ldw	r2,-20(fp)
 10006f4:	1007883a 	mov	r3,r2
 10006f8:	e0bfff17 	ldw	r2,-4(fp)
 10006fc:	1885883a 	add	r2,r3,r2
 1000700:	10800003 	ldbu	r2,0(r2)
 1000704:	10803fcc 	andi	r2,r2,255
 1000708:	1004d0ba 	srli	r2,r2,2
 100070c:	1009883a 	mov	r4,r2
 1000710:	e0bffb17 	ldw	r2,-20(fp)
 1000714:	1007883a 	mov	r3,r2
 1000718:	e0bfff17 	ldw	r2,-4(fp)
 100071c:	1885883a 	add	r2,r3,r2
 1000720:	10800003 	ldbu	r2,0(r2)
 1000724:	10803fcc 	andi	r2,r2,255
 1000728:	1004d13a 	srli	r2,r2,4
 100072c:	2085883a 	add	r2,r4,r2
 1000730:	1009883a 	mov	r4,r2
 1000734:	e0fffb17 	ldw	r3,-20(fp)
 1000738:	e0bfff17 	ldw	r2,-4(fp)
 100073c:	1885883a 	add	r2,r3,r2
 1000740:	10800044 	addi	r2,r2,1
 1000744:	10800003 	ldbu	r2,0(r2)
 1000748:	10803fcc 	andi	r2,r2,255
 100074c:	1004d07a 	srli	r2,r2,1
 1000750:	2085883a 	add	r2,r4,r2
 1000754:	1009883a 	mov	r4,r2
 1000758:	e0fffb17 	ldw	r3,-20(fp)
 100075c:	e0bfff17 	ldw	r2,-4(fp)
 1000760:	1885883a 	add	r2,r3,r2
 1000764:	10800044 	addi	r2,r2,1
 1000768:	10800003 	ldbu	r2,0(r2)
 100076c:	10803fcc 	andi	r2,r2,255
 1000770:	1004d13a 	srli	r2,r2,4
 1000774:	2085883a 	add	r2,r4,r2
 1000778:	1009883a 	mov	r4,r2
 100077c:	e0fffb17 	ldw	r3,-20(fp)
 1000780:	e0bfff17 	ldw	r2,-4(fp)
 1000784:	1885883a 	add	r2,r3,r2
 1000788:	10800084 	addi	r2,r2,2
 100078c:	10800003 	ldbu	r2,0(r2)
 1000790:	10803fcc 	andi	r2,r2,255
 1000794:	1004d0fa 	srli	r2,r2,3
 1000798:	2085883a 	add	r2,r4,r2
 100079c:	28800005 	stb	r2,0(r5)
		basic_index++;
 10007a0:	e0bffa17 	ldw	r2,-24(fp)
 10007a4:	10800044 	addi	r2,r2,1
 10007a8:	e0bffa15 	stw	r2,-24(fp)
		moving_index+=3;
 10007ac:	e0bffb17 	ldw	r2,-20(fp)
 10007b0:	108000c4 	addi	r2,r2,3
 10007b4:	e0bffb15 	stw	r2,-20(fp)
	unsigned char* shared = (unsigned char)SHARED_ONCHIP_BASE;
	*shared++=img[0];
	*shared++=img[1];
	*shared++=img[2];

	while(moving_index<total){
 10007b8:	e0fffb17 	ldw	r3,-20(fp)
 10007bc:	e0bffc17 	ldw	r2,-16(fp)
 10007c0:	18bfc716 	blt	r3,r2,10006e0 <Grayscale+0xd4>
		moving_index+=3;

	}

	if(DEBUG) {printf("\n INPUT \n");printAscii(shared, maxX,maxY); OSTimeDly(3000);}
}
 10007c4:	e037883a 	mov	sp,fp
 10007c8:	dfc00117 	ldw	ra,4(sp)
 10007cc:	df000017 	ldw	fp,0(sp)
 10007d0:	dec00204 	addi	sp,sp,8
 10007d4:	f800283a 	ret

010007d8 <GrayTask>:


void GrayTask(void* pdata){
 10007d8:	f811883a 	mov	r8,ra
 10007dc:	100c3d80 	call	100c3d8 <_mcount>
 10007e0:	403f883a 	mov	ra,r8
 10007e4:	defff204 	addi	sp,sp,-56
 10007e8:	dfc00d15 	stw	ra,52(sp)
 10007ec:	df000c15 	stw	fp,48(sp)
 10007f0:	dc400b15 	stw	r17,44(sp)
 10007f4:	dc000a15 	stw	r16,40(sp)
 10007f8:	df000a04 	addi	fp,sp,40
 10007fc:	e13fff15 	stw	r4,-4(fp)

		PERF_RESET(PERFORMANCE_COUNTER_0_BASE);
 1000800:	00c00434 	movhi	r3,16
 1000804:	18d40004 	addi	r3,r3,20480
 1000808:	00800044 	movi	r2,1
 100080c:	18800035 	stwio	r2,0(r3)
		PERF_START_MEASURING (PERFORMANCE_COUNTER_0_BASE);
 1000810:	00800434 	movhi	r2,16
 1000814:	10940104 	addi	r2,r2,20484
 1000818:	10000035 	stwio	zero,0(r2)
		PERF_BEGIN(PERFORMANCE_COUNTER_0_BASE, SECTION_1);
 100081c:	00800434 	movhi	r2,16
 1000820:	10940504 	addi	r2,r2,20500
 1000824:	10000035 	stwio	zero,0(r2)

		if(PERFORMANCE){
			while(counter++<100){
 1000828:	00001406 	br	100087c <GrayTask+0xa4>
					if(counter==0)PERF_BEGIN(PERFORMANCE_COUNTER_0_BASE, SECTION_2);
 100082c:	d0974317 	ldw	r2,23820(gp)
 1000830:	1004c03a 	cmpne	r2,r2,zero
 1000834:	1000031e 	bne	r2,zero,1000844 <GrayTask+0x6c>
 1000838:	00800434 	movhi	r2,16
 100083c:	10940904 	addi	r2,r2,20516
 1000840:	10000035 	stwio	zero,0(r2)
					Grayscale(image_sequence[current_image]);
 1000844:	d0974217 	ldw	r2,23816(gp)
 1000848:	00c040b4 	movhi	r3,258
 100084c:	18d93504 	addi	r3,r3,25812
 1000850:	1085883a 	add	r2,r2,r2
 1000854:	1085883a 	add	r2,r2,r2
 1000858:	10c5883a 	add	r2,r2,r3
 100085c:	11000017 	ldw	r4,0(r2)
 1000860:	100060c0 	call	100060c <Grayscale>
					OSSemPost(CalcCoordSem);
 1000864:	d1174517 	ldw	r4,23828(gp)
 1000868:	101311c0 	call	101311c <OSSemPost>
					OSSemPend(GrayedSem,0,&err);
 100086c:	d1174c17 	ldw	r4,23856(gp)
 1000870:	000b883a 	mov	r5,zero
 1000874:	d1974904 	addi	r6,gp,23844
 1000878:	1012d0c0 	call	1012d0c <OSSemPend>
		PERF_RESET(PERFORMANCE_COUNTER_0_BASE);
		PERF_START_MEASURING (PERFORMANCE_COUNTER_0_BASE);
		PERF_BEGIN(PERFORMANCE_COUNTER_0_BASE, SECTION_1);

		if(PERFORMANCE){
			while(counter++<100){
 100087c:	d0d74317 	ldw	r3,23820(gp)
 1000880:	18801910 	cmplti	r2,r3,100
 1000884:	1009883a 	mov	r4,r2
 1000888:	18800044 	addi	r2,r3,1
 100088c:	d0974315 	stw	r2,23820(gp)
 1000890:	20803fcc 	andi	r2,r4,255
 1000894:	1004c03a 	cmpne	r2,r2,zero
 1000898:	103fe41e 	bne	r2,zero,100082c <GrayTask+0x54>
					if(counter==0)PERF_BEGIN(PERFORMANCE_COUNTER_0_BASE, SECTION_2);
					Grayscale(image_sequence[current_image]);
					OSSemPost(CalcCoordSem);
					OSSemPend(GrayedSem,0,&err);
				}
			PERF_END(PERFORMANCE_COUNTER_0_BASE, SECTION_1);
 100089c:	00800434 	movhi	r2,16
 10008a0:	10940404 	addi	r2,r2,20496
 10008a4:	10000035 	stwio	zero,0(r2)

			/* Print report */
			perf_print_formatted_report
 10008a8:	008040b4 	movhi	r2,258
 10008ac:	10a77604 	addi	r2,r2,-25128
 10008b0:	d8800015 	stw	r2,0(sp)
 10008b4:	01000434 	movhi	r4,16
 10008b8:	21140004 	addi	r4,r4,20480
 10008bc:	0140bef4 	movhi	r5,763
 10008c0:	297c2004 	addi	r5,r5,-3968
 10008c4:	01800084 	movi	r6,2
 10008c8:	01c040b4 	movhi	r7,258
 10008cc:	39e77304 	addi	r7,r7,-25140
 10008d0:	10181840 	call	1018184 <perf_print_formatted_report>
			ALT_CPU_FREQ,        // defined in "system.h"
			2,                   // How many sections to print
			"Total time", "Time per iteration"        // Display-name of section(s).
			);

			double total_time =  (double)perf_get_section_time(PERFORMANCE_COUNTER_0_BASE, SECTION_1)/(double)alt_get_cpu_freq();
 10008d4:	01000434 	movhi	r4,16
 10008d8:	21140004 	addi	r4,r4,20480
 10008dc:	01400044 	movi	r5,1
 10008e0:	1017ea80 	call	1017ea8 <perf_get_section_time>
 10008e4:	100b883a 	mov	r5,r2
 10008e8:	180d883a 	mov	r6,r3
 10008ec:	2809883a 	mov	r4,r5
 10008f0:	300b883a 	mov	r5,r6
 10008f4:	10017500 	call	1001750 <__floatundidf>
 10008f8:	1021883a 	mov	r16,r2
 10008fc:	1823883a 	mov	r17,r3
 1000900:	10180400 	call	1018040 <alt_get_cpu_freq>
 1000904:	1009883a 	mov	r4,r2
 1000908:	10023400 	call	1002340 <__floatunsidf>
 100090c:	100f883a 	mov	r7,r2
 1000910:	1811883a 	mov	r8,r3
 1000914:	8009883a 	mov	r4,r16
 1000918:	880b883a 	mov	r5,r17
 100091c:	380d883a 	mov	r6,r7
 1000920:	400f883a 	mov	r7,r8
 1000924:	10020dc0 	call	10020dc <__divdf3>
 1000928:	1009883a 	mov	r4,r2
 100092c:	180b883a 	mov	r5,r3
 1000930:	e13ffd15 	stw	r4,-12(fp)
 1000934:	e17ffe15 	stw	r5,-8(fp)
			    double normalized_time = total_time/4;
 1000938:	e13ffd17 	ldw	r4,-12(fp)
 100093c:	e17ffe17 	ldw	r5,-8(fp)
 1000940:	000d883a 	mov	r6,zero
 1000944:	01d00434 	movhi	r7,16400
 1000948:	10020dc0 	call	10020dc <__divdf3>
 100094c:	1009883a 	mov	r4,r2
 1000950:	180b883a 	mov	r5,r3
 1000954:	e13ffb15 	stw	r4,-20(fp)
 1000958:	e17ffc15 	stw	r5,-16(fp)
			    double throughput = 1/normalized_time;
 100095c:	0009883a 	mov	r4,zero
 1000960:	014ffc34 	movhi	r5,16368
 1000964:	e1bffb17 	ldw	r6,-20(fp)
 1000968:	e1fffc17 	ldw	r7,-16(fp)
 100096c:	10020dc0 	call	10020dc <__divdf3>
 1000970:	1009883a 	mov	r4,r2
 1000974:	180b883a 	mov	r5,r3
 1000978:	e13ff915 	stw	r4,-28(fp)
 100097c:	e17ffa15 	stw	r5,-24(fp)
			    printf("execution time: %f\nnormalized time: %f\nthroughput: %f\n", total_time, normalized_time, throughput);
 1000980:	e0bff917 	ldw	r2,-28(fp)
 1000984:	d8800115 	stw	r2,4(sp)
 1000988:	e0bffa17 	ldw	r2,-24(fp)
 100098c:	d8800215 	stw	r2,8(sp)
 1000990:	e0bffc17 	ldw	r2,-16(fp)
 1000994:	d8800015 	stw	r2,0(sp)
 1000998:	e1fffb17 	ldw	r7,-20(fp)
 100099c:	010040b4 	movhi	r4,258
 10009a0:	21277b04 	addi	r4,r4,-25108
 10009a4:	e17ffd17 	ldw	r5,-12(fp)
 10009a8:	e1bffe17 	ldw	r6,-8(fp)
 10009ac:	1002ccc0 	call	1002ccc <printf>
					Grayscale(image_sequence[current_image]);
					OSSemPost(CalcCoordSem);
					OSSemPend(GrayedSem,0,&err);
				}
		}
}
 10009b0:	e037883a 	mov	sp,fp
 10009b4:	dfc00317 	ldw	ra,12(sp)
 10009b8:	df000217 	ldw	fp,8(sp)
 10009bc:	dc400117 	ldw	r17,4(sp)
 10009c0:	dc000017 	ldw	r16,0(sp)
 10009c4:	dec00404 	addi	sp,sp,16
 10009c8:	f800283a 	ret

010009cc <CalcCoord>:


void CalcCoord(){
 10009cc:	f811883a 	mov	r8,ra
 10009d0:	100c3d80 	call	100c3d8 <_mcount>
 10009d4:	403f883a 	mov	ra,r8
 10009d8:	defff804 	addi	sp,sp,-32
 10009dc:	df000715 	stw	fp,28(sp)
 10009e0:	df000704 	addi	fp,sp,28

	unsigned char* shared = (unsigned char)SHARED_ONCHIP_BASE;
 10009e4:	e03ffd15 	stw	zero,-12(fp)
	int imgW=(int)shared[0];	  	//pic size
 10009e8:	e0bffd17 	ldw	r2,-12(fp)
 10009ec:	10800003 	ldbu	r2,0(r2)
 10009f0:	10803fcc 	andi	r2,r2,255
 10009f4:	e0bffc15 	stw	r2,-16(fp)
	int imgH=(int)shared[1];
 10009f8:	e0bffd17 	ldw	r2,-12(fp)
 10009fc:	10800044 	addi	r2,r2,1
 1000a00:	10800003 	ldbu	r2,0(r2)
 1000a04:	10803fcc 	andi	r2,r2,255
 1000a08:	e0bffb15 	stw	r2,-20(fp)
	int Globcoords[2];
	int coordX= shared[FinalResultLocation];
 1000a0c:	e0bffd17 	ldw	r2,-12(fp)
 1000a10:	108400c4 	addi	r2,r2,4099
 1000a14:	10800003 	ldbu	r2,0(r2)
 1000a18:	10803fcc 	andi	r2,r2,255
 1000a1c:	e0bffa15 	stw	r2,-24(fp)
	int coordY=shared[FinalResultLocation+1];
 1000a20:	e0bffd17 	ldw	r2,-12(fp)
 1000a24:	10840104 	addi	r2,r2,4100
 1000a28:	10800003 	ldbu	r2,0(r2)
 1000a2c:	10803fcc 	andi	r2,r2,255
 1000a30:	e0bff915 	stw	r2,-28(fp)
	//equation used by the program below
	//printf("imgW=%d, imgH=%d, xvalue=%d, yvalue=%d\n",imgW,imgH,coordX,coordY);
	//OSTimeDly(2000);
	if(coordX <= dSPAN ){
 1000a34:	d0a00083 	ldbu	r2,-32766(gp)
 1000a38:	10c03fcc 	andi	r3,r2,255
 1000a3c:	e0bffa17 	ldw	r2,-24(fp)
 1000a40:	18800216 	blt	r3,r2,1000a4c <CalcCoord+0x80>
		Globcoords[0] = 0;
 1000a44:	e03ffe15 	stw	zero,-8(fp)
 1000a48:	00001306 	br	1000a98 <CalcCoord+0xcc>
	}
	else if ( coordX > imgW-dSPAN){
 1000a4c:	d0a00083 	ldbu	r2,-32766(gp)
 1000a50:	10c03fcc 	andi	r3,r2,255
 1000a54:	e0bffc17 	ldw	r2,-16(fp)
 1000a58:	10c7c83a 	sub	r3,r2,r3
 1000a5c:	e0bffa17 	ldw	r2,-24(fp)
 1000a60:	1880070e 	bge	r3,r2,1000a80 <CalcCoord+0xb4>
			Globcoords[0] =(imgW-cropSIZE-1);
 1000a64:	d0a000c3 	ldbu	r2,-32765(gp)
 1000a68:	10c03fcc 	andi	r3,r2,255
 1000a6c:	e0bffc17 	ldw	r2,-16(fp)
 1000a70:	10c5c83a 	sub	r2,r2,r3
 1000a74:	10bfffc4 	addi	r2,r2,-1
 1000a78:	e0bffe15 	stw	r2,-8(fp)
 1000a7c:	00000606 	br	1000a98 <CalcCoord+0xcc>
		}
	else Globcoords[0] =(coordX-dSPAN-1);
 1000a80:	d0a00083 	ldbu	r2,-32766(gp)
 1000a84:	10c03fcc 	andi	r3,r2,255
 1000a88:	e0bffa17 	ldw	r2,-24(fp)
 1000a8c:	10c5c83a 	sub	r2,r2,r3
 1000a90:	10bfffc4 	addi	r2,r2,-1
 1000a94:	e0bffe15 	stw	r2,-8(fp)



	if( coordY <= dSPAN ){
 1000a98:	d0a00083 	ldbu	r2,-32766(gp)
 1000a9c:	10c03fcc 	andi	r3,r2,255
 1000aa0:	e0bff917 	ldw	r2,-28(fp)
 1000aa4:	18800216 	blt	r3,r2,1000ab0 <CalcCoord+0xe4>
		Globcoords[1] = 0;
 1000aa8:	e03fff15 	stw	zero,-4(fp)
 1000aac:	00001306 	br	1000afc <CalcCoord+0x130>
	}
	else if ( coordY > imgH-dSPAN){
 1000ab0:	d0a00083 	ldbu	r2,-32766(gp)
 1000ab4:	10c03fcc 	andi	r3,r2,255
 1000ab8:	e0bffb17 	ldw	r2,-20(fp)
 1000abc:	10c7c83a 	sub	r3,r2,r3
 1000ac0:	e0bff917 	ldw	r2,-28(fp)
 1000ac4:	1880070e 	bge	r3,r2,1000ae4 <CalcCoord+0x118>
			Globcoords[1] =(imgH - cropSIZE -1);
 1000ac8:	d0a000c3 	ldbu	r2,-32765(gp)
 1000acc:	10c03fcc 	andi	r3,r2,255
 1000ad0:	e0bffb17 	ldw	r2,-20(fp)
 1000ad4:	10c5c83a 	sub	r2,r2,r3
 1000ad8:	10bfffc4 	addi	r2,r2,-1
 1000adc:	e0bfff15 	stw	r2,-4(fp)
 1000ae0:	00000606 	br	1000afc <CalcCoord+0x130>
		}
	else {
		Globcoords[1]=(coordY - dSPAN - 1);
 1000ae4:	d0a00083 	ldbu	r2,-32766(gp)
 1000ae8:	10c03fcc 	andi	r3,r2,255
 1000aec:	e0bff917 	ldw	r2,-28(fp)
 1000af0:	10c5c83a 	sub	r2,r2,r3
 1000af4:	10bfffc4 	addi	r2,r2,-1
 1000af8:	e0bfff15 	stw	r2,-4(fp)
	}
    shared[FinalResultLocation]=(unsigned char)Globcoords[0];
 1000afc:	e0bffd17 	ldw	r2,-12(fp)
 1000b00:	10c400c4 	addi	r3,r2,4099
 1000b04:	e0bffe17 	ldw	r2,-8(fp)
 1000b08:	18800005 	stb	r2,0(r3)
	shared[FinalResultLocation+1]=(unsigned char)Globcoords[1];
 1000b0c:	e0bffd17 	ldw	r2,-12(fp)
 1000b10:	10c40104 	addi	r3,r2,4100
 1000b14:	e0bfff17 	ldw	r2,-4(fp)
 1000b18:	18800005 	stb	r2,0(r3)
	//printf("\nCoords: %d,%d\n", Globcoords[0], Globcoords[1]); OSTimeDly(2000);
}
 1000b1c:	e037883a 	mov	sp,fp
 1000b20:	df000017 	ldw	fp,0(sp)
 1000b24:	dec00104 	addi	sp,sp,4
 1000b28:	f800283a 	ret

01000b2c <CalcCoordTask>:

void CalcCoordTask(void *pdata){
 1000b2c:	f811883a 	mov	r8,ra
 1000b30:	100c3d80 	call	100c3d8 <_mcount>
 1000b34:	403f883a 	mov	ra,r8
 1000b38:	defffc04 	addi	sp,sp,-16
 1000b3c:	dfc00315 	stw	ra,12(sp)
 1000b40:	df000215 	stw	fp,8(sp)
 1000b44:	df000204 	addi	fp,sp,8
 1000b48:	e13fff15 	stw	r4,-4(fp)


	OSSemPend(CalcCoordSem,0,&err);
 1000b4c:	d1174517 	ldw	r4,23828(gp)
 1000b50:	000b883a 	mov	r5,zero
 1000b54:	d1974904 	addi	r6,gp,23844
 1000b58:	1012d0c0 	call	1012d0c <OSSemPend>
	unsigned char* shared = (unsigned char)SHARED_ONCHIP_BASE;
 1000b5c:	e03ffe15 	stw	zero,-8(fp)
	if((current_image)==0){
 1000b60:	d0974217 	ldw	r2,23816(gp)
 1000b64:	1004c03a 	cmpne	r2,r2,zero
 1000b68:	1000081e 	bne	r2,zero,1000b8c <CalcCoordTask+0x60>
		shared[FinalResultLocation]=dSPAN;
 1000b6c:	e0bffe17 	ldw	r2,-8(fp)
 1000b70:	10c400c4 	addi	r3,r2,4099
 1000b74:	d0a00083 	ldbu	r2,-32766(gp)
 1000b78:	18800005 	stb	r2,0(r3)
		shared[FinalResultLocation+1]=dSPAN;
 1000b7c:	e0bffe17 	ldw	r2,-8(fp)
 1000b80:	10c40104 	addi	r3,r2,4100
 1000b84:	d0a00083 	ldbu	r2,-32766(gp)
 1000b88:	18800005 	stb	r2,0(r3)
	}
	while(1){
		CalcCoord();
 1000b8c:	10009cc0 	call	10009cc <CalcCoord>
		OSSemPost(CropSem);
 1000b90:	d1174817 	ldw	r4,23840(gp)
 1000b94:	101311c0 	call	101311c <OSSemPost>
		OSSemPend(CalcCoordSem,0,&err);
 1000b98:	d1174517 	ldw	r4,23828(gp)
 1000b9c:	000b883a 	mov	r5,zero
 1000ba0:	d1974904 	addi	r6,gp,23844
 1000ba4:	1012d0c0 	call	1012d0c <OSSemPend>
	}
 1000ba8:	003ff806 	br	1000b8c <CalcCoordTask+0x60>

01000bac <crop>:
}

void crop (int coordX,int coordY){
 1000bac:	f811883a 	mov	r8,ra
 1000bb0:	100c3d80 	call	100c3d8 <_mcount>
 1000bb4:	403f883a 	mov	ra,r8
 1000bb8:	defff604 	addi	sp,sp,-40
 1000bbc:	dfc00915 	stw	ra,36(sp)
 1000bc0:	df000815 	stw	fp,32(sp)
 1000bc4:	df000804 	addi	fp,sp,32
 1000bc8:	e13ffe15 	stw	r4,-8(fp)
 1000bcc:	e17fff15 	stw	r5,-4(fp)

	unsigned char* shared = (unsigned char)SHARED_ONCHIP_BASE;
 1000bd0:	e03ffd15 	stw	zero,-12(fp)
	int head;		//head to use as reference
	int jump;
	head=(shared[0]*coordY)+coordX+3;
 1000bd4:	e0bffd17 	ldw	r2,-12(fp)
 1000bd8:	10800003 	ldbu	r2,0(r2)
 1000bdc:	11003fcc 	andi	r4,r2,255
 1000be0:	e17fff17 	ldw	r5,-4(fp)
 1000be4:	10026680 	call	1002668 <__mulsi3>
 1000be8:	1007883a 	mov	r3,r2
 1000bec:	e0bffe17 	ldw	r2,-8(fp)
 1000bf0:	1885883a 	add	r2,r3,r2
 1000bf4:	108000c4 	addi	r2,r2,3
 1000bf8:	e0bffc15 	stw	r2,-16(fp)
		//Goes directly to the coords given (+3 because the first three values are x,y and maxvalue)
		//defines how many values we need to skip once that the cropsize is over
		//Jump defines the gap between values to skip to have a perfect cropping
	jump=shared[0]-cropSIZE;
 1000bfc:	e0bffd17 	ldw	r2,-12(fp)
 1000c00:	10800003 	ldbu	r2,0(r2)
 1000c04:	10c03fcc 	andi	r3,r2,255
 1000c08:	d0a000c3 	ldbu	r2,-32765(gp)
 1000c0c:	10803fcc 	andi	r2,r2,255
 1000c10:	1885c83a 	sub	r2,r3,r2
 1000c14:	e0bffb15 	stw	r2,-20(fp)
	//printf("head: %d\njump:%d\n",head,jump); OSTimeDly(1000);
	int i,j;
	int following=0;
 1000c18:	e03ff815 	stw	zero,-32(fp)
	for(i=0;i<cropSIZE;i++){
 1000c1c:	e03ffa15 	stw	zero,-24(fp)
 1000c20:	00002006 	br	1000ca4 <crop+0xf8>
		for(j=0;j<cropSIZE;j++){
 1000c24:	e03ff915 	stw	zero,-28(fp)
 1000c28:	00001306 	br	1000c78 <crop+0xcc>
			shared[following]=(unsigned char)shared[head];
 1000c2c:	e0bff817 	ldw	r2,-32(fp)
 1000c30:	1007883a 	mov	r3,r2
 1000c34:	e0bffd17 	ldw	r2,-12(fp)
 1000c38:	1889883a 	add	r4,r3,r2
 1000c3c:	e0bffc17 	ldw	r2,-16(fp)
 1000c40:	1007883a 	mov	r3,r2
 1000c44:	e0bffd17 	ldw	r2,-12(fp)
 1000c48:	1885883a 	add	r2,r3,r2
 1000c4c:	10800003 	ldbu	r2,0(r2)
 1000c50:	20800005 	stb	r2,0(r4)
			//printf("%d,", shared[head]);
			head++; following++;
 1000c54:	e0bffc17 	ldw	r2,-16(fp)
 1000c58:	10800044 	addi	r2,r2,1
 1000c5c:	e0bffc15 	stw	r2,-16(fp)
 1000c60:	e0bff817 	ldw	r2,-32(fp)
 1000c64:	10800044 	addi	r2,r2,1
 1000c68:	e0bff815 	stw	r2,-32(fp)
	jump=shared[0]-cropSIZE;
	//printf("head: %d\njump:%d\n",head,jump); OSTimeDly(1000);
	int i,j;
	int following=0;
	for(i=0;i<cropSIZE;i++){
		for(j=0;j<cropSIZE;j++){
 1000c6c:	e0bff917 	ldw	r2,-28(fp)
 1000c70:	10800044 	addi	r2,r2,1
 1000c74:	e0bff915 	stw	r2,-28(fp)
 1000c78:	d0a000c3 	ldbu	r2,-32765(gp)
 1000c7c:	10c03fcc 	andi	r3,r2,255
 1000c80:	e0bff917 	ldw	r2,-28(fp)
 1000c84:	10ffe916 	blt	r2,r3,1000c2c <crop+0x80>
			shared[following]=(unsigned char)shared[head];
			//printf("%d,", shared[head]);
			head++; following++;
		}
		//printf("\n");
		head+=jump;		//when we reach the border of the matrix we goes to the next line
 1000c88:	e0fffc17 	ldw	r3,-16(fp)
 1000c8c:	e0bffb17 	ldw	r2,-20(fp)
 1000c90:	1885883a 	add	r2,r3,r2
 1000c94:	e0bffc15 	stw	r2,-16(fp)
		//Jump defines the gap between values to skip to have a perfect cropping
	jump=shared[0]-cropSIZE;
	//printf("head: %d\njump:%d\n",head,jump); OSTimeDly(1000);
	int i,j;
	int following=0;
	for(i=0;i<cropSIZE;i++){
 1000c98:	e0bffa17 	ldw	r2,-24(fp)
 1000c9c:	10800044 	addi	r2,r2,1
 1000ca0:	e0bffa15 	stw	r2,-24(fp)
 1000ca4:	d0a000c3 	ldbu	r2,-32765(gp)
 1000ca8:	10c03fcc 	andi	r3,r2,255
 1000cac:	e0bffa17 	ldw	r2,-24(fp)
 1000cb0:	10ffdc16 	blt	r2,r3,1000c24 <crop+0x78>
		}
		//printf("\n");
		head+=jump;		//when we reach the border of the matrix we goes to the next line
	}
	//OSTimeDly(5000);
}
 1000cb4:	e037883a 	mov	sp,fp
 1000cb8:	dfc00117 	ldw	ra,4(sp)
 1000cbc:	df000017 	ldw	fp,0(sp)
 1000cc0:	dec00204 	addi	sp,sp,8
 1000cc4:	f800283a 	ret

01000cc8 <CropTask>:

void CropTask(void *pdata){
 1000cc8:	f811883a 	mov	r8,ra
 1000ccc:	100c3d80 	call	100c3d8 <_mcount>
 1000cd0:	403f883a 	mov	ra,r8
 1000cd4:	defffc04 	addi	sp,sp,-16
 1000cd8:	dfc00315 	stw	ra,12(sp)
 1000cdc:	df000215 	stw	fp,8(sp)
 1000ce0:	df000204 	addi	fp,sp,8
 1000ce4:	e13fff15 	stw	r4,-4(fp)

	OSSemPend(CropSem,0,&err);
 1000ce8:	d1174817 	ldw	r4,23840(gp)
 1000cec:	000b883a 	mov	r5,zero
 1000cf0:	d1974904 	addi	r6,gp,23844
 1000cf4:	1012d0c0 	call	1012d0c <OSSemPend>
	unsigned char* shared = (unsigned char)SHARED_ONCHIP_BASE;
 1000cf8:	e03ffe15 	stw	zero,-8(fp)
	while(1){

		crop(shared[FinalResultLocation],shared[FinalResultLocation+1]);
 1000cfc:	e0bffe17 	ldw	r2,-8(fp)
 1000d00:	108400c4 	addi	r2,r2,4099
 1000d04:	10800003 	ldbu	r2,0(r2)
 1000d08:	11003fcc 	andi	r4,r2,255
 1000d0c:	e0bffe17 	ldw	r2,-8(fp)
 1000d10:	10840104 	addi	r2,r2,4100
 1000d14:	10800003 	ldbu	r2,0(r2)
 1000d18:	11403fcc 	andi	r5,r2,255
 1000d1c:	1000bac0 	call	1000bac <crop>
		OSSemPost(xCorr2Sem);
 1000d20:	d1174717 	ldw	r4,23836(gp)
 1000d24:	101311c0 	call	101311c <OSSemPost>
		OSSemPend(CropSem,0,&err);
 1000d28:	d1174817 	ldw	r4,23840(gp)
 1000d2c:	000b883a 	mov	r5,zero
 1000d30:	d1974904 	addi	r6,gp,23844
 1000d34:	1012d0c0 	call	1012d0c <OSSemPend>
	}
 1000d38:	003ff006 	br	1000cfc <CropTask+0x34>

01000d3c <stencilmat>:
}


unsigned int stencilmat(int i, int j,unsigned int cropped_matrix[31][31]){ //x,y,mat
 1000d3c:	f811883a 	mov	r8,ra
 1000d40:	100c3d80 	call	100c3d8 <_mcount>
 1000d44:	403f883a 	mov	ra,r8
 1000d48:	defff904 	addi	sp,sp,-28
 1000d4c:	dfc00615 	stw	ra,24(sp)
 1000d50:	df000515 	stw	fp,20(sp)
 1000d54:	dc000415 	stw	r16,16(sp)
 1000d58:	df000404 	addi	fp,sp,16
 1000d5c:	e13ffd15 	stw	r4,-12(fp)
 1000d60:	e17ffe15 	stw	r5,-8(fp)
 1000d64:	e1bfff15 	stw	r6,-4(fp)
	unsigned int sum;
	sum=(cropped_matrix[j][i+2] + cropped_matrix[j+1][i+1] + cropped_matrix[j+1][i+3] + cropped_matrix[j+2][i] + cropped_matrix[j+2][i+4] + cropped_matrix[j+3][i+1] + cropped_matrix[j+3][i+3] + cropped_matrix[j+4][i+2]);
 1000d68:	e13ffe17 	ldw	r4,-8(fp)
 1000d6c:	01401f04 	movi	r5,124
 1000d70:	10026680 	call	1002668 <__mulsi3>
 1000d74:	1007883a 	mov	r3,r2
 1000d78:	e0bfff17 	ldw	r2,-4(fp)
 1000d7c:	1887883a 	add	r3,r3,r2
 1000d80:	e0bffd17 	ldw	r2,-12(fp)
 1000d84:	10800084 	addi	r2,r2,2
 1000d88:	1085883a 	add	r2,r2,r2
 1000d8c:	1085883a 	add	r2,r2,r2
 1000d90:	10c5883a 	add	r2,r2,r3
 1000d94:	14000017 	ldw	r16,0(r2)
 1000d98:	e13ffe17 	ldw	r4,-8(fp)
 1000d9c:	01401f04 	movi	r5,124
 1000da0:	10026680 	call	1002668 <__mulsi3>
 1000da4:	1007883a 	mov	r3,r2
 1000da8:	e0bfff17 	ldw	r2,-4(fp)
 1000dac:	1885883a 	add	r2,r3,r2
 1000db0:	10c01f04 	addi	r3,r2,124
 1000db4:	e0bffd17 	ldw	r2,-12(fp)
 1000db8:	10800044 	addi	r2,r2,1
 1000dbc:	1085883a 	add	r2,r2,r2
 1000dc0:	1085883a 	add	r2,r2,r2
 1000dc4:	10c5883a 	add	r2,r2,r3
 1000dc8:	10800017 	ldw	r2,0(r2)
 1000dcc:	80a1883a 	add	r16,r16,r2
 1000dd0:	e13ffe17 	ldw	r4,-8(fp)
 1000dd4:	01401f04 	movi	r5,124
 1000dd8:	10026680 	call	1002668 <__mulsi3>
 1000ddc:	1007883a 	mov	r3,r2
 1000de0:	e0bfff17 	ldw	r2,-4(fp)
 1000de4:	1885883a 	add	r2,r3,r2
 1000de8:	10c01f04 	addi	r3,r2,124
 1000dec:	e0bffd17 	ldw	r2,-12(fp)
 1000df0:	108000c4 	addi	r2,r2,3
 1000df4:	1085883a 	add	r2,r2,r2
 1000df8:	1085883a 	add	r2,r2,r2
 1000dfc:	10c5883a 	add	r2,r2,r3
 1000e00:	10800017 	ldw	r2,0(r2)
 1000e04:	80a1883a 	add	r16,r16,r2
 1000e08:	e13ffe17 	ldw	r4,-8(fp)
 1000e0c:	01401f04 	movi	r5,124
 1000e10:	10026680 	call	1002668 <__mulsi3>
 1000e14:	1007883a 	mov	r3,r2
 1000e18:	e0bfff17 	ldw	r2,-4(fp)
 1000e1c:	1885883a 	add	r2,r3,r2
 1000e20:	10c03e04 	addi	r3,r2,248
 1000e24:	e0bffd17 	ldw	r2,-12(fp)
 1000e28:	1085883a 	add	r2,r2,r2
 1000e2c:	1085883a 	add	r2,r2,r2
 1000e30:	10c5883a 	add	r2,r2,r3
 1000e34:	10800017 	ldw	r2,0(r2)
 1000e38:	80a1883a 	add	r16,r16,r2
 1000e3c:	e13ffe17 	ldw	r4,-8(fp)
 1000e40:	01401f04 	movi	r5,124
 1000e44:	10026680 	call	1002668 <__mulsi3>
 1000e48:	1007883a 	mov	r3,r2
 1000e4c:	e0bfff17 	ldw	r2,-4(fp)
 1000e50:	1885883a 	add	r2,r3,r2
 1000e54:	10c03e04 	addi	r3,r2,248
 1000e58:	e0bffd17 	ldw	r2,-12(fp)
 1000e5c:	10800104 	addi	r2,r2,4
 1000e60:	1085883a 	add	r2,r2,r2
 1000e64:	1085883a 	add	r2,r2,r2
 1000e68:	10c5883a 	add	r2,r2,r3
 1000e6c:	10800017 	ldw	r2,0(r2)
 1000e70:	80a1883a 	add	r16,r16,r2
 1000e74:	e13ffe17 	ldw	r4,-8(fp)
 1000e78:	01401f04 	movi	r5,124
 1000e7c:	10026680 	call	1002668 <__mulsi3>
 1000e80:	1007883a 	mov	r3,r2
 1000e84:	e0bfff17 	ldw	r2,-4(fp)
 1000e88:	1885883a 	add	r2,r3,r2
 1000e8c:	10c05d04 	addi	r3,r2,372
 1000e90:	e0bffd17 	ldw	r2,-12(fp)
 1000e94:	10800044 	addi	r2,r2,1
 1000e98:	1085883a 	add	r2,r2,r2
 1000e9c:	1085883a 	add	r2,r2,r2
 1000ea0:	10c5883a 	add	r2,r2,r3
 1000ea4:	10800017 	ldw	r2,0(r2)
 1000ea8:	80a1883a 	add	r16,r16,r2
 1000eac:	e13ffe17 	ldw	r4,-8(fp)
 1000eb0:	01401f04 	movi	r5,124
 1000eb4:	10026680 	call	1002668 <__mulsi3>
 1000eb8:	1007883a 	mov	r3,r2
 1000ebc:	e0bfff17 	ldw	r2,-4(fp)
 1000ec0:	1885883a 	add	r2,r3,r2
 1000ec4:	10c05d04 	addi	r3,r2,372
 1000ec8:	e0bffd17 	ldw	r2,-12(fp)
 1000ecc:	108000c4 	addi	r2,r2,3
 1000ed0:	1085883a 	add	r2,r2,r2
 1000ed4:	1085883a 	add	r2,r2,r2
 1000ed8:	10c5883a 	add	r2,r2,r3
 1000edc:	10800017 	ldw	r2,0(r2)
 1000ee0:	80a1883a 	add	r16,r16,r2
 1000ee4:	e13ffe17 	ldw	r4,-8(fp)
 1000ee8:	01401f04 	movi	r5,124
 1000eec:	10026680 	call	1002668 <__mulsi3>
 1000ef0:	1007883a 	mov	r3,r2
 1000ef4:	e0bfff17 	ldw	r2,-4(fp)
 1000ef8:	1885883a 	add	r2,r3,r2
 1000efc:	10c07c04 	addi	r3,r2,496
 1000f00:	e0bffd17 	ldw	r2,-12(fp)
 1000f04:	10800084 	addi	r2,r2,2
 1000f08:	1085883a 	add	r2,r2,r2
 1000f0c:	1085883a 	add	r2,r2,r2
 1000f10:	10c5883a 	add	r2,r2,r3
 1000f14:	10800017 	ldw	r2,0(r2)
 1000f18:	8085883a 	add	r2,r16,r2
 1000f1c:	e0bffc15 	stw	r2,-16(fp)

	return sum;
 1000f20:	e0bffc17 	ldw	r2,-16(fp)

}
 1000f24:	e037883a 	mov	sp,fp
 1000f28:	dfc00217 	ldw	ra,8(sp)
 1000f2c:	df000117 	ldw	fp,4(sp)
 1000f30:	dc000017 	ldw	r16,0(sp)
 1000f34:	dec00304 	addi	sp,sp,12
 1000f38:	f800283a 	ret

01000f3c <xCorr2>:

void xCorr2(){
 1000f3c:	f811883a 	mov	r8,ra
 1000f40:	100c3d80 	call	100c3d8 <_mcount>
 1000f44:	403f883a 	mov	ra,r8
 1000f48:	defc3704 	addi	sp,sp,-3876
 1000f4c:	dfc3c815 	stw	ra,3872(sp)
 1000f50:	df03c715 	stw	fp,3868(sp)
 1000f54:	dc43c615 	stw	r17,3864(sp)
 1000f58:	dc03c515 	stw	r16,3860(sp)
 1000f5c:	df03c504 	addi	fp,sp,3860

	int i,j;
	unsigned int matrix[31][31];
	unsigned char* shared = (unsigned char)SHARED_ONCHIP_BASE;
 1000f60:	e03c3c15 	stw	zero,-3856(fp)
	for(i=0;i<cropSIZE;i++){
 1000f64:	e03c3e15 	stw	zero,-3848(fp)
 1000f68:	00001d06 	br	1000fe0 <xCorr2+0xa4>
		for(j=0;j<cropSIZE;j++){
 1000f6c:	e03c3d15 	stw	zero,-3852(fp)
 1000f70:	00001406 	br	1000fc4 <xCorr2+0x88>
			matrix[i][j]=(unsigned int)*shared;
 1000f74:	e13c3e17 	ldw	r4,-3848(fp)
 1000f78:	e43c3d17 	ldw	r16,-3852(fp)
 1000f7c:	e0bc3c17 	ldw	r2,-3856(fp)
 1000f80:	10800003 	ldbu	r2,0(r2)
 1000f84:	14403fcc 	andi	r17,r2,255
 1000f88:	014007c4 	movi	r5,31
 1000f8c:	10026680 	call	1002668 <__mulsi3>
 1000f90:	1405883a 	add	r2,r2,r16
 1000f94:	1085883a 	add	r2,r2,r2
 1000f98:	1085883a 	add	r2,r2,r2
 1000f9c:	e0fc3b04 	addi	r3,fp,-3860
 1000fa0:	10c5883a 	add	r2,r2,r3
 1000fa4:	10800404 	addi	r2,r2,16
 1000fa8:	14400015 	stw	r17,0(r2)
			shared++;
 1000fac:	e0bc3c17 	ldw	r2,-3856(fp)
 1000fb0:	10800044 	addi	r2,r2,1
 1000fb4:	e0bc3c15 	stw	r2,-3856(fp)

	int i,j;
	unsigned int matrix[31][31];
	unsigned char* shared = (unsigned char)SHARED_ONCHIP_BASE;
	for(i=0;i<cropSIZE;i++){
		for(j=0;j<cropSIZE;j++){
 1000fb8:	e0bc3d17 	ldw	r2,-3852(fp)
 1000fbc:	10800044 	addi	r2,r2,1
 1000fc0:	e0bc3d15 	stw	r2,-3852(fp)
 1000fc4:	d0a000c3 	ldbu	r2,-32765(gp)
 1000fc8:	10c03fcc 	andi	r3,r2,255
 1000fcc:	e0bc3d17 	ldw	r2,-3852(fp)
 1000fd0:	10ffe816 	blt	r2,r3,1000f74 <xCorr2+0x38>
void xCorr2(){

	int i,j;
	unsigned int matrix[31][31];
	unsigned char* shared = (unsigned char)SHARED_ONCHIP_BASE;
	for(i=0;i<cropSIZE;i++){
 1000fd4:	e0bc3e17 	ldw	r2,-3848(fp)
 1000fd8:	10800044 	addi	r2,r2,1
 1000fdc:	e0bc3e15 	stw	r2,-3848(fp)
 1000fe0:	d0a000c3 	ldbu	r2,-32765(gp)
 1000fe4:	10c03fcc 	andi	r3,r2,255
 1000fe8:	e0bc3e17 	ldw	r2,-3848(fp)
 1000fec:	10ffdf16 	blt	r2,r3,1000f6c <xCorr2+0x30>
			shared++;

			}

	}
 	unsigned int* intshared = (unsigned int)SHARED_ONCHIP_BASE;
 1000ff0:	00800434 	movhi	r2,16
 1000ff4:	10880004 	addi	r2,r2,8192
 1000ff8:	e0bc3b15 	stw	r2,-3860(fp)
	for(i=0; i<cropSIZE-4;i++){
 1000ffc:	e03c3e15 	stw	zero,-3848(fp)
 1001000:	00001706 	br	1001060 <xCorr2+0x124>
		for(j=0; j<cropSIZE-4;j++){
 1001004:	e03c3d15 	stw	zero,-3852(fp)
 1001008:	00000d06 	br	1001040 <xCorr2+0x104>
			*intshared++= stencilmat(j,i,matrix);
 100100c:	e1bc3f04 	addi	r6,fp,-3844
 1001010:	e13c3d17 	ldw	r4,-3852(fp)
 1001014:	e17c3e17 	ldw	r5,-3848(fp)
 1001018:	1000d3c0 	call	1000d3c <stencilmat>
 100101c:	1007883a 	mov	r3,r2
 1001020:	e0bc3b17 	ldw	r2,-3860(fp)
 1001024:	10c00015 	stw	r3,0(r2)
 1001028:	e0bc3b17 	ldw	r2,-3860(fp)
 100102c:	10800104 	addi	r2,r2,4
 1001030:	e0bc3b15 	stw	r2,-3860(fp)
			}

	}
 	unsigned int* intshared = (unsigned int)SHARED_ONCHIP_BASE;
	for(i=0; i<cropSIZE-4;i++){
		for(j=0; j<cropSIZE-4;j++){
 1001034:	e0bc3d17 	ldw	r2,-3852(fp)
 1001038:	10800044 	addi	r2,r2,1
 100103c:	e0bc3d15 	stw	r2,-3852(fp)
 1001040:	d0a000c3 	ldbu	r2,-32765(gp)
 1001044:	10803fcc 	andi	r2,r2,255
 1001048:	10ffff04 	addi	r3,r2,-4
 100104c:	e0bc3d17 	ldw	r2,-3852(fp)
 1001050:	10ffee16 	blt	r2,r3,100100c <xCorr2+0xd0>

			}

	}
 	unsigned int* intshared = (unsigned int)SHARED_ONCHIP_BASE;
	for(i=0; i<cropSIZE-4;i++){
 1001054:	e0bc3e17 	ldw	r2,-3848(fp)
 1001058:	10800044 	addi	r2,r2,1
 100105c:	e0bc3e15 	stw	r2,-3848(fp)
 1001060:	d0a000c3 	ldbu	r2,-32765(gp)
 1001064:	10803fcc 	andi	r2,r2,255
 1001068:	10ffff04 	addi	r3,r2,-4
 100106c:	e0bc3e17 	ldw	r2,-3848(fp)
 1001070:	10ffe416 	blt	r2,r3,1001004 <xCorr2+0xc8>

		}

	}

}
 1001074:	e037883a 	mov	sp,fp
 1001078:	dfc00317 	ldw	ra,12(sp)
 100107c:	df000217 	ldw	fp,8(sp)
 1001080:	dc400117 	ldw	r17,4(sp)
 1001084:	dc000017 	ldw	r16,0(sp)
 1001088:	dec00404 	addi	sp,sp,16
 100108c:	f800283a 	ret

01001090 <xCorr2Task>:


void xCorr2Task(void *pdata){
 1001090:	f811883a 	mov	r8,ra
 1001094:	100c3d80 	call	100c3d8 <_mcount>
 1001098:	403f883a 	mov	ra,r8
 100109c:	defffd04 	addi	sp,sp,-12
 10010a0:	dfc00215 	stw	ra,8(sp)
 10010a4:	df000115 	stw	fp,4(sp)
 10010a8:	df000104 	addi	fp,sp,4
 10010ac:	e13fff15 	stw	r4,-4(fp)

		OSSemPend(xCorr2Sem,0,&err);
 10010b0:	d1174717 	ldw	r4,23836(gp)
 10010b4:	000b883a 	mov	r5,zero
 10010b8:	d1974904 	addi	r6,gp,23844
 10010bc:	1012d0c0 	call	1012d0c <OSSemPend>
		while(1){
			xCorr2();
 10010c0:	1000f3c0 	call	1000f3c <xCorr2>
			OSSemPost(PosMaxSem);
 10010c4:	d1174417 	ldw	r4,23824(gp)
 10010c8:	101311c0 	call	101311c <OSSemPost>
			OSSemPend(xCorr2Sem,0,&err);
 10010cc:	d1174717 	ldw	r4,23836(gp)
 10010d0:	000b883a 	mov	r5,zero
 10010d4:	d1974904 	addi	r6,gp,23844
 10010d8:	1012d0c0 	call	1012d0c <OSSemPend>
		}
 10010dc:	003ff806 	br	10010c0 <xCorr2Task+0x30>

010010e0 <posMax>:

}

void posMax(){
 10010e0:	f811883a 	mov	r8,ra
 10010e4:	100c3d80 	call	100c3d8 <_mcount>
 10010e8:	403f883a 	mov	ra,r8
 10010ec:	defd1d04 	addi	sp,sp,-2956
 10010f0:	dfc2e215 	stw	ra,2952(sp)
 10010f4:	df02e115 	stw	fp,2948(sp)
 10010f8:	dc42e015 	stw	r17,2944(sp)
 10010fc:	dc02df15 	stw	r16,2940(sp)
 1001100:	df02df04 	addi	fp,sp,2940
	unsigned int max=0;		//Variable used for the max
 1001104:	e03d2615 	stw	zero,-2920(fp)
	unsigned int maybemax;		//Variable that is a max of it's own matrix but not the biggest

	//The following finds the highest value between all the different matrix
	int i,j;
	unsigned int* shared = (unsigned int)SHARED_ONCHIP_BASE;
 1001108:	00800434 	movhi	r2,16
 100110c:	10880004 	addi	r2,r2,8192
 1001110:	e0bd2215 	stw	r2,-2936(fp)
	int matrix[27][27];
	for(i=0;i<cropSIZE-4;i++){
 1001114:	e03d2415 	stw	zero,-2928(fp)
 1001118:	00001e06 	br	1001194 <posMax+0xb4>
		for(j=0;j<cropSIZE-4;j++){
 100111c:	e03d2315 	stw	zero,-2932(fp)
 1001120:	00001406 	br	1001174 <posMax+0x94>
			matrix[i][j]=*shared++;
 1001124:	e13d2417 	ldw	r4,-2928(fp)
 1001128:	e43d2317 	ldw	r16,-2932(fp)
 100112c:	e0bd2217 	ldw	r2,-2936(fp)
 1001130:	10800017 	ldw	r2,0(r2)
 1001134:	1023883a 	mov	r17,r2
 1001138:	014006c4 	movi	r5,27
 100113c:	10026680 	call	1002668 <__mulsi3>
 1001140:	1405883a 	add	r2,r2,r16
 1001144:	1085883a 	add	r2,r2,r2
 1001148:	1085883a 	add	r2,r2,r2
 100114c:	e0fd2104 	addi	r3,fp,-2940
 1001150:	10c5883a 	add	r2,r2,r3
 1001154:	10800604 	addi	r2,r2,24
 1001158:	14400015 	stw	r17,0(r2)
 100115c:	e0bd2217 	ldw	r2,-2936(fp)
 1001160:	10800104 	addi	r2,r2,4
 1001164:	e0bd2215 	stw	r2,-2936(fp)
	//The following finds the highest value between all the different matrix
	int i,j;
	unsigned int* shared = (unsigned int)SHARED_ONCHIP_BASE;
	int matrix[27][27];
	for(i=0;i<cropSIZE-4;i++){
		for(j=0;j<cropSIZE-4;j++){
 1001168:	e0bd2317 	ldw	r2,-2932(fp)
 100116c:	10800044 	addi	r2,r2,1
 1001170:	e0bd2315 	stw	r2,-2932(fp)
 1001174:	d0a000c3 	ldbu	r2,-32765(gp)
 1001178:	10803fcc 	andi	r2,r2,255
 100117c:	10ffff04 	addi	r3,r2,-4
 1001180:	e0bd2317 	ldw	r2,-2932(fp)
 1001184:	10ffe716 	blt	r2,r3,1001124 <posMax+0x44>

	//The following finds the highest value between all the different matrix
	int i,j;
	unsigned int* shared = (unsigned int)SHARED_ONCHIP_BASE;
	int matrix[27][27];
	for(i=0;i<cropSIZE-4;i++){
 1001188:	e0bd2417 	ldw	r2,-2928(fp)
 100118c:	10800044 	addi	r2,r2,1
 1001190:	e0bd2415 	stw	r2,-2928(fp)
 1001194:	d0a000c3 	ldbu	r2,-32765(gp)
 1001198:	10803fcc 	andi	r2,r2,255
 100119c:	10ffff04 	addi	r3,r2,-4
 10011a0:	e0bd2417 	ldw	r2,-2928(fp)
 10011a4:	10ffdd16 	blt	r2,r3,100111c <posMax+0x3c>
		for(j=0;j<cropSIZE-4;j++){
			matrix[i][j]=*shared++;
			//shared++;
		}
	}
	unsigned char* charshared = (unsigned char)SHARED_ONCHIP_BASE;
 10011a8:	e03d2115 	stw	zero,-2940(fp)
	for(i=0; i<cropSIZE-4;i++){
 10011ac:	e03d2415 	stw	zero,-2928(fp)
 10011b0:	00002606 	br	100124c <posMax+0x16c>
		for(j=0; j<cropSIZE-4;j++){
 10011b4:	e03d2315 	stw	zero,-2932(fp)
 10011b8:	00001c06 	br	100122c <posMax+0x14c>
			maybemax=matrix[i][j];
 10011bc:	e13d2417 	ldw	r4,-2928(fp)
 10011c0:	e43d2317 	ldw	r16,-2932(fp)
 10011c4:	014006c4 	movi	r5,27
 10011c8:	10026680 	call	1002668 <__mulsi3>
 10011cc:	1405883a 	add	r2,r2,r16
 10011d0:	1085883a 	add	r2,r2,r2
 10011d4:	1085883a 	add	r2,r2,r2
 10011d8:	e0fd2104 	addi	r3,fp,-2940
 10011dc:	10c5883a 	add	r2,r2,r3
 10011e0:	10800604 	addi	r2,r2,24
 10011e4:	10800017 	ldw	r2,0(r2)
 10011e8:	e0bd2515 	stw	r2,-2924(fp)

			if(maybemax> max){
 10011ec:	e0fd2517 	ldw	r3,-2924(fp)
 10011f0:	e0bd2617 	ldw	r2,-2920(fp)
 10011f4:	10c00a2e 	bgeu	r2,r3,1001220 <posMax+0x140>
				 max=maybemax;
 10011f8:	e0bd2517 	ldw	r2,-2924(fp)
 10011fc:	e0bd2615 	stw	r2,-2920(fp)
				 charshared[ObjectLocation]=j;
 1001200:	e0bd2117 	ldw	r2,-2940(fp)
 1001204:	10c40144 	addi	r3,r2,4101
 1001208:	e0bd2317 	ldw	r2,-2932(fp)
 100120c:	18800005 	stb	r2,0(r3)
				 charshared[ObjectLocation+1]=i;
 1001210:	e0bd2117 	ldw	r2,-2940(fp)
 1001214:	10c40184 	addi	r3,r2,4102
 1001218:	e0bd2417 	ldw	r2,-2928(fp)
 100121c:	18800005 	stb	r2,0(r3)
			//shared++;
		}
	}
	unsigned char* charshared = (unsigned char)SHARED_ONCHIP_BASE;
	for(i=0; i<cropSIZE-4;i++){
		for(j=0; j<cropSIZE-4;j++){
 1001220:	e0bd2317 	ldw	r2,-2932(fp)
 1001224:	10800044 	addi	r2,r2,1
 1001228:	e0bd2315 	stw	r2,-2932(fp)
 100122c:	d0a000c3 	ldbu	r2,-32765(gp)
 1001230:	10803fcc 	andi	r2,r2,255
 1001234:	10ffff04 	addi	r3,r2,-4
 1001238:	e0bd2317 	ldw	r2,-2932(fp)
 100123c:	10ffdf16 	blt	r2,r3,10011bc <posMax+0xdc>
			matrix[i][j]=*shared++;
			//shared++;
		}
	}
	unsigned char* charshared = (unsigned char)SHARED_ONCHIP_BASE;
	for(i=0; i<cropSIZE-4;i++){
 1001240:	e0bd2417 	ldw	r2,-2928(fp)
 1001244:	10800044 	addi	r2,r2,1
 1001248:	e0bd2415 	stw	r2,-2928(fp)
 100124c:	d0a000c3 	ldbu	r2,-32765(gp)
 1001250:	10803fcc 	andi	r2,r2,255
 1001254:	10ffff04 	addi	r3,r2,-4
 1001258:	e0bd2417 	ldw	r2,-2928(fp)
 100125c:	10ffd516 	blt	r2,r3,10011b4 <posMax+0xd4>
			}
		}

	}
	if(DEBUG){printf("\nCROPPED OUTPUT\n");printAsciiHidden(charshared,cropSIZE-4,cropSIZE-4,charshared[ObjectLocation],charshared[ObjectLocation+1],3,max); OSTimeDly(3000);}
}
 1001260:	e037883a 	mov	sp,fp
 1001264:	dfc00317 	ldw	ra,12(sp)
 1001268:	df000217 	ldw	fp,8(sp)
 100126c:	dc400117 	ldw	r17,4(sp)
 1001270:	dc000017 	ldw	r16,0(sp)
 1001274:	dec00404 	addi	sp,sp,16
 1001278:	f800283a 	ret

0100127c <PosMaxTask>:


void PosMaxTask(void *pdata){
 100127c:	f811883a 	mov	r8,ra
 1001280:	100c3d80 	call	100c3d8 <_mcount>
 1001284:	403f883a 	mov	ra,r8
 1001288:	defffd04 	addi	sp,sp,-12
 100128c:	dfc00215 	stw	ra,8(sp)
 1001290:	df000115 	stw	fp,4(sp)
 1001294:	df000104 	addi	fp,sp,4
 1001298:	e13fff15 	stw	r4,-4(fp)
	OSSemPend(PosMaxSem,0,&err);
 100129c:	d1174417 	ldw	r4,23824(gp)
 10012a0:	000b883a 	mov	r5,zero
 10012a4:	d1974904 	addi	r6,gp,23844
 10012a8:	1012d0c0 	call	1012d0c <OSSemPend>
	while(1){
	posMax();
 10012ac:	10010e00 	call	10010e0 <posMax>
	OSSemPost(objectPosSem);
 10012b0:	d1174617 	ldw	r4,23832(gp)
 10012b4:	101311c0 	call	101311c <OSSemPost>
	OSSemPend(PosMaxSem,0,&err);
 10012b8:	d1174417 	ldw	r4,23824(gp)
 10012bc:	000b883a 	mov	r5,zero
 10012c0:	d1974904 	addi	r6,gp,23844
 10012c4:	1012d0c0 	call	1012d0c <OSSemPend>
	}
 10012c8:	003ff806 	br	10012ac <PosMaxTask+0x30>

010012cc <objectPos>:
}

void objectPos(){
 10012cc:	f811883a 	mov	r8,ra
 10012d0:	100c3d80 	call	100c3d8 <_mcount>
 10012d4:	403f883a 	mov	ra,r8
 10012d8:	defffe04 	addi	sp,sp,-8
 10012dc:	df000115 	stw	fp,4(sp)
 10012e0:	df000104 	addi	fp,sp,4
	unsigned char* shared = (unsigned char)SHARED_ONCHIP_BASE;
 10012e4:	e03fff15 	stw	zero,-4(fp)
	//Equation given by the haskell code
	shared[FinalResultLocation]= shared[FinalResultLocation]+shared[ObjectLocation]+2;
 10012e8:	e0bfff17 	ldw	r2,-4(fp)
 10012ec:	110400c4 	addi	r4,r2,4099
 10012f0:	e0bfff17 	ldw	r2,-4(fp)
 10012f4:	108400c4 	addi	r2,r2,4099
 10012f8:	10c00003 	ldbu	r3,0(r2)
 10012fc:	e0bfff17 	ldw	r2,-4(fp)
 1001300:	10840144 	addi	r2,r2,4101
 1001304:	10800003 	ldbu	r2,0(r2)
 1001308:	1885883a 	add	r2,r3,r2
 100130c:	10800084 	addi	r2,r2,2
 1001310:	20800005 	stb	r2,0(r4)
	shared[FinalResultLocation+1]= shared[FinalResultLocation+1]+shared[ObjectLocation+1]+2;
 1001314:	e0bfff17 	ldw	r2,-4(fp)
 1001318:	11040104 	addi	r4,r2,4100
 100131c:	e0bfff17 	ldw	r2,-4(fp)
 1001320:	10840104 	addi	r2,r2,4100
 1001324:	10c00003 	ldbu	r3,0(r2)
 1001328:	e0bfff17 	ldw	r2,-4(fp)
 100132c:	10840184 	addi	r2,r2,4102
 1001330:	10800003 	ldbu	r2,0(r2)
 1001334:	1885883a 	add	r2,r3,r2
 1001338:	10800084 	addi	r2,r2,2
 100133c:	20800005 	stb	r2,0(r4)
	if(!PERFORMANCE) printf("\n[%d,%d]\n", shared[FinalResultLocation], shared[FinalResultLocation+1]);

}
 1001340:	e037883a 	mov	sp,fp
 1001344:	df000017 	ldw	fp,0(sp)
 1001348:	dec00104 	addi	sp,sp,4
 100134c:	f800283a 	ret

01001350 <ObjectPosTask>:

void ObjectPosTask(void *pdata){
 1001350:	f811883a 	mov	r8,ra
 1001354:	100c3d80 	call	100c3d8 <_mcount>
 1001358:	403f883a 	mov	ra,r8
 100135c:	defffd04 	addi	sp,sp,-12
 1001360:	dfc00215 	stw	ra,8(sp)
 1001364:	df000115 	stw	fp,4(sp)
 1001368:	df000104 	addi	fp,sp,4
 100136c:	e13fff15 	stw	r4,-4(fp)

	OSSemPend(objectPosSem,0,&err);
 1001370:	d1174617 	ldw	r4,23832(gp)
 1001374:	000b883a 	mov	r5,zero
 1001378:	d1974904 	addi	r6,gp,23844
 100137c:	1012d0c0 	call	1012d0c <OSSemPend>
	while(1){
		objectPos();
 1001380:	10012cc0 	call	10012cc <objectPos>
		current_image++;
 1001384:	d0974217 	ldw	r2,23816(gp)
 1001388:	10800044 	addi	r2,r2,1
 100138c:	d0974215 	stw	r2,23816(gp)
		if(PERFORMANCE){
			 current_image%=sequence_length;
 1001390:	d1174217 	ldw	r4,23816(gp)
 1001394:	d0a00043 	ldbu	r2,-32767(gp)
 1001398:	11403fcc 	andi	r5,r2,255
 100139c:	2940201c 	xori	r5,r5,128
 10013a0:	297fe004 	addi	r5,r5,-128
 10013a4:	10025d40 	call	10025d4 <__modsi3>
 10013a8:	d0974215 	stw	r2,23816(gp)
			 if(counter==0)PERF_END(PERFORMANCE_COUNTER_0_BASE, SECTION_2);
 10013ac:	d0974317 	ldw	r2,23820(gp)
 10013b0:	1004c03a 	cmpne	r2,r2,zero
 10013b4:	1000031e 	bne	r2,zero,10013c4 <ObjectPosTask+0x74>
 10013b8:	00800434 	movhi	r2,16
 10013bc:	10940804 	addi	r2,r2,20512
 10013c0:	10000035 	stwio	zero,0(r2)
			ALT_CPU_FREQ,        // defined in "system.h"
			1,                   // How many sections to print
			"Section 1"        // Display-name of section(s).
			);
		}
		OSSemPost(GrayedSem);
 10013c4:	d1174c17 	ldw	r4,23856(gp)
 10013c8:	101311c0 	call	101311c <OSSemPost>
		OSSemPend(objectPosSem,0,&err);
 10013cc:	d1174617 	ldw	r4,23832(gp)
 10013d0:	000b883a 	mov	r5,zero
 10013d4:	d1974904 	addi	r6,gp,23844
 10013d8:	1012d0c0 	call	1012d0c <OSSemPend>
	}
 10013dc:	003fe806 	br	1001380 <ObjectPosTask+0x30>

010013e0 <StartTask>:
}


void StartTask(void* pdata)
{
 10013e0:	f811883a 	mov	r8,ra
 10013e4:	100c3d80 	call	100c3d8 <_mcount>
 10013e8:	403f883a 	mov	ra,r8
 10013ec:	defff704 	addi	sp,sp,-36
 10013f0:	dfc00815 	stw	ra,32(sp)
 10013f4:	df000715 	stw	fp,28(sp)
 10013f8:	df000704 	addi	fp,sp,28
 10013fc:	e13fff15 	stw	r4,-4(fp)

  void* context=0;
 1001400:	e03ffe15 	stw	zero,-8(fp)
 * Obtain the system clock rate in ticks/s. 
 */

static ALT_INLINE alt_u32 ALT_ALWAYS_INLINE alt_ticks_per_second (void)
{
  return _alt_tick_rate;
 1001404:	008040f4 	movhi	r2,259
 1001408:	10975f04 	addi	r2,r2,23932
 100140c:	10800017 	ldw	r2,0(r2)
 1001410:	1009883a 	mov	r4,r2

  static alt_alarm alarm;     /* Is needed for timer ISR function */

  /* Base resolution for SW timer : HW_TIMER_PERIOD ms */
  delay = alt_ticks_per_second() * HW_TIMER_PERIOD / 1000;
 1001414:	01401904 	movi	r5,100
 1001418:	10026680 	call	1002668 <__mulsi3>
 100141c:	1009883a 	mov	r4,r2
 1001420:	0140fa04 	movi	r5,1000
 1001424:	10026400 	call	1002640 <__udivsi3>
 1001428:	d0974a15 	stw	r2,23848(gp)
  printf("delay in ticks %d\n", delay);
 100142c:	d1574a17 	ldw	r5,23848(gp)
 1001430:	010040b4 	movhi	r4,258
 1001434:	21278904 	addi	r4,r4,-25052
 1001438:	1002ccc0 	call	1002ccc <printf>

  /*
   * Create Hardware Timer with a period of 'delay'
   */
  if (alt_alarm_start (&alarm,
 100143c:	d0974a17 	ldw	r2,23848(gp)
 1001440:	100b883a 	mov	r5,r2
 1001444:	010040f4 	movhi	r4,259
 1001448:	21178604 	addi	r4,r4,24088
 100144c:	01804034 	movhi	r6,256
 1001450:	31813104 	addi	r6,r6,1220
 1001454:	e1fffe17 	ldw	r7,-8(fp)
 1001458:	100baf80 	call	100baf8 <alt_alarm_start>
 100145c:	1004403a 	cmpge	r2,r2,zero
 1001460:	1000031e 	bne	r2,zero,1001470 <StartTask+0x90>
      delay,
      alarm_handler,
      context) < 0)
      {
          printf("No system clock available!n");
 1001464:	010040b4 	movhi	r4,258
 1001468:	21278e04 	addi	r4,r4,-25032
 100146c:	1002ccc0 	call	1002ccc <printf>
      }

   /*
   * Creation of Kernel Objects
   */
  Task1Sem = OSSemCreate(1);
 1001470:	01000044 	movi	r4,1
 1001474:	10129400 	call	1012940 <OSSemCreate>
 1001478:	d0974d15 	stw	r2,23860(gp)
  GrayedSem= OSSemCreate(0);
 100147c:	0009883a 	mov	r4,zero
 1001480:	10129400 	call	1012940 <OSSemCreate>
 1001484:	d0974c15 	stw	r2,23856(gp)
  CalcCoordSem= OSSemCreate(0);
 1001488:	0009883a 	mov	r4,zero
 100148c:	10129400 	call	1012940 <OSSemCreate>
 1001490:	d0974515 	stw	r2,23828(gp)
  CropSem= OSSemCreate(0);
 1001494:	0009883a 	mov	r4,zero
 1001498:	10129400 	call	1012940 <OSSemCreate>
 100149c:	d0974815 	stw	r2,23840(gp)
  xCorr2Sem = OSSemCreate(0);
 10014a0:	0009883a 	mov	r4,zero
 10014a4:	10129400 	call	1012940 <OSSemCreate>
 10014a8:	d0974715 	stw	r2,23836(gp)
  PosMaxSem = OSSemCreate(0);
 10014ac:	0009883a 	mov	r4,zero
 10014b0:	10129400 	call	1012940 <OSSemCreate>
 10014b4:	d0974415 	stw	r2,23824(gp)
  objectPosSem = OSSemCreate(0);
 10014b8:	0009883a 	mov	r4,zero
 10014bc:	10129400 	call	1012940 <OSSemCreate>
 10014c0:	d0974615 	stw	r2,23832(gp)
  /*
   * Create statistics task
   */

  OSStatInit();
 10014c4:	100db040 	call	100db04 <OSStatInit>
  /*
   * Creating Tasks in the system
   */


	err=OSTaskCreateExt(CalcCoordTask,
 10014c8:	01804134 	movhi	r6,260
 10014cc:	31979b04 	addi	r6,r6,24172
 10014d0:	008002c4 	movi	r2,11
 10014d4:	d8800015 	stw	r2,0(sp)
 10014d8:	00804134 	movhi	r2,260
 10014dc:	108f9c04 	addi	r2,r2,15984
 10014e0:	d8800115 	stw	r2,4(sp)
 10014e4:	00820004 	movi	r2,2048
 10014e8:	d8800215 	stw	r2,8(sp)
 10014ec:	d8000315 	stw	zero,12(sp)
 10014f0:	d8000415 	stw	zero,16(sp)
 10014f4:	01004034 	movhi	r4,256
 10014f8:	2102cb04 	addi	r4,r4,2860
 10014fc:	000b883a 	mov	r5,zero
 1001500:	01c002c4 	movi	r7,11
 1001504:	1013bfc0 	call	1013bfc <OSTaskCreateExt>
 1001508:	d0974905 	stb	r2,23844(gp)
	 if (DEBUG) {
     if (err == OS_ERR_NONE) { //if start successful
      printf("CalcCoordTask created\n");
    }}

	err=OSTaskCreateExt(xCorr2Task,
 100150c:	01804134 	movhi	r6,260
 1001510:	31a79b04 	addi	r6,r6,-24980
 1001514:	00800344 	movi	r2,13
 1001518:	d8800015 	stw	r2,0(sp)
 100151c:	008040f4 	movhi	r2,259
 1001520:	109f9c04 	addi	r2,r2,32368
 1001524:	d8800115 	stw	r2,4(sp)
 1001528:	00820004 	movi	r2,2048
 100152c:	d8800215 	stw	r2,8(sp)
 1001530:	d8000315 	stw	zero,12(sp)
 1001534:	d8000415 	stw	zero,16(sp)
 1001538:	01004034 	movhi	r4,256
 100153c:	21042404 	addi	r4,r4,4240
 1001540:	000b883a 	mov	r5,zero
 1001544:	01c00344 	movi	r7,13
 1001548:	1013bfc0 	call	1013bfc <OSTaskCreateExt>
 100154c:	d0974905 	stb	r2,23844(gp)
	 if (DEBUG) {
     if (err == OS_ERR_NONE) { //if start successful
      printf("xCorr2Task created\n");
    }}

	err=OSTaskCreateExt(CropTask,
 1001550:	01804134 	movhi	r6,260
 1001554:	31b79b04 	addi	r6,r6,-8596
 1001558:	00800304 	movi	r2,12
 100155c:	d8800015 	stw	r2,0(sp)
 1001560:	00804134 	movhi	r2,260
 1001564:	10af9c04 	addi	r2,r2,-16784
 1001568:	d8800115 	stw	r2,4(sp)
 100156c:	00820004 	movi	r2,2048
 1001570:	d8800215 	stw	r2,8(sp)
 1001574:	d8000315 	stw	zero,12(sp)
 1001578:	d8000415 	stw	zero,16(sp)
 100157c:	01004034 	movhi	r4,256
 1001580:	21033204 	addi	r4,r4,3272
 1001584:	000b883a 	mov	r5,zero
 1001588:	01c00304 	movi	r7,12
 100158c:	1013bfc0 	call	1013bfc <OSTaskCreateExt>
 1001590:	d0974905 	stb	r2,23844(gp)
		 if (err == OS_ERR_NONE) { //if start successful
		  printf("CropTask created\n");
   		 }
	}

	err=OSTaskCreateExt(PosMaxTask,
 1001594:	01804134 	movhi	r6,260
 1001598:	318f9b04 	addi	r6,r6,15980
 100159c:	00800384 	movi	r2,14
 10015a0:	d8800015 	stw	r2,0(sp)
 10015a4:	00804134 	movhi	r2,260
 10015a8:	10879c04 	addi	r2,r2,7792
 10015ac:	d8800115 	stw	r2,4(sp)
 10015b0:	00820004 	movi	r2,2048
 10015b4:	d8800215 	stw	r2,8(sp)
 10015b8:	d8000315 	stw	zero,12(sp)
 10015bc:	d8000415 	stw	zero,16(sp)
 10015c0:	01004034 	movhi	r4,256
 10015c4:	21049f04 	addi	r4,r4,4732
 10015c8:	000b883a 	mov	r5,zero
 10015cc:	01c00384 	movi	r7,14
 10015d0:	1013bfc0 	call	1013bfc <OSTaskCreateExt>
 10015d4:	d0974905 	stb	r2,23844(gp)
     if (err == OS_ERR_NONE) { //if start successful
      printf("PosMaxTask created\n");
    }else printf("\n%d\n",err);}


	err=OSTaskCreateExt(GrayTask,
 10015d8:	01804134 	movhi	r6,260
 10015dc:	31af9b04 	addi	r6,r6,-16788
 10015e0:	00800284 	movi	r2,10
 10015e4:	d8800015 	stw	r2,0(sp)
 10015e8:	00804134 	movhi	r2,260
 10015ec:	10a79c04 	addi	r2,r2,-24976
 10015f0:	d8800115 	stw	r2,4(sp)
 10015f4:	00820004 	movi	r2,2048
 10015f8:	d8800215 	stw	r2,8(sp)
 10015fc:	d8000315 	stw	zero,12(sp)
 1001600:	d8000415 	stw	zero,16(sp)
 1001604:	01004034 	movhi	r4,256
 1001608:	2101f604 	addi	r4,r4,2008
 100160c:	000b883a 	mov	r5,zero
 1001610:	01c00284 	movi	r7,10
 1001614:	1013bfc0 	call	1013bfc <OSTaskCreateExt>
 1001618:	d0974905 	stb	r2,23844(gp)

	 if (DEBUG) {
     if (err == OS_ERR_NONE) { //if start successful
      printf("GrayTask created\n");
    }}
	err=OSTaskCreateExt(ObjectPosTask,
 100161c:	01804134 	movhi	r6,260
 1001620:	31879b04 	addi	r6,r6,7788
 1001624:	008003c4 	movi	r2,15
 1001628:	d8800015 	stw	r2,0(sp)
 100162c:	00804134 	movhi	r2,260
 1001630:	10bf9c04 	addi	r2,r2,-400
 1001634:	d8800115 	stw	r2,4(sp)
 1001638:	00820004 	movi	r2,2048
 100163c:	d8800215 	stw	r2,8(sp)
 1001640:	d8000315 	stw	zero,12(sp)
 1001644:	d8000415 	stw	zero,16(sp)
 1001648:	01004034 	movhi	r4,256
 100164c:	2104d404 	addi	r4,r4,4944
 1001650:	000b883a 	mov	r5,zero
 1001654:	01c003c4 	movi	r7,15
 1001658:	1013bfc0 	call	1013bfc <OSTaskCreateExt>
 100165c:	d0974905 	stb	r2,23844(gp)
	 if (DEBUG) {
     if (err == OS_ERR_NONE) { //if start successful
      printf("ObjectPosTask created\n");
    }}

  printf("All Tasks and Kernel Objects generated!\n");
 1001660:	010040b4 	movhi	r4,258
 1001664:	21279504 	addi	r4,r4,-25004
 1001668:	1002e440 	call	1002e44 <puts>

  /* Task deletes itself */

  OSTaskDel(OS_PRIO_SELF);
 100166c:	01003fc4 	movi	r4,255
 1001670:	1013e080 	call	1013e08 <OSTaskDel>
}
 1001674:	e037883a 	mov	sp,fp
 1001678:	dfc00117 	ldw	ra,4(sp)
 100167c:	df000017 	ldw	fp,0(sp)
 1001680:	dec00204 	addi	sp,sp,8
 1001684:	f800283a 	ret

01001688 <main>:


int main(void) {
 1001688:	f811883a 	mov	r8,ra
 100168c:	100c3d80 	call	100c3d8 <_mcount>
 1001690:	403f883a 	mov	ra,r8
 1001694:	defff904 	addi	sp,sp,-28
 1001698:	dfc00615 	stw	ra,24(sp)
 100169c:	df000515 	stw	fp,20(sp)
 10016a0:	df000504 	addi	fp,sp,20

  printf("MicroC/OS-II-Vesion: %1.2f\n", (double) OSVersion()/100.0);
 10016a4:	100de080 	call	100de08 <OSVersion>
 10016a8:	113fffcc 	andi	r4,r2,65535
 10016ac:	10023400 	call	1002340 <__floatunsidf>
 10016b0:	100b883a 	mov	r5,r2
 10016b4:	180d883a 	mov	r6,r3
 10016b8:	2809883a 	mov	r4,r5
 10016bc:	300b883a 	mov	r5,r6
 10016c0:	000d883a 	mov	r6,zero
 10016c4:	01d01674 	movhi	r7,16473
 10016c8:	10020dc0 	call	10020dc <__divdf3>
 10016cc:	1009883a 	mov	r4,r2
 10016d0:	180b883a 	mov	r5,r3
 10016d4:	2005883a 	mov	r2,r4
 10016d8:	2807883a 	mov	r3,r5
 10016dc:	010040b4 	movhi	r4,258
 10016e0:	21279f04 	addi	r4,r4,-24964
 10016e4:	100b883a 	mov	r5,r2
 10016e8:	180d883a 	mov	r6,r3
 10016ec:	1002ccc0 	call	1002ccc <printf>

  OSTaskCreateExt(
 10016f0:	01804134 	movhi	r6,260
 10016f4:	31bf9b04 	addi	r6,r6,-404
 10016f8:	00800044 	movi	r2,1
 10016fc:	d8800015 	stw	r2,0(sp)
 1001700:	00804134 	movhi	r2,260
 1001704:	10b79c04 	addi	r2,r2,-8592
 1001708:	d8800115 	stw	r2,4(sp)
 100170c:	00820004 	movi	r2,2048
 1001710:	d8800215 	stw	r2,8(sp)
 1001714:	d8000315 	stw	zero,12(sp)
 1001718:	008000c4 	movi	r2,3
 100171c:	d8800415 	stw	r2,16(sp)
 1001720:	01004034 	movhi	r4,256
 1001724:	2104f804 	addi	r4,r4,5088
 1001728:	000b883a 	mov	r5,zero
 100172c:	01c00044 	movi	r7,1
 1001730:	1013bfc0 	call	1013bfc <OSTaskCreateExt>
         (void *)&StartTask_Stack[0],
         TASK_STACKSIZE,
         (void *) 0,
         OS_TASK_OPT_STK_CHK | OS_TASK_OPT_STK_CLR);

  OSStart();
 1001734:	100da880 	call	100da88 <OSStart>

  return 0;
 1001738:	0005883a 	mov	r2,zero
}
 100173c:	e037883a 	mov	sp,fp
 1001740:	dfc00117 	ldw	ra,4(sp)
 1001744:	df000017 	ldw	fp,0(sp)
 1001748:	dec00204 	addi	sp,sp,8
 100174c:	f800283a 	ret

01001750 <__floatundidf>:
 1001750:	f811883a 	mov	r8,ra
 1001754:	100c3d80 	call	100c3d8 <_mcount>
 1001758:	403f883a 	mov	ra,r8
 100175c:	defffb04 	addi	sp,sp,-20
 1001760:	dfc00415 	stw	ra,16(sp)
 1001764:	dcc00315 	stw	r19,12(sp)
 1001768:	dc800215 	stw	r18,8(sp)
 100176c:	dc400115 	stw	r17,4(sp)
 1001770:	dc000015 	stw	r16,0(sp)
 1001774:	2025883a 	mov	r18,r4
 1001778:	2809883a 	mov	r4,r5
 100177c:	10023400 	call	1002340 <__floatunsidf>
 1001780:	100d883a 	mov	r6,r2
 1001784:	180f883a 	mov	r7,r3
 1001788:	0005883a 	mov	r2,zero
 100178c:	00d07c34 	movhi	r3,16880
 1001790:	380b883a 	mov	r5,r7
 1001794:	3009883a 	mov	r4,r6
 1001798:	180f883a 	mov	r7,r3
 100179c:	100d883a 	mov	r6,r2
 10017a0:	1001d0c0 	call	1001d0c <__muldf3>
 10017a4:	9009883a 	mov	r4,r18
 10017a8:	1021883a 	mov	r16,r2
 10017ac:	1823883a 	mov	r17,r3
 10017b0:	10023400 	call	1002340 <__floatunsidf>
 10017b4:	880b883a 	mov	r5,r17
 10017b8:	8009883a 	mov	r4,r16
 10017bc:	180f883a 	mov	r7,r3
 10017c0:	100d883a 	mov	r6,r2
 10017c4:	1001c8c0 	call	1001c8c <__adddf3>
 10017c8:	dfc00417 	ldw	ra,16(sp)
 10017cc:	dcc00317 	ldw	r19,12(sp)
 10017d0:	dc800217 	ldw	r18,8(sp)
 10017d4:	dc400117 	ldw	r17,4(sp)
 10017d8:	dc000017 	ldw	r16,0(sp)
 10017dc:	dec00504 	addi	sp,sp,20
 10017e0:	f800283a 	ret

010017e4 <_fpadd_parts>:
 10017e4:	f811883a 	mov	r8,ra
 10017e8:	100c3d80 	call	100c3d8 <_mcount>
 10017ec:	403f883a 	mov	ra,r8
 10017f0:	defff804 	addi	sp,sp,-32
 10017f4:	ddc00715 	stw	r23,28(sp)
 10017f8:	dd800615 	stw	r22,24(sp)
 10017fc:	dd400515 	stw	r21,20(sp)
 1001800:	dd000415 	stw	r20,16(sp)
 1001804:	dcc00315 	stw	r19,12(sp)
 1001808:	dc800215 	stw	r18,8(sp)
 100180c:	dc400115 	stw	r17,4(sp)
 1001810:	dc000015 	stw	r16,0(sp)
 1001814:	2027883a 	mov	r19,r4
 1001818:	21000017 	ldw	r4,0(r4)
 100181c:	00c00044 	movi	r3,1
 1001820:	282b883a 	mov	r21,r5
 1001824:	3029883a 	mov	r20,r6
 1001828:	1900632e 	bgeu	r3,r4,10019b8 <_fpadd_parts+0x1d4>
 100182c:	28800017 	ldw	r2,0(r5)
 1001830:	1880812e 	bgeu	r3,r2,1001a38 <_fpadd_parts+0x254>
 1001834:	00c00104 	movi	r3,4
 1001838:	20c0dc26 	beq	r4,r3,1001bac <_fpadd_parts+0x3c8>
 100183c:	10c07e26 	beq	r2,r3,1001a38 <_fpadd_parts+0x254>
 1001840:	00c00084 	movi	r3,2
 1001844:	10c06726 	beq	r2,r3,10019e4 <_fpadd_parts+0x200>
 1001848:	20c07b26 	beq	r4,r3,1001a38 <_fpadd_parts+0x254>
 100184c:	9dc00217 	ldw	r23,8(r19)
 1001850:	28c00217 	ldw	r3,8(r5)
 1001854:	9c400317 	ldw	r17,12(r19)
 1001858:	2bc00317 	ldw	r15,12(r5)
 100185c:	b8cdc83a 	sub	r6,r23,r3
 1001860:	9c800417 	ldw	r18,16(r19)
 1001864:	2c000417 	ldw	r16,16(r5)
 1001868:	3009883a 	mov	r4,r6
 100186c:	30009716 	blt	r6,zero,1001acc <_fpadd_parts+0x2e8>
 1001870:	00800fc4 	movi	r2,63
 1001874:	11806b16 	blt	r2,r6,1001a24 <_fpadd_parts+0x240>
 1001878:	0100a40e 	bge	zero,r4,1001b0c <_fpadd_parts+0x328>
 100187c:	35bff804 	addi	r22,r6,-32
 1001880:	b000bc16 	blt	r22,zero,1001b74 <_fpadd_parts+0x390>
 1001884:	8596d83a 	srl	r11,r16,r22
 1001888:	0019883a 	mov	r12,zero
 100188c:	0013883a 	mov	r9,zero
 1001890:	01000044 	movi	r4,1
 1001894:	0015883a 	mov	r10,zero
 1001898:	b000be16 	blt	r22,zero,1001b94 <_fpadd_parts+0x3b0>
 100189c:	2590983a 	sll	r8,r4,r22
 10018a0:	000f883a 	mov	r7,zero
 10018a4:	00bfffc4 	movi	r2,-1
 10018a8:	3889883a 	add	r4,r7,r2
 10018ac:	408b883a 	add	r5,r8,r2
 10018b0:	21cd803a 	cmpltu	r6,r4,r7
 10018b4:	314b883a 	add	r5,r6,r5
 10018b8:	7904703a 	and	r2,r15,r4
 10018bc:	8146703a 	and	r3,r16,r5
 10018c0:	10c4b03a 	or	r2,r2,r3
 10018c4:	10000226 	beq	r2,zero,10018d0 <_fpadd_parts+0xec>
 10018c8:	02400044 	movi	r9,1
 10018cc:	0015883a 	mov	r10,zero
 10018d0:	5a5eb03a 	or	r15,r11,r9
 10018d4:	62a0b03a 	or	r16,r12,r10
 10018d8:	99400117 	ldw	r5,4(r19)
 10018dc:	a8800117 	ldw	r2,4(r21)
 10018e0:	28806e26 	beq	r5,r2,1001a9c <_fpadd_parts+0x2b8>
 10018e4:	28006626 	beq	r5,zero,1001a80 <_fpadd_parts+0x29c>
 10018e8:	7c45c83a 	sub	r2,r15,r17
 10018ec:	7889803a 	cmpltu	r4,r15,r2
 10018f0:	8487c83a 	sub	r3,r16,r18
 10018f4:	1909c83a 	sub	r4,r3,r4
 10018f8:	100d883a 	mov	r6,r2
 10018fc:	200f883a 	mov	r7,r4
 1001900:	38007716 	blt	r7,zero,1001ae0 <_fpadd_parts+0x2fc>
 1001904:	a5c00215 	stw	r23,8(r20)
 1001908:	a1c00415 	stw	r7,16(r20)
 100190c:	a0000115 	stw	zero,4(r20)
 1001910:	a1800315 	stw	r6,12(r20)
 1001914:	a2000317 	ldw	r8,12(r20)
 1001918:	a2400417 	ldw	r9,16(r20)
 100191c:	00bfffc4 	movi	r2,-1
 1001920:	408b883a 	add	r5,r8,r2
 1001924:	2a09803a 	cmpltu	r4,r5,r8
 1001928:	488d883a 	add	r6,r9,r2
 100192c:	01c40034 	movhi	r7,4096
 1001930:	39ffffc4 	addi	r7,r7,-1
 1001934:	218d883a 	add	r6,r4,r6
 1001938:	39801736 	bltu	r7,r6,1001998 <_fpadd_parts+0x1b4>
 100193c:	31c06526 	beq	r6,r7,1001ad4 <_fpadd_parts+0x2f0>
 1001940:	a3000217 	ldw	r12,8(r20)
 1001944:	4209883a 	add	r4,r8,r8
 1001948:	00bfffc4 	movi	r2,-1
 100194c:	220f803a 	cmpltu	r7,r4,r8
 1001950:	4a4b883a 	add	r5,r9,r9
 1001954:	394f883a 	add	r7,r7,r5
 1001958:	2095883a 	add	r10,r4,r2
 100195c:	3897883a 	add	r11,r7,r2
 1001960:	510d803a 	cmpltu	r6,r10,r4
 1001964:	6099883a 	add	r12,r12,r2
 1001968:	32d7883a 	add	r11,r6,r11
 100196c:	00840034 	movhi	r2,4096
 1001970:	10bfffc4 	addi	r2,r2,-1
 1001974:	2011883a 	mov	r8,r4
 1001978:	3813883a 	mov	r9,r7
 100197c:	a1000315 	stw	r4,12(r20)
 1001980:	a1c00415 	stw	r7,16(r20)
 1001984:	a3000215 	stw	r12,8(r20)
 1001988:	12c00336 	bltu	r2,r11,1001998 <_fpadd_parts+0x1b4>
 100198c:	58bfed1e 	bne	r11,r2,1001944 <_fpadd_parts+0x160>
 1001990:	00bfff84 	movi	r2,-2
 1001994:	12bfeb2e 	bgeu	r2,r10,1001944 <_fpadd_parts+0x160>
 1001998:	a2800417 	ldw	r10,16(r20)
 100199c:	008000c4 	movi	r2,3
 10019a0:	00c80034 	movhi	r3,8192
 10019a4:	18ffffc4 	addi	r3,r3,-1
 10019a8:	a2400317 	ldw	r9,12(r20)
 10019ac:	a0800015 	stw	r2,0(r20)
 10019b0:	1a802336 	bltu	r3,r10,1001a40 <_fpadd_parts+0x25c>
 10019b4:	a027883a 	mov	r19,r20
 10019b8:	9805883a 	mov	r2,r19
 10019bc:	ddc00717 	ldw	r23,28(sp)
 10019c0:	dd800617 	ldw	r22,24(sp)
 10019c4:	dd400517 	ldw	r21,20(sp)
 10019c8:	dd000417 	ldw	r20,16(sp)
 10019cc:	dcc00317 	ldw	r19,12(sp)
 10019d0:	dc800217 	ldw	r18,8(sp)
 10019d4:	dc400117 	ldw	r17,4(sp)
 10019d8:	dc000017 	ldw	r16,0(sp)
 10019dc:	dec00804 	addi	sp,sp,32
 10019e0:	f800283a 	ret
 10019e4:	20fff41e 	bne	r4,r3,10019b8 <_fpadd_parts+0x1d4>
 10019e8:	31000015 	stw	r4,0(r6)
 10019ec:	98800117 	ldw	r2,4(r19)
 10019f0:	30800115 	stw	r2,4(r6)
 10019f4:	98c00217 	ldw	r3,8(r19)
 10019f8:	30c00215 	stw	r3,8(r6)
 10019fc:	98800317 	ldw	r2,12(r19)
 1001a00:	30800315 	stw	r2,12(r6)
 1001a04:	98c00417 	ldw	r3,16(r19)
 1001a08:	30c00415 	stw	r3,16(r6)
 1001a0c:	98800117 	ldw	r2,4(r19)
 1001a10:	28c00117 	ldw	r3,4(r5)
 1001a14:	3027883a 	mov	r19,r6
 1001a18:	10c4703a 	and	r2,r2,r3
 1001a1c:	30800115 	stw	r2,4(r6)
 1001a20:	003fe506 	br	10019b8 <_fpadd_parts+0x1d4>
 1001a24:	1dc02616 	blt	r3,r23,1001ac0 <_fpadd_parts+0x2dc>
 1001a28:	0023883a 	mov	r17,zero
 1001a2c:	182f883a 	mov	r23,r3
 1001a30:	0025883a 	mov	r18,zero
 1001a34:	003fa806 	br	10018d8 <_fpadd_parts+0xf4>
 1001a38:	a827883a 	mov	r19,r21
 1001a3c:	003fde06 	br	10019b8 <_fpadd_parts+0x1d4>
 1001a40:	01800044 	movi	r6,1
 1001a44:	500497fa 	slli	r2,r10,31
 1001a48:	4808d07a 	srli	r4,r9,1
 1001a4c:	518ad83a 	srl	r5,r10,r6
 1001a50:	a2000217 	ldw	r8,8(r20)
 1001a54:	1108b03a 	or	r4,r2,r4
 1001a58:	0007883a 	mov	r3,zero
 1001a5c:	4984703a 	and	r2,r9,r6
 1001a60:	208cb03a 	or	r6,r4,r2
 1001a64:	28ceb03a 	or	r7,r5,r3
 1001a68:	42000044 	addi	r8,r8,1
 1001a6c:	a027883a 	mov	r19,r20
 1001a70:	a1c00415 	stw	r7,16(r20)
 1001a74:	a2000215 	stw	r8,8(r20)
 1001a78:	a1800315 	stw	r6,12(r20)
 1001a7c:	003fce06 	br	10019b8 <_fpadd_parts+0x1d4>
 1001a80:	8bc5c83a 	sub	r2,r17,r15
 1001a84:	8889803a 	cmpltu	r4,r17,r2
 1001a88:	9407c83a 	sub	r3,r18,r16
 1001a8c:	1909c83a 	sub	r4,r3,r4
 1001a90:	100d883a 	mov	r6,r2
 1001a94:	200f883a 	mov	r7,r4
 1001a98:	003f9906 	br	1001900 <_fpadd_parts+0x11c>
 1001a9c:	7c45883a 	add	r2,r15,r17
 1001aa0:	13c9803a 	cmpltu	r4,r2,r15
 1001aa4:	8487883a 	add	r3,r16,r18
 1001aa8:	20c9883a 	add	r4,r4,r3
 1001aac:	a1400115 	stw	r5,4(r20)
 1001ab0:	a5c00215 	stw	r23,8(r20)
 1001ab4:	a0800315 	stw	r2,12(r20)
 1001ab8:	a1000415 	stw	r4,16(r20)
 1001abc:	003fb606 	br	1001998 <_fpadd_parts+0x1b4>
 1001ac0:	001f883a 	mov	r15,zero
 1001ac4:	0021883a 	mov	r16,zero
 1001ac8:	003f8306 	br	10018d8 <_fpadd_parts+0xf4>
 1001acc:	018dc83a 	sub	r6,zero,r6
 1001ad0:	003f6706 	br	1001870 <_fpadd_parts+0x8c>
 1001ad4:	00bfff84 	movi	r2,-2
 1001ad8:	117faf36 	bltu	r2,r5,1001998 <_fpadd_parts+0x1b4>
 1001adc:	003f9806 	br	1001940 <_fpadd_parts+0x15c>
 1001ae0:	0005883a 	mov	r2,zero
 1001ae4:	1189c83a 	sub	r4,r2,r6
 1001ae8:	1105803a 	cmpltu	r2,r2,r4
 1001aec:	01cbc83a 	sub	r5,zero,r7
 1001af0:	2885c83a 	sub	r2,r5,r2
 1001af4:	01800044 	movi	r6,1
 1001af8:	a1800115 	stw	r6,4(r20)
 1001afc:	a5c00215 	stw	r23,8(r20)
 1001b00:	a1000315 	stw	r4,12(r20)
 1001b04:	a0800415 	stw	r2,16(r20)
 1001b08:	003f8206 	br	1001914 <_fpadd_parts+0x130>
 1001b0c:	203f7226 	beq	r4,zero,10018d8 <_fpadd_parts+0xf4>
 1001b10:	35bff804 	addi	r22,r6,-32
 1001b14:	b9af883a 	add	r23,r23,r6
 1001b18:	b0003116 	blt	r22,zero,1001be0 <_fpadd_parts+0x3fc>
 1001b1c:	959ad83a 	srl	r13,r18,r22
 1001b20:	001d883a 	mov	r14,zero
 1001b24:	000f883a 	mov	r7,zero
 1001b28:	01000044 	movi	r4,1
 1001b2c:	0011883a 	mov	r8,zero
 1001b30:	b0002516 	blt	r22,zero,1001bc8 <_fpadd_parts+0x3e4>
 1001b34:	2594983a 	sll	r10,r4,r22
 1001b38:	0013883a 	mov	r9,zero
 1001b3c:	00bfffc4 	movi	r2,-1
 1001b40:	4889883a 	add	r4,r9,r2
 1001b44:	508b883a 	add	r5,r10,r2
 1001b48:	224d803a 	cmpltu	r6,r4,r9
 1001b4c:	314b883a 	add	r5,r6,r5
 1001b50:	8904703a 	and	r2,r17,r4
 1001b54:	9146703a 	and	r3,r18,r5
 1001b58:	10c4b03a 	or	r2,r2,r3
 1001b5c:	10000226 	beq	r2,zero,1001b68 <_fpadd_parts+0x384>
 1001b60:	01c00044 	movi	r7,1
 1001b64:	0011883a 	mov	r8,zero
 1001b68:	69e2b03a 	or	r17,r13,r7
 1001b6c:	7224b03a 	or	r18,r14,r8
 1001b70:	003f5906 	br	10018d8 <_fpadd_parts+0xf4>
 1001b74:	8407883a 	add	r3,r16,r16
 1001b78:	008007c4 	movi	r2,31
 1001b7c:	1185c83a 	sub	r2,r2,r6
 1001b80:	1886983a 	sll	r3,r3,r2
 1001b84:	7996d83a 	srl	r11,r15,r6
 1001b88:	8198d83a 	srl	r12,r16,r6
 1001b8c:	1ad6b03a 	or	r11,r3,r11
 1001b90:	003f3e06 	br	100188c <_fpadd_parts+0xa8>
 1001b94:	2006d07a 	srli	r3,r4,1
 1001b98:	008007c4 	movi	r2,31
 1001b9c:	1185c83a 	sub	r2,r2,r6
 1001ba0:	1890d83a 	srl	r8,r3,r2
 1001ba4:	218e983a 	sll	r7,r4,r6
 1001ba8:	003f3e06 	br	10018a4 <_fpadd_parts+0xc0>
 1001bac:	113f821e 	bne	r2,r4,10019b8 <_fpadd_parts+0x1d4>
 1001bb0:	28c00117 	ldw	r3,4(r5)
 1001bb4:	98800117 	ldw	r2,4(r19)
 1001bb8:	10ff7f26 	beq	r2,r3,10019b8 <_fpadd_parts+0x1d4>
 1001bbc:	04c040b4 	movhi	r19,258
 1001bc0:	9ce7a604 	addi	r19,r19,-24936
 1001bc4:	003f7c06 	br	10019b8 <_fpadd_parts+0x1d4>
 1001bc8:	2006d07a 	srli	r3,r4,1
 1001bcc:	008007c4 	movi	r2,31
 1001bd0:	1185c83a 	sub	r2,r2,r6
 1001bd4:	1894d83a 	srl	r10,r3,r2
 1001bd8:	2192983a 	sll	r9,r4,r6
 1001bdc:	003fd706 	br	1001b3c <_fpadd_parts+0x358>
 1001be0:	9487883a 	add	r3,r18,r18
 1001be4:	008007c4 	movi	r2,31
 1001be8:	1185c83a 	sub	r2,r2,r6
 1001bec:	1886983a 	sll	r3,r3,r2
 1001bf0:	899ad83a 	srl	r13,r17,r6
 1001bf4:	919cd83a 	srl	r14,r18,r6
 1001bf8:	1b5ab03a 	or	r13,r3,r13
 1001bfc:	003fc906 	br	1001b24 <_fpadd_parts+0x340>

01001c00 <__subdf3>:
 1001c00:	f811883a 	mov	r8,ra
 1001c04:	100c3d80 	call	100c3d8 <_mcount>
 1001c08:	403f883a 	mov	ra,r8
 1001c0c:	deffea04 	addi	sp,sp,-88
 1001c10:	dfc01515 	stw	ra,84(sp)
 1001c14:	dcc01415 	stw	r19,80(sp)
 1001c18:	dc401315 	stw	r17,76(sp)
 1001c1c:	dcc00404 	addi	r19,sp,16
 1001c20:	2011883a 	mov	r8,r4
 1001c24:	2813883a 	mov	r9,r5
 1001c28:	d809883a 	mov	r4,sp
 1001c2c:	980b883a 	mov	r5,r19
 1001c30:	dc400904 	addi	r17,sp,36
 1001c34:	da400115 	stw	r9,4(sp)
 1001c38:	d9c00315 	stw	r7,12(sp)
 1001c3c:	da000015 	stw	r8,0(sp)
 1001c40:	d9800215 	stw	r6,8(sp)
 1001c44:	1002b880 	call	1002b88 <__unpack_d>
 1001c48:	d9000204 	addi	r4,sp,8
 1001c4c:	880b883a 	mov	r5,r17
 1001c50:	1002b880 	call	1002b88 <__unpack_d>
 1001c54:	d8800a17 	ldw	r2,40(sp)
 1001c58:	880b883a 	mov	r5,r17
 1001c5c:	9809883a 	mov	r4,r19
 1001c60:	d9800e04 	addi	r6,sp,56
 1001c64:	1080005c 	xori	r2,r2,1
 1001c68:	d8800a15 	stw	r2,40(sp)
 1001c6c:	10017e40 	call	10017e4 <_fpadd_parts>
 1001c70:	1009883a 	mov	r4,r2
 1001c74:	10028680 	call	1002868 <__pack_d>
 1001c78:	dfc01517 	ldw	ra,84(sp)
 1001c7c:	dcc01417 	ldw	r19,80(sp)
 1001c80:	dc401317 	ldw	r17,76(sp)
 1001c84:	dec01604 	addi	sp,sp,88
 1001c88:	f800283a 	ret

01001c8c <__adddf3>:
 1001c8c:	f811883a 	mov	r8,ra
 1001c90:	100c3d80 	call	100c3d8 <_mcount>
 1001c94:	403f883a 	mov	ra,r8
 1001c98:	deffea04 	addi	sp,sp,-88
 1001c9c:	dfc01515 	stw	ra,84(sp)
 1001ca0:	dcc01415 	stw	r19,80(sp)
 1001ca4:	dc401315 	stw	r17,76(sp)
 1001ca8:	dcc00404 	addi	r19,sp,16
 1001cac:	2011883a 	mov	r8,r4
 1001cb0:	2813883a 	mov	r9,r5
 1001cb4:	d809883a 	mov	r4,sp
 1001cb8:	980b883a 	mov	r5,r19
 1001cbc:	dc400904 	addi	r17,sp,36
 1001cc0:	da400115 	stw	r9,4(sp)
 1001cc4:	d9c00315 	stw	r7,12(sp)
 1001cc8:	da000015 	stw	r8,0(sp)
 1001ccc:	d9800215 	stw	r6,8(sp)
 1001cd0:	1002b880 	call	1002b88 <__unpack_d>
 1001cd4:	d9000204 	addi	r4,sp,8
 1001cd8:	880b883a 	mov	r5,r17
 1001cdc:	1002b880 	call	1002b88 <__unpack_d>
 1001ce0:	d9800e04 	addi	r6,sp,56
 1001ce4:	9809883a 	mov	r4,r19
 1001ce8:	880b883a 	mov	r5,r17
 1001cec:	10017e40 	call	10017e4 <_fpadd_parts>
 1001cf0:	1009883a 	mov	r4,r2
 1001cf4:	10028680 	call	1002868 <__pack_d>
 1001cf8:	dfc01517 	ldw	ra,84(sp)
 1001cfc:	dcc01417 	ldw	r19,80(sp)
 1001d00:	dc401317 	ldw	r17,76(sp)
 1001d04:	dec01604 	addi	sp,sp,88
 1001d08:	f800283a 	ret

01001d0c <__muldf3>:
 1001d0c:	f811883a 	mov	r8,ra
 1001d10:	100c3d80 	call	100c3d8 <_mcount>
 1001d14:	403f883a 	mov	ra,r8
 1001d18:	deffe004 	addi	sp,sp,-128
 1001d1c:	dfc01f15 	stw	ra,124(sp)
 1001d20:	ddc01e15 	stw	r23,120(sp)
 1001d24:	dd801d15 	stw	r22,116(sp)
 1001d28:	dd401c15 	stw	r21,112(sp)
 1001d2c:	dd001b15 	stw	r20,108(sp)
 1001d30:	dcc01a15 	stw	r19,104(sp)
 1001d34:	dc801915 	stw	r18,100(sp)
 1001d38:	dc401815 	stw	r17,96(sp)
 1001d3c:	dc001715 	stw	r16,92(sp)
 1001d40:	dc400404 	addi	r17,sp,16
 1001d44:	2011883a 	mov	r8,r4
 1001d48:	2813883a 	mov	r9,r5
 1001d4c:	d809883a 	mov	r4,sp
 1001d50:	880b883a 	mov	r5,r17
 1001d54:	dc000904 	addi	r16,sp,36
 1001d58:	da400115 	stw	r9,4(sp)
 1001d5c:	d9c00315 	stw	r7,12(sp)
 1001d60:	da000015 	stw	r8,0(sp)
 1001d64:	d9800215 	stw	r6,8(sp)
 1001d68:	1002b880 	call	1002b88 <__unpack_d>
 1001d6c:	d9000204 	addi	r4,sp,8
 1001d70:	800b883a 	mov	r5,r16
 1001d74:	1002b880 	call	1002b88 <__unpack_d>
 1001d78:	d9000417 	ldw	r4,16(sp)
 1001d7c:	00800044 	movi	r2,1
 1001d80:	1100102e 	bgeu	r2,r4,1001dc4 <__muldf3+0xb8>
 1001d84:	d8c00917 	ldw	r3,36(sp)
 1001d88:	10c0062e 	bgeu	r2,r3,1001da4 <__muldf3+0x98>
 1001d8c:	00800104 	movi	r2,4
 1001d90:	20800a26 	beq	r4,r2,1001dbc <__muldf3+0xb0>
 1001d94:	1880cc26 	beq	r3,r2,10020c8 <__muldf3+0x3bc>
 1001d98:	00800084 	movi	r2,2
 1001d9c:	20800926 	beq	r4,r2,1001dc4 <__muldf3+0xb8>
 1001da0:	1880191e 	bne	r3,r2,1001e08 <__muldf3+0xfc>
 1001da4:	d8c00a17 	ldw	r3,40(sp)
 1001da8:	d8800517 	ldw	r2,20(sp)
 1001dac:	8009883a 	mov	r4,r16
 1001db0:	10c4c03a 	cmpne	r2,r2,r3
 1001db4:	d8800a15 	stw	r2,40(sp)
 1001db8:	00000706 	br	1001dd8 <__muldf3+0xcc>
 1001dbc:	00800084 	movi	r2,2
 1001dc0:	1880c326 	beq	r3,r2,10020d0 <__muldf3+0x3c4>
 1001dc4:	d8800517 	ldw	r2,20(sp)
 1001dc8:	d8c00a17 	ldw	r3,40(sp)
 1001dcc:	8809883a 	mov	r4,r17
 1001dd0:	10c4c03a 	cmpne	r2,r2,r3
 1001dd4:	d8800515 	stw	r2,20(sp)
 1001dd8:	10028680 	call	1002868 <__pack_d>
 1001ddc:	dfc01f17 	ldw	ra,124(sp)
 1001de0:	ddc01e17 	ldw	r23,120(sp)
 1001de4:	dd801d17 	ldw	r22,116(sp)
 1001de8:	dd401c17 	ldw	r21,112(sp)
 1001dec:	dd001b17 	ldw	r20,108(sp)
 1001df0:	dcc01a17 	ldw	r19,104(sp)
 1001df4:	dc801917 	ldw	r18,100(sp)
 1001df8:	dc401817 	ldw	r17,96(sp)
 1001dfc:	dc001717 	ldw	r16,92(sp)
 1001e00:	dec02004 	addi	sp,sp,128
 1001e04:	f800283a 	ret
 1001e08:	dd800717 	ldw	r22,28(sp)
 1001e0c:	dc800c17 	ldw	r18,48(sp)
 1001e10:	002b883a 	mov	r21,zero
 1001e14:	0023883a 	mov	r17,zero
 1001e18:	a80b883a 	mov	r5,r21
 1001e1c:	b00d883a 	mov	r6,r22
 1001e20:	880f883a 	mov	r7,r17
 1001e24:	ddc00817 	ldw	r23,32(sp)
 1001e28:	dcc00d17 	ldw	r19,52(sp)
 1001e2c:	9009883a 	mov	r4,r18
 1001e30:	10026ac0 	call	10026ac <__muldi3>
 1001e34:	001b883a 	mov	r13,zero
 1001e38:	680f883a 	mov	r7,r13
 1001e3c:	b009883a 	mov	r4,r22
 1001e40:	000b883a 	mov	r5,zero
 1001e44:	980d883a 	mov	r6,r19
 1001e48:	b82d883a 	mov	r22,r23
 1001e4c:	002f883a 	mov	r23,zero
 1001e50:	db401615 	stw	r13,88(sp)
 1001e54:	d8801315 	stw	r2,76(sp)
 1001e58:	d8c01415 	stw	r3,80(sp)
 1001e5c:	dcc01515 	stw	r19,84(sp)
 1001e60:	10026ac0 	call	10026ac <__muldi3>
 1001e64:	b00d883a 	mov	r6,r22
 1001e68:	000b883a 	mov	r5,zero
 1001e6c:	9009883a 	mov	r4,r18
 1001e70:	b80f883a 	mov	r7,r23
 1001e74:	1021883a 	mov	r16,r2
 1001e78:	1823883a 	mov	r17,r3
 1001e7c:	10026ac0 	call	10026ac <__muldi3>
 1001e80:	8085883a 	add	r2,r16,r2
 1001e84:	140d803a 	cmpltu	r6,r2,r16
 1001e88:	88c7883a 	add	r3,r17,r3
 1001e8c:	30cd883a 	add	r6,r6,r3
 1001e90:	1029883a 	mov	r20,r2
 1001e94:	302b883a 	mov	r21,r6
 1001e98:	da801317 	ldw	r10,76(sp)
 1001e9c:	dac01417 	ldw	r11,80(sp)
 1001ea0:	db001517 	ldw	r12,84(sp)
 1001ea4:	db401617 	ldw	r13,88(sp)
 1001ea8:	3440612e 	bgeu	r6,r17,1002030 <__muldf3+0x324>
 1001eac:	0009883a 	mov	r4,zero
 1001eb0:	5105883a 	add	r2,r10,r4
 1001eb4:	128d803a 	cmpltu	r6,r2,r10
 1001eb8:	5d07883a 	add	r3,r11,r20
 1001ebc:	30cd883a 	add	r6,r6,r3
 1001ec0:	0021883a 	mov	r16,zero
 1001ec4:	04400044 	movi	r17,1
 1001ec8:	1025883a 	mov	r18,r2
 1001ecc:	3027883a 	mov	r19,r6
 1001ed0:	32c06236 	bltu	r6,r11,100205c <__muldf3+0x350>
 1001ed4:	59807a26 	beq	r11,r6,10020c0 <__muldf3+0x3b4>
 1001ed8:	680b883a 	mov	r5,r13
 1001edc:	b80f883a 	mov	r7,r23
 1001ee0:	6009883a 	mov	r4,r12
 1001ee4:	b00d883a 	mov	r6,r22
 1001ee8:	10026ac0 	call	10026ac <__muldi3>
 1001eec:	1009883a 	mov	r4,r2
 1001ef0:	000f883a 	mov	r7,zero
 1001ef4:	1545883a 	add	r2,r2,r21
 1001ef8:	1111803a 	cmpltu	r8,r2,r4
 1001efc:	19c7883a 	add	r3,r3,r7
 1001f00:	40c7883a 	add	r3,r8,r3
 1001f04:	88cb883a 	add	r5,r17,r3
 1001f08:	d8c00617 	ldw	r3,24(sp)
 1001f0c:	8089883a 	add	r4,r16,r2
 1001f10:	d8800b17 	ldw	r2,44(sp)
 1001f14:	18c00104 	addi	r3,r3,4
 1001f18:	240d803a 	cmpltu	r6,r4,r16
 1001f1c:	10c7883a 	add	r3,r2,r3
 1001f20:	2013883a 	mov	r9,r4
 1001f24:	d8800a17 	ldw	r2,40(sp)
 1001f28:	d9000517 	ldw	r4,20(sp)
 1001f2c:	314d883a 	add	r6,r6,r5
 1001f30:	3015883a 	mov	r10,r6
 1001f34:	2088c03a 	cmpne	r4,r4,r2
 1001f38:	00880034 	movhi	r2,8192
 1001f3c:	10bfffc4 	addi	r2,r2,-1
 1001f40:	d9000f15 	stw	r4,60(sp)
 1001f44:	d8c01015 	stw	r3,64(sp)
 1001f48:	1180162e 	bgeu	r2,r6,1001fa4 <__muldf3+0x298>
 1001f4c:	1811883a 	mov	r8,r3
 1001f50:	101f883a 	mov	r15,r2
 1001f54:	980497fa 	slli	r2,r19,31
 1001f58:	9016d07a 	srli	r11,r18,1
 1001f5c:	500697fa 	slli	r3,r10,31
 1001f60:	480cd07a 	srli	r6,r9,1
 1001f64:	500ed07a 	srli	r7,r10,1
 1001f68:	12d6b03a 	or	r11,r2,r11
 1001f6c:	00800044 	movi	r2,1
 1001f70:	198cb03a 	or	r6,r3,r6
 1001f74:	4888703a 	and	r4,r9,r2
 1001f78:	9818d07a 	srli	r12,r19,1
 1001f7c:	001b883a 	mov	r13,zero
 1001f80:	03a00034 	movhi	r14,32768
 1001f84:	3013883a 	mov	r9,r6
 1001f88:	3815883a 	mov	r10,r7
 1001f8c:	4091883a 	add	r8,r8,r2
 1001f90:	20000226 	beq	r4,zero,1001f9c <__muldf3+0x290>
 1001f94:	5b64b03a 	or	r18,r11,r13
 1001f98:	63a6b03a 	or	r19,r12,r14
 1001f9c:	7abfed36 	bltu	r15,r10,1001f54 <__muldf3+0x248>
 1001fa0:	da001015 	stw	r8,64(sp)
 1001fa4:	00840034 	movhi	r2,4096
 1001fa8:	10bfffc4 	addi	r2,r2,-1
 1001fac:	12801436 	bltu	r2,r10,1002000 <__muldf3+0x2f4>
 1001fb0:	da001017 	ldw	r8,64(sp)
 1001fb4:	101f883a 	mov	r15,r2
 1001fb8:	4a45883a 	add	r2,r9,r9
 1001fbc:	124d803a 	cmpltu	r6,r2,r9
 1001fc0:	5287883a 	add	r3,r10,r10
 1001fc4:	9497883a 	add	r11,r18,r18
 1001fc8:	5c8f803a 	cmpltu	r7,r11,r18
 1001fcc:	9cd9883a 	add	r12,r19,r19
 1001fd0:	01000044 	movi	r4,1
 1001fd4:	30cd883a 	add	r6,r6,r3
 1001fd8:	3b0f883a 	add	r7,r7,r12
 1001fdc:	423fffc4 	addi	r8,r8,-1
 1001fe0:	1013883a 	mov	r9,r2
 1001fe4:	3015883a 	mov	r10,r6
 1001fe8:	111ab03a 	or	r13,r2,r4
 1001fec:	98003016 	blt	r19,zero,10020b0 <__muldf3+0x3a4>
 1001ff0:	5825883a 	mov	r18,r11
 1001ff4:	3827883a 	mov	r19,r7
 1001ff8:	7abfef2e 	bgeu	r15,r10,1001fb8 <__muldf3+0x2ac>
 1001ffc:	da001015 	stw	r8,64(sp)
 1002000:	00803fc4 	movi	r2,255
 1002004:	488e703a 	and	r7,r9,r2
 1002008:	00802004 	movi	r2,128
 100200c:	0007883a 	mov	r3,zero
 1002010:	0011883a 	mov	r8,zero
 1002014:	38801826 	beq	r7,r2,1002078 <__muldf3+0x36c>
 1002018:	008000c4 	movi	r2,3
 100201c:	d9000e04 	addi	r4,sp,56
 1002020:	da801215 	stw	r10,72(sp)
 1002024:	d8800e15 	stw	r2,56(sp)
 1002028:	da401115 	stw	r9,68(sp)
 100202c:	003f6a06 	br	1001dd8 <__muldf3+0xcc>
 1002030:	89802126 	beq	r17,r6,10020b8 <__muldf3+0x3ac>
 1002034:	0009883a 	mov	r4,zero
 1002038:	5105883a 	add	r2,r10,r4
 100203c:	128d803a 	cmpltu	r6,r2,r10
 1002040:	5d07883a 	add	r3,r11,r20
 1002044:	30cd883a 	add	r6,r6,r3
 1002048:	0021883a 	mov	r16,zero
 100204c:	0023883a 	mov	r17,zero
 1002050:	1025883a 	mov	r18,r2
 1002054:	3027883a 	mov	r19,r6
 1002058:	32ff9e2e 	bgeu	r6,r11,1001ed4 <__muldf3+0x1c8>
 100205c:	00800044 	movi	r2,1
 1002060:	8089883a 	add	r4,r16,r2
 1002064:	240d803a 	cmpltu	r6,r4,r16
 1002068:	344d883a 	add	r6,r6,r17
 100206c:	2021883a 	mov	r16,r4
 1002070:	3023883a 	mov	r17,r6
 1002074:	003f9806 	br	1001ed8 <__muldf3+0x1cc>
 1002078:	403fe71e 	bne	r8,zero,1002018 <__muldf3+0x30c>
 100207c:	01004004 	movi	r4,256
 1002080:	4904703a 	and	r2,r9,r4
 1002084:	10c4b03a 	or	r2,r2,r3
 1002088:	103fe31e 	bne	r2,zero,1002018 <__muldf3+0x30c>
 100208c:	94c4b03a 	or	r2,r18,r19
 1002090:	103fe126 	beq	r2,zero,1002018 <__muldf3+0x30c>
 1002094:	49c5883a 	add	r2,r9,r7
 1002098:	1251803a 	cmpltu	r8,r2,r9
 100209c:	4291883a 	add	r8,r8,r10
 10020a0:	013fc004 	movi	r4,-256
 10020a4:	1112703a 	and	r9,r2,r4
 10020a8:	4015883a 	mov	r10,r8
 10020ac:	003fda06 	br	1002018 <__muldf3+0x30c>
 10020b0:	6813883a 	mov	r9,r13
 10020b4:	003fce06 	br	1001ff0 <__muldf3+0x2e4>
 10020b8:	143f7c36 	bltu	r2,r16,1001eac <__muldf3+0x1a0>
 10020bc:	003fdd06 	br	1002034 <__muldf3+0x328>
 10020c0:	12bf852e 	bgeu	r2,r10,1001ed8 <__muldf3+0x1cc>
 10020c4:	003fe506 	br	100205c <__muldf3+0x350>
 10020c8:	00800084 	movi	r2,2
 10020cc:	20bf351e 	bne	r4,r2,1001da4 <__muldf3+0x98>
 10020d0:	010040b4 	movhi	r4,258
 10020d4:	2127a604 	addi	r4,r4,-24936
 10020d8:	003f3f06 	br	1001dd8 <__muldf3+0xcc>

010020dc <__divdf3>:
 10020dc:	f811883a 	mov	r8,ra
 10020e0:	100c3d80 	call	100c3d8 <_mcount>
 10020e4:	403f883a 	mov	ra,r8
 10020e8:	deffed04 	addi	sp,sp,-76
 10020ec:	dfc01215 	stw	ra,72(sp)
 10020f0:	dcc01115 	stw	r19,68(sp)
 10020f4:	dc801015 	stw	r18,64(sp)
 10020f8:	dc400f15 	stw	r17,60(sp)
 10020fc:	dc000e15 	stw	r16,56(sp)
 1002100:	dcc00404 	addi	r19,sp,16
 1002104:	2011883a 	mov	r8,r4
 1002108:	2813883a 	mov	r9,r5
 100210c:	d809883a 	mov	r4,sp
 1002110:	980b883a 	mov	r5,r19
 1002114:	dc000904 	addi	r16,sp,36
 1002118:	da400115 	stw	r9,4(sp)
 100211c:	d9c00315 	stw	r7,12(sp)
 1002120:	da000015 	stw	r8,0(sp)
 1002124:	d9800215 	stw	r6,8(sp)
 1002128:	1002b880 	call	1002b88 <__unpack_d>
 100212c:	d9000204 	addi	r4,sp,8
 1002130:	800b883a 	mov	r5,r16
 1002134:	1002b880 	call	1002b88 <__unpack_d>
 1002138:	d9000417 	ldw	r4,16(sp)
 100213c:	00800044 	movi	r2,1
 1002140:	11000b2e 	bgeu	r2,r4,1002170 <__divdf3+0x94>
 1002144:	d9400917 	ldw	r5,36(sp)
 1002148:	1140762e 	bgeu	r2,r5,1002324 <__divdf3+0x248>
 100214c:	d8800517 	ldw	r2,20(sp)
 1002150:	d8c00a17 	ldw	r3,40(sp)
 1002154:	01800104 	movi	r6,4
 1002158:	10c4f03a 	xor	r2,r2,r3
 100215c:	d8800515 	stw	r2,20(sp)
 1002160:	21800226 	beq	r4,r6,100216c <__divdf3+0x90>
 1002164:	00800084 	movi	r2,2
 1002168:	2080141e 	bne	r4,r2,10021bc <__divdf3+0xe0>
 100216c:	29000926 	beq	r5,r4,1002194 <__divdf3+0xb8>
 1002170:	9809883a 	mov	r4,r19
 1002174:	10028680 	call	1002868 <__pack_d>
 1002178:	dfc01217 	ldw	ra,72(sp)
 100217c:	dcc01117 	ldw	r19,68(sp)
 1002180:	dc801017 	ldw	r18,64(sp)
 1002184:	dc400f17 	ldw	r17,60(sp)
 1002188:	dc000e17 	ldw	r16,56(sp)
 100218c:	dec01304 	addi	sp,sp,76
 1002190:	f800283a 	ret
 1002194:	010040b4 	movhi	r4,258
 1002198:	2127a604 	addi	r4,r4,-24936
 100219c:	10028680 	call	1002868 <__pack_d>
 10021a0:	dfc01217 	ldw	ra,72(sp)
 10021a4:	dcc01117 	ldw	r19,68(sp)
 10021a8:	dc801017 	ldw	r18,64(sp)
 10021ac:	dc400f17 	ldw	r17,60(sp)
 10021b0:	dc000e17 	ldw	r16,56(sp)
 10021b4:	dec01304 	addi	sp,sp,76
 10021b8:	f800283a 	ret
 10021bc:	29805b26 	beq	r5,r6,100232c <__divdf3+0x250>
 10021c0:	28802d26 	beq	r5,r2,1002278 <__divdf3+0x19c>
 10021c4:	d8c00617 	ldw	r3,24(sp)
 10021c8:	d8800b17 	ldw	r2,44(sp)
 10021cc:	d9c00817 	ldw	r7,32(sp)
 10021d0:	dc400d17 	ldw	r17,52(sp)
 10021d4:	188bc83a 	sub	r5,r3,r2
 10021d8:	d9800717 	ldw	r6,28(sp)
 10021dc:	dc000c17 	ldw	r16,48(sp)
 10021e0:	d9400615 	stw	r5,24(sp)
 10021e4:	3c403836 	bltu	r7,r17,10022c8 <__divdf3+0x1ec>
 10021e8:	89c03626 	beq	r17,r7,10022c4 <__divdf3+0x1e8>
 10021ec:	0015883a 	mov	r10,zero
 10021f0:	001d883a 	mov	r14,zero
 10021f4:	02c40034 	movhi	r11,4096
 10021f8:	001f883a 	mov	r15,zero
 10021fc:	003f883a 	mov	ra,zero
 1002200:	04800f44 	movi	r18,61
 1002204:	00000f06 	br	1002244 <__divdf3+0x168>
 1002208:	601d883a 	mov	r14,r12
 100220c:	681f883a 	mov	r15,r13
 1002210:	400d883a 	mov	r6,r8
 1002214:	100f883a 	mov	r7,r2
 1002218:	3191883a 	add	r8,r6,r6
 100221c:	5808d07a 	srli	r4,r11,1
 1002220:	4185803a 	cmpltu	r2,r8,r6
 1002224:	39d3883a 	add	r9,r7,r7
 1002228:	28c6b03a 	or	r3,r5,r3
 100222c:	1245883a 	add	r2,r2,r9
 1002230:	1815883a 	mov	r10,r3
 1002234:	2017883a 	mov	r11,r4
 1002238:	400d883a 	mov	r6,r8
 100223c:	100f883a 	mov	r7,r2
 1002240:	fc801726 	beq	ra,r18,10022a0 <__divdf3+0x1c4>
 1002244:	580a97fa 	slli	r5,r11,31
 1002248:	5006d07a 	srli	r3,r10,1
 100224c:	ffc00044 	addi	ra,ra,1
 1002250:	3c7ff136 	bltu	r7,r17,1002218 <__divdf3+0x13c>
 1002254:	3411c83a 	sub	r8,r6,r16
 1002258:	3205803a 	cmpltu	r2,r6,r8
 100225c:	3c53c83a 	sub	r9,r7,r17
 1002260:	7298b03a 	or	r12,r14,r10
 1002264:	7adab03a 	or	r13,r15,r11
 1002268:	4885c83a 	sub	r2,r9,r2
 100226c:	89ffe61e 	bne	r17,r7,1002208 <__divdf3+0x12c>
 1002270:	343fe936 	bltu	r6,r16,1002218 <__divdf3+0x13c>
 1002274:	003fe406 	br	1002208 <__divdf3+0x12c>
 1002278:	9809883a 	mov	r4,r19
 100227c:	d9800415 	stw	r6,16(sp)
 1002280:	10028680 	call	1002868 <__pack_d>
 1002284:	dfc01217 	ldw	ra,72(sp)
 1002288:	dcc01117 	ldw	r19,68(sp)
 100228c:	dc801017 	ldw	r18,64(sp)
 1002290:	dc400f17 	ldw	r17,60(sp)
 1002294:	dc000e17 	ldw	r16,56(sp)
 1002298:	dec01304 	addi	sp,sp,76
 100229c:	f800283a 	ret
 10022a0:	00803fc4 	movi	r2,255
 10022a4:	7090703a 	and	r8,r14,r2
 10022a8:	00802004 	movi	r2,128
 10022ac:	0007883a 	mov	r3,zero
 10022b0:	0013883a 	mov	r9,zero
 10022b4:	40800d26 	beq	r8,r2,10022ec <__divdf3+0x210>
 10022b8:	dbc00815 	stw	r15,32(sp)
 10022bc:	db800715 	stw	r14,28(sp)
 10022c0:	003fab06 	br	1002170 <__divdf3+0x94>
 10022c4:	343fc92e 	bgeu	r6,r16,10021ec <__divdf3+0x110>
 10022c8:	3185883a 	add	r2,r6,r6
 10022cc:	1189803a 	cmpltu	r4,r2,r6
 10022d0:	39c7883a 	add	r3,r7,r7
 10022d4:	20c9883a 	add	r4,r4,r3
 10022d8:	297fffc4 	addi	r5,r5,-1
 10022dc:	100d883a 	mov	r6,r2
 10022e0:	200f883a 	mov	r7,r4
 10022e4:	d9400615 	stw	r5,24(sp)
 10022e8:	003fc006 	br	10021ec <__divdf3+0x110>
 10022ec:	483ff21e 	bne	r9,zero,10022b8 <__divdf3+0x1dc>
 10022f0:	01004004 	movi	r4,256
 10022f4:	7104703a 	and	r2,r14,r4
 10022f8:	10c4b03a 	or	r2,r2,r3
 10022fc:	103fee1e 	bne	r2,zero,10022b8 <__divdf3+0x1dc>
 1002300:	31c4b03a 	or	r2,r6,r7
 1002304:	103fec26 	beq	r2,zero,10022b8 <__divdf3+0x1dc>
 1002308:	7205883a 	add	r2,r14,r8
 100230c:	1391803a 	cmpltu	r8,r2,r14
 1002310:	43d1883a 	add	r8,r8,r15
 1002314:	013fc004 	movi	r4,-256
 1002318:	111c703a 	and	r14,r2,r4
 100231c:	401f883a 	mov	r15,r8
 1002320:	003fe506 	br	10022b8 <__divdf3+0x1dc>
 1002324:	8009883a 	mov	r4,r16
 1002328:	003f9206 	br	1002174 <__divdf3+0x98>
 100232c:	9809883a 	mov	r4,r19
 1002330:	d8000715 	stw	zero,28(sp)
 1002334:	d8000815 	stw	zero,32(sp)
 1002338:	d8000615 	stw	zero,24(sp)
 100233c:	003f8d06 	br	1002174 <__divdf3+0x98>

01002340 <__floatunsidf>:
 1002340:	f811883a 	mov	r8,ra
 1002344:	100c3d80 	call	100c3d8 <_mcount>
 1002348:	403f883a 	mov	ra,r8
 100234c:	defff204 	addi	sp,sp,-56
 1002350:	dfc00d15 	stw	ra,52(sp)
 1002354:	ddc00c15 	stw	r23,48(sp)
 1002358:	dd800b15 	stw	r22,44(sp)
 100235c:	dd400a15 	stw	r21,40(sp)
 1002360:	dd000915 	stw	r20,36(sp)
 1002364:	dcc00815 	stw	r19,32(sp)
 1002368:	dc800715 	stw	r18,28(sp)
 100236c:	dc400615 	stw	r17,24(sp)
 1002370:	dc000515 	stw	r16,20(sp)
 1002374:	d8000115 	stw	zero,4(sp)
 1002378:	20000f1e 	bne	r4,zero,10023b8 <__floatunsidf+0x78>
 100237c:	00800084 	movi	r2,2
 1002380:	d8800015 	stw	r2,0(sp)
 1002384:	d809883a 	mov	r4,sp
 1002388:	10028680 	call	1002868 <__pack_d>
 100238c:	dfc00d17 	ldw	ra,52(sp)
 1002390:	ddc00c17 	ldw	r23,48(sp)
 1002394:	dd800b17 	ldw	r22,44(sp)
 1002398:	dd400a17 	ldw	r21,40(sp)
 100239c:	dd000917 	ldw	r20,36(sp)
 10023a0:	dcc00817 	ldw	r19,32(sp)
 10023a4:	dc800717 	ldw	r18,28(sp)
 10023a8:	dc400617 	ldw	r17,24(sp)
 10023ac:	dc000517 	ldw	r16,20(sp)
 10023b0:	dec00e04 	addi	sp,sp,56
 10023b4:	f800283a 	ret
 10023b8:	008000c4 	movi	r2,3
 10023bc:	00c00f04 	movi	r3,60
 10023c0:	002f883a 	mov	r23,zero
 10023c4:	202d883a 	mov	r22,r4
 10023c8:	d8800015 	stw	r2,0(sp)
 10023cc:	d8c00215 	stw	r3,8(sp)
 10023d0:	d9000315 	stw	r4,12(sp)
 10023d4:	ddc00415 	stw	r23,16(sp)
 10023d8:	10027dc0 	call	10027dc <__clzsi2>
 10023dc:	12400744 	addi	r9,r2,29
 10023e0:	48000b16 	blt	r9,zero,1002410 <__floatunsidf+0xd0>
 10023e4:	483fe726 	beq	r9,zero,1002384 <__floatunsidf+0x44>
 10023e8:	10bfff44 	addi	r2,r2,-3
 10023ec:	10002e16 	blt	r2,zero,10024a8 <__floatunsidf+0x168>
 10023f0:	b0a2983a 	sll	r17,r22,r2
 10023f4:	0021883a 	mov	r16,zero
 10023f8:	d8800217 	ldw	r2,8(sp)
 10023fc:	dc400415 	stw	r17,16(sp)
 1002400:	dc000315 	stw	r16,12(sp)
 1002404:	1245c83a 	sub	r2,r2,r9
 1002408:	d8800215 	stw	r2,8(sp)
 100240c:	003fdd06 	br	1002384 <__floatunsidf+0x44>
 1002410:	0255c83a 	sub	r10,zero,r9
 1002414:	51bff804 	addi	r6,r10,-32
 1002418:	30001b16 	blt	r6,zero,1002488 <__floatunsidf+0x148>
 100241c:	b9a8d83a 	srl	r20,r23,r6
 1002420:	002b883a 	mov	r21,zero
 1002424:	000f883a 	mov	r7,zero
 1002428:	01000044 	movi	r4,1
 100242c:	0011883a 	mov	r8,zero
 1002430:	30002516 	blt	r6,zero,10024c8 <__floatunsidf+0x188>
 1002434:	21a6983a 	sll	r19,r4,r6
 1002438:	0025883a 	mov	r18,zero
 100243c:	00bfffc4 	movi	r2,-1
 1002440:	9089883a 	add	r4,r18,r2
 1002444:	988b883a 	add	r5,r19,r2
 1002448:	248d803a 	cmpltu	r6,r4,r18
 100244c:	314b883a 	add	r5,r6,r5
 1002450:	b104703a 	and	r2,r22,r4
 1002454:	b946703a 	and	r3,r23,r5
 1002458:	10c4b03a 	or	r2,r2,r3
 100245c:	10000226 	beq	r2,zero,1002468 <__floatunsidf+0x128>
 1002460:	01c00044 	movi	r7,1
 1002464:	0011883a 	mov	r8,zero
 1002468:	d9000217 	ldw	r4,8(sp)
 100246c:	a1c4b03a 	or	r2,r20,r7
 1002470:	aa06b03a 	or	r3,r21,r8
 1002474:	2249c83a 	sub	r4,r4,r9
 1002478:	d8c00415 	stw	r3,16(sp)
 100247c:	d9000215 	stw	r4,8(sp)
 1002480:	d8800315 	stw	r2,12(sp)
 1002484:	003fbf06 	br	1002384 <__floatunsidf+0x44>
 1002488:	bdc7883a 	add	r3,r23,r23
 100248c:	008007c4 	movi	r2,31
 1002490:	1285c83a 	sub	r2,r2,r10
 1002494:	1886983a 	sll	r3,r3,r2
 1002498:	b2a8d83a 	srl	r20,r22,r10
 100249c:	baaad83a 	srl	r21,r23,r10
 10024a0:	1d28b03a 	or	r20,r3,r20
 10024a4:	003fdf06 	br	1002424 <__floatunsidf+0xe4>
 10024a8:	b006d07a 	srli	r3,r22,1
 10024ac:	008007c4 	movi	r2,31
 10024b0:	1245c83a 	sub	r2,r2,r9
 10024b4:	1886d83a 	srl	r3,r3,r2
 10024b8:	ba62983a 	sll	r17,r23,r9
 10024bc:	b260983a 	sll	r16,r22,r9
 10024c0:	1c62b03a 	or	r17,r3,r17
 10024c4:	003fcc06 	br	10023f8 <__floatunsidf+0xb8>
 10024c8:	2006d07a 	srli	r3,r4,1
 10024cc:	008007c4 	movi	r2,31
 10024d0:	1285c83a 	sub	r2,r2,r10
 10024d4:	18a6d83a 	srl	r19,r3,r2
 10024d8:	22a4983a 	sll	r18,r4,r10
 10024dc:	003fd706 	br	100243c <__floatunsidf+0xfc>

010024e0 <udivmodsi4>:
 10024e0:	f811883a 	mov	r8,ra
 10024e4:	100c3d80 	call	100c3d8 <_mcount>
 10024e8:	403f883a 	mov	ra,r8
 10024ec:	29001b2e 	bgeu	r5,r4,100255c <udivmodsi4+0x7c>
 10024f0:	28001a16 	blt	r5,zero,100255c <udivmodsi4+0x7c>
 10024f4:	00800044 	movi	r2,1
 10024f8:	0007883a 	mov	r3,zero
 10024fc:	01c007c4 	movi	r7,31
 1002500:	00000306 	br	1002510 <udivmodsi4+0x30>
 1002504:	19c01326 	beq	r3,r7,1002554 <udivmodsi4+0x74>
 1002508:	18c00044 	addi	r3,r3,1
 100250c:	28000416 	blt	r5,zero,1002520 <udivmodsi4+0x40>
 1002510:	294b883a 	add	r5,r5,r5
 1002514:	1085883a 	add	r2,r2,r2
 1002518:	293ffa36 	bltu	r5,r4,1002504 <udivmodsi4+0x24>
 100251c:	10000d26 	beq	r2,zero,1002554 <udivmodsi4+0x74>
 1002520:	0007883a 	mov	r3,zero
 1002524:	21400236 	bltu	r4,r5,1002530 <udivmodsi4+0x50>
 1002528:	2149c83a 	sub	r4,r4,r5
 100252c:	1886b03a 	or	r3,r3,r2
 1002530:	1004d07a 	srli	r2,r2,1
 1002534:	280ad07a 	srli	r5,r5,1
 1002538:	103ffa1e 	bne	r2,zero,1002524 <udivmodsi4+0x44>
 100253c:	30000226 	beq	r6,zero,1002548 <udivmodsi4+0x68>
 1002540:	2005883a 	mov	r2,r4
 1002544:	f800283a 	ret
 1002548:	1809883a 	mov	r4,r3
 100254c:	2005883a 	mov	r2,r4
 1002550:	f800283a 	ret
 1002554:	0007883a 	mov	r3,zero
 1002558:	003ff806 	br	100253c <udivmodsi4+0x5c>
 100255c:	00800044 	movi	r2,1
 1002560:	0007883a 	mov	r3,zero
 1002564:	003fef06 	br	1002524 <udivmodsi4+0x44>

01002568 <__divsi3>:
 1002568:	f811883a 	mov	r8,ra
 100256c:	100c3d80 	call	100c3d8 <_mcount>
 1002570:	403f883a 	mov	ra,r8
 1002574:	defffe04 	addi	sp,sp,-8
 1002578:	dfc00115 	stw	ra,4(sp)
 100257c:	dc000015 	stw	r16,0(sp)
 1002580:	0021883a 	mov	r16,zero
 1002584:	20000c16 	blt	r4,zero,10025b8 <__divsi3+0x50>
 1002588:	000d883a 	mov	r6,zero
 100258c:	28000e16 	blt	r5,zero,10025c8 <__divsi3+0x60>
 1002590:	10024e00 	call	10024e0 <udivmodsi4>
 1002594:	1007883a 	mov	r3,r2
 1002598:	8005003a 	cmpeq	r2,r16,zero
 100259c:	1000011e 	bne	r2,zero,10025a4 <__divsi3+0x3c>
 10025a0:	00c7c83a 	sub	r3,zero,r3
 10025a4:	1805883a 	mov	r2,r3
 10025a8:	dfc00117 	ldw	ra,4(sp)
 10025ac:	dc000017 	ldw	r16,0(sp)
 10025b0:	dec00204 	addi	sp,sp,8
 10025b4:	f800283a 	ret
 10025b8:	0109c83a 	sub	r4,zero,r4
 10025bc:	04000044 	movi	r16,1
 10025c0:	000d883a 	mov	r6,zero
 10025c4:	283ff20e 	bge	r5,zero,1002590 <__divsi3+0x28>
 10025c8:	014bc83a 	sub	r5,zero,r5
 10025cc:	8021003a 	cmpeq	r16,r16,zero
 10025d0:	003fef06 	br	1002590 <__divsi3+0x28>

010025d4 <__modsi3>:
 10025d4:	f811883a 	mov	r8,ra
 10025d8:	100c3d80 	call	100c3d8 <_mcount>
 10025dc:	403f883a 	mov	ra,r8
 10025e0:	deffff04 	addi	sp,sp,-4
 10025e4:	dfc00015 	stw	ra,0(sp)
 10025e8:	01800044 	movi	r6,1
 10025ec:	2807883a 	mov	r3,r5
 10025f0:	20000416 	blt	r4,zero,1002604 <__modsi3+0x30>
 10025f4:	28000c16 	blt	r5,zero,1002628 <__modsi3+0x54>
 10025f8:	dfc00017 	ldw	ra,0(sp)
 10025fc:	dec00104 	addi	sp,sp,4
 1002600:	10024e01 	jmpi	10024e0 <udivmodsi4>
 1002604:	0109c83a 	sub	r4,zero,r4
 1002608:	28000b16 	blt	r5,zero,1002638 <__modsi3+0x64>
 100260c:	180b883a 	mov	r5,r3
 1002610:	01800044 	movi	r6,1
 1002614:	10024e00 	call	10024e0 <udivmodsi4>
 1002618:	0085c83a 	sub	r2,zero,r2
 100261c:	dfc00017 	ldw	ra,0(sp)
 1002620:	dec00104 	addi	sp,sp,4
 1002624:	f800283a 	ret
 1002628:	014bc83a 	sub	r5,zero,r5
 100262c:	dfc00017 	ldw	ra,0(sp)
 1002630:	dec00104 	addi	sp,sp,4
 1002634:	10024e01 	jmpi	10024e0 <udivmodsi4>
 1002638:	0147c83a 	sub	r3,zero,r5
 100263c:	003ff306 	br	100260c <__modsi3+0x38>

01002640 <__udivsi3>:
 1002640:	f811883a 	mov	r8,ra
 1002644:	100c3d80 	call	100c3d8 <_mcount>
 1002648:	403f883a 	mov	ra,r8
 100264c:	000d883a 	mov	r6,zero
 1002650:	10024e01 	jmpi	10024e0 <udivmodsi4>

01002654 <__umodsi3>:
 1002654:	f811883a 	mov	r8,ra
 1002658:	100c3d80 	call	100c3d8 <_mcount>
 100265c:	403f883a 	mov	ra,r8
 1002660:	01800044 	movi	r6,1
 1002664:	10024e01 	jmpi	10024e0 <udivmodsi4>

01002668 <__mulsi3>:
 1002668:	f811883a 	mov	r8,ra
 100266c:	100c3d80 	call	100c3d8 <_mcount>
 1002670:	403f883a 	mov	ra,r8
 1002674:	20000a26 	beq	r4,zero,10026a0 <__mulsi3+0x38>
 1002678:	0007883a 	mov	r3,zero
 100267c:	2080004c 	andi	r2,r4,1
 1002680:	1005003a 	cmpeq	r2,r2,zero
 1002684:	2008d07a 	srli	r4,r4,1
 1002688:	1000011e 	bne	r2,zero,1002690 <__mulsi3+0x28>
 100268c:	1947883a 	add	r3,r3,r5
 1002690:	294b883a 	add	r5,r5,r5
 1002694:	203ff91e 	bne	r4,zero,100267c <__mulsi3+0x14>
 1002698:	1805883a 	mov	r2,r3
 100269c:	f800283a 	ret
 10026a0:	0007883a 	mov	r3,zero
 10026a4:	1805883a 	mov	r2,r3
 10026a8:	f800283a 	ret

010026ac <__muldi3>:
 10026ac:	f811883a 	mov	r8,ra
 10026b0:	100c3d80 	call	100c3d8 <_mcount>
 10026b4:	403f883a 	mov	ra,r8
 10026b8:	defff204 	addi	sp,sp,-56
 10026bc:	dfc00d15 	stw	ra,52(sp)
 10026c0:	df000c15 	stw	fp,48(sp)
 10026c4:	ddc00b15 	stw	r23,44(sp)
 10026c8:	dd800a15 	stw	r22,40(sp)
 10026cc:	dd400915 	stw	r21,36(sp)
 10026d0:	dd000815 	stw	r20,32(sp)
 10026d4:	dcc00715 	stw	r19,28(sp)
 10026d8:	dc800615 	stw	r18,24(sp)
 10026dc:	dc400515 	stw	r17,20(sp)
 10026e0:	dc000415 	stw	r16,16(sp)
 10026e4:	3038d43a 	srli	fp,r6,16
 10026e8:	343fffcc 	andi	r16,r6,65535
 10026ec:	2028d43a 	srli	r20,r4,16
 10026f0:	247fffcc 	andi	r17,r4,65535
 10026f4:	2827883a 	mov	r19,r5
 10026f8:	d9000015 	stw	r4,0(sp)
 10026fc:	d9400115 	stw	r5,4(sp)
 1002700:	8809883a 	mov	r4,r17
 1002704:	800b883a 	mov	r5,r16
 1002708:	302d883a 	mov	r22,r6
 100270c:	d9800215 	stw	r6,8(sp)
 1002710:	d9c00315 	stw	r7,12(sp)
 1002714:	10026680 	call	1002668 <__mulsi3>
 1002718:	8809883a 	mov	r4,r17
 100271c:	e00b883a 	mov	r5,fp
 1002720:	102b883a 	mov	r21,r2
 1002724:	10026680 	call	1002668 <__mulsi3>
 1002728:	800b883a 	mov	r5,r16
 100272c:	a009883a 	mov	r4,r20
 1002730:	1023883a 	mov	r17,r2
 1002734:	10026680 	call	1002668 <__mulsi3>
 1002738:	a009883a 	mov	r4,r20
 100273c:	e00b883a 	mov	r5,fp
 1002740:	1021883a 	mov	r16,r2
 1002744:	10026680 	call	1002668 <__mulsi3>
 1002748:	a8ffffcc 	andi	r3,r21,65535
 100274c:	a82ad43a 	srli	r21,r21,16
 1002750:	8c23883a 	add	r17,r17,r16
 1002754:	1011883a 	mov	r8,r2
 1002758:	ac6b883a 	add	r21,r21,r17
 100275c:	a804943a 	slli	r2,r21,16
 1002760:	b009883a 	mov	r4,r22
 1002764:	980b883a 	mov	r5,r19
 1002768:	10c7883a 	add	r3,r2,r3
 100276c:	a812d43a 	srli	r9,r21,16
 1002770:	180d883a 	mov	r6,r3
 1002774:	ac00022e 	bgeu	r21,r16,1002780 <__muldi3+0xd4>
 1002778:	00800074 	movhi	r2,1
 100277c:	4091883a 	add	r8,r8,r2
 1002780:	4267883a 	add	r19,r8,r9
 1002784:	302d883a 	mov	r22,r6
 1002788:	10026680 	call	1002668 <__mulsi3>
 100278c:	d9400317 	ldw	r5,12(sp)
 1002790:	d9000017 	ldw	r4,0(sp)
 1002794:	1023883a 	mov	r17,r2
 1002798:	10026680 	call	1002668 <__mulsi3>
 100279c:	14cb883a 	add	r5,r2,r19
 10027a0:	894b883a 	add	r5,r17,r5
 10027a4:	b005883a 	mov	r2,r22
 10027a8:	2807883a 	mov	r3,r5
 10027ac:	dfc00d17 	ldw	ra,52(sp)
 10027b0:	df000c17 	ldw	fp,48(sp)
 10027b4:	ddc00b17 	ldw	r23,44(sp)
 10027b8:	dd800a17 	ldw	r22,40(sp)
 10027bc:	dd400917 	ldw	r21,36(sp)
 10027c0:	dd000817 	ldw	r20,32(sp)
 10027c4:	dcc00717 	ldw	r19,28(sp)
 10027c8:	dc800617 	ldw	r18,24(sp)
 10027cc:	dc400517 	ldw	r17,20(sp)
 10027d0:	dc000417 	ldw	r16,16(sp)
 10027d4:	dec00e04 	addi	sp,sp,56
 10027d8:	f800283a 	ret

010027dc <__clzsi2>:
 10027dc:	f811883a 	mov	r8,ra
 10027e0:	100c3d80 	call	100c3d8 <_mcount>
 10027e4:	403f883a 	mov	ra,r8
 10027e8:	00bfffd4 	movui	r2,65535
 10027ec:	11000e36 	bltu	r2,r4,1002828 <__clzsi2+0x4c>
 10027f0:	00803fc4 	movi	r2,255
 10027f4:	01400204 	movi	r5,8
 10027f8:	0007883a 	mov	r3,zero
 10027fc:	11001036 	bltu	r2,r4,1002840 <__clzsi2+0x64>
 1002800:	000b883a 	mov	r5,zero
 1002804:	20c6d83a 	srl	r3,r4,r3
 1002808:	008040b4 	movhi	r2,258
 100280c:	10a7ab04 	addi	r2,r2,-24916
 1002810:	1887883a 	add	r3,r3,r2
 1002814:	18800003 	ldbu	r2,0(r3)
 1002818:	00c00804 	movi	r3,32
 100281c:	2885883a 	add	r2,r5,r2
 1002820:	1885c83a 	sub	r2,r3,r2
 1002824:	f800283a 	ret
 1002828:	01400404 	movi	r5,16
 100282c:	00804034 	movhi	r2,256
 1002830:	10bfffc4 	addi	r2,r2,-1
 1002834:	2807883a 	mov	r3,r5
 1002838:	113ff22e 	bgeu	r2,r4,1002804 <__clzsi2+0x28>
 100283c:	01400604 	movi	r5,24
 1002840:	2807883a 	mov	r3,r5
 1002844:	20c6d83a 	srl	r3,r4,r3
 1002848:	008040b4 	movhi	r2,258
 100284c:	10a7ab04 	addi	r2,r2,-24916
 1002850:	1887883a 	add	r3,r3,r2
 1002854:	18800003 	ldbu	r2,0(r3)
 1002858:	00c00804 	movi	r3,32
 100285c:	2885883a 	add	r2,r5,r2
 1002860:	1885c83a 	sub	r2,r3,r2
 1002864:	f800283a 	ret

01002868 <__pack_d>:
 1002868:	f811883a 	mov	r8,ra
 100286c:	100c3d80 	call	100c3d8 <_mcount>
 1002870:	403f883a 	mov	ra,r8
 1002874:	defffd04 	addi	sp,sp,-12
 1002878:	dc800215 	stw	r18,8(sp)
 100287c:	dc400115 	stw	r17,4(sp)
 1002880:	dc000015 	stw	r16,0(sp)
 1002884:	20c00017 	ldw	r3,0(r4)
 1002888:	00800044 	movi	r2,1
 100288c:	22000317 	ldw	r8,12(r4)
 1002890:	001f883a 	mov	r15,zero
 1002894:	22400417 	ldw	r9,16(r4)
 1002898:	24000117 	ldw	r16,4(r4)
 100289c:	10c0552e 	bgeu	r2,r3,10029f4 <__pack_d+0x18c>
 10028a0:	00800104 	movi	r2,4
 10028a4:	18804f26 	beq	r3,r2,10029e4 <__pack_d+0x17c>
 10028a8:	00800084 	movi	r2,2
 10028ac:	18800226 	beq	r3,r2,10028b8 <__pack_d+0x50>
 10028b0:	4244b03a 	or	r2,r8,r9
 10028b4:	10001a1e 	bne	r2,zero,1002920 <__pack_d+0xb8>
 10028b8:	000d883a 	mov	r6,zero
 10028bc:	000f883a 	mov	r7,zero
 10028c0:	0011883a 	mov	r8,zero
 10028c4:	00800434 	movhi	r2,16
 10028c8:	10bfffc4 	addi	r2,r2,-1
 10028cc:	301d883a 	mov	r14,r6
 10028d0:	3884703a 	and	r2,r7,r2
 10028d4:	400a953a 	slli	r5,r8,20
 10028d8:	79bffc2c 	andhi	r6,r15,65520
 10028dc:	308cb03a 	or	r6,r6,r2
 10028e0:	00e00434 	movhi	r3,32784
 10028e4:	18ffffc4 	addi	r3,r3,-1
 10028e8:	800497fa 	slli	r2,r16,31
 10028ec:	30c6703a 	and	r3,r6,r3
 10028f0:	1946b03a 	or	r3,r3,r5
 10028f4:	01600034 	movhi	r5,32768
 10028f8:	297fffc4 	addi	r5,r5,-1
 10028fc:	194a703a 	and	r5,r3,r5
 1002900:	288ab03a 	or	r5,r5,r2
 1002904:	2807883a 	mov	r3,r5
 1002908:	7005883a 	mov	r2,r14
 100290c:	dc800217 	ldw	r18,8(sp)
 1002910:	dc400117 	ldw	r17,4(sp)
 1002914:	dc000017 	ldw	r16,0(sp)
 1002918:	dec00304 	addi	sp,sp,12
 100291c:	f800283a 	ret
 1002920:	21000217 	ldw	r4,8(r4)
 1002924:	00bf0084 	movi	r2,-1022
 1002928:	20803f16 	blt	r4,r2,1002a28 <__pack_d+0x1c0>
 100292c:	0080ffc4 	movi	r2,1023
 1002930:	11002c16 	blt	r2,r4,10029e4 <__pack_d+0x17c>
 1002934:	00803fc4 	movi	r2,255
 1002938:	408c703a 	and	r6,r8,r2
 100293c:	00802004 	movi	r2,128
 1002940:	0007883a 	mov	r3,zero
 1002944:	000f883a 	mov	r7,zero
 1002948:	2280ffc4 	addi	r10,r4,1023
 100294c:	30801e26 	beq	r6,r2,10029c8 <__pack_d+0x160>
 1002950:	00801fc4 	movi	r2,127
 1002954:	4089883a 	add	r4,r8,r2
 1002958:	220d803a 	cmpltu	r6,r4,r8
 100295c:	324d883a 	add	r6,r6,r9
 1002960:	2011883a 	mov	r8,r4
 1002964:	3013883a 	mov	r9,r6
 1002968:	00880034 	movhi	r2,8192
 100296c:	10bfffc4 	addi	r2,r2,-1
 1002970:	12400d36 	bltu	r2,r9,10029a8 <__pack_d+0x140>
 1002974:	4804963a 	slli	r2,r9,24
 1002978:	400cd23a 	srli	r6,r8,8
 100297c:	480ed23a 	srli	r7,r9,8
 1002980:	013fffc4 	movi	r4,-1
 1002984:	118cb03a 	or	r6,r2,r6
 1002988:	01400434 	movhi	r5,16
 100298c:	297fffc4 	addi	r5,r5,-1
 1002990:	3104703a 	and	r2,r6,r4
 1002994:	3946703a 	and	r3,r7,r5
 1002998:	5201ffcc 	andi	r8,r10,2047
 100299c:	100d883a 	mov	r6,r2
 10029a0:	180f883a 	mov	r7,r3
 10029a4:	003fc706 	br	10028c4 <__pack_d+0x5c>
 10029a8:	480897fa 	slli	r4,r9,31
 10029ac:	4004d07a 	srli	r2,r8,1
 10029b0:	4806d07a 	srli	r3,r9,1
 10029b4:	52800044 	addi	r10,r10,1
 10029b8:	2084b03a 	or	r2,r4,r2
 10029bc:	1011883a 	mov	r8,r2
 10029c0:	1813883a 	mov	r9,r3
 10029c4:	003feb06 	br	1002974 <__pack_d+0x10c>
 10029c8:	383fe11e 	bne	r7,zero,1002950 <__pack_d+0xe8>
 10029cc:	01004004 	movi	r4,256
 10029d0:	4104703a 	and	r2,r8,r4
 10029d4:	10c4b03a 	or	r2,r2,r3
 10029d8:	103fe326 	beq	r2,zero,1002968 <__pack_d+0x100>
 10029dc:	3005883a 	mov	r2,r6
 10029e0:	003fdc06 	br	1002954 <__pack_d+0xec>
 10029e4:	000d883a 	mov	r6,zero
 10029e8:	000f883a 	mov	r7,zero
 10029ec:	0201ffc4 	movi	r8,2047
 10029f0:	003fb406 	br	10028c4 <__pack_d+0x5c>
 10029f4:	0005883a 	mov	r2,zero
 10029f8:	00c00234 	movhi	r3,8
 10029fc:	408cb03a 	or	r6,r8,r2
 1002a00:	48ceb03a 	or	r7,r9,r3
 1002a04:	013fffc4 	movi	r4,-1
 1002a08:	01400434 	movhi	r5,16
 1002a0c:	297fffc4 	addi	r5,r5,-1
 1002a10:	3104703a 	and	r2,r6,r4
 1002a14:	3946703a 	and	r3,r7,r5
 1002a18:	100d883a 	mov	r6,r2
 1002a1c:	180f883a 	mov	r7,r3
 1002a20:	0201ffc4 	movi	r8,2047
 1002a24:	003fa706 	br	10028c4 <__pack_d+0x5c>
 1002a28:	1109c83a 	sub	r4,r2,r4
 1002a2c:	00800e04 	movi	r2,56
 1002a30:	11004316 	blt	r2,r4,1002b40 <__pack_d+0x2d8>
 1002a34:	21fff804 	addi	r7,r4,-32
 1002a38:	38004516 	blt	r7,zero,1002b50 <__pack_d+0x2e8>
 1002a3c:	49d8d83a 	srl	r12,r9,r7
 1002a40:	001b883a 	mov	r13,zero
 1002a44:	0023883a 	mov	r17,zero
 1002a48:	01400044 	movi	r5,1
 1002a4c:	0025883a 	mov	r18,zero
 1002a50:	38004716 	blt	r7,zero,1002b70 <__pack_d+0x308>
 1002a54:	29d6983a 	sll	r11,r5,r7
 1002a58:	0015883a 	mov	r10,zero
 1002a5c:	00bfffc4 	movi	r2,-1
 1002a60:	5089883a 	add	r4,r10,r2
 1002a64:	588b883a 	add	r5,r11,r2
 1002a68:	228d803a 	cmpltu	r6,r4,r10
 1002a6c:	314b883a 	add	r5,r6,r5
 1002a70:	4104703a 	and	r2,r8,r4
 1002a74:	4946703a 	and	r3,r9,r5
 1002a78:	10c4b03a 	or	r2,r2,r3
 1002a7c:	10000226 	beq	r2,zero,1002a88 <__pack_d+0x220>
 1002a80:	04400044 	movi	r17,1
 1002a84:	0025883a 	mov	r18,zero
 1002a88:	00803fc4 	movi	r2,255
 1002a8c:	644eb03a 	or	r7,r12,r17
 1002a90:	3892703a 	and	r9,r7,r2
 1002a94:	00802004 	movi	r2,128
 1002a98:	6c90b03a 	or	r8,r13,r18
 1002a9c:	0015883a 	mov	r10,zero
 1002aa0:	48801626 	beq	r9,r2,1002afc <__pack_d+0x294>
 1002aa4:	01001fc4 	movi	r4,127
 1002aa8:	3905883a 	add	r2,r7,r4
 1002aac:	11cd803a 	cmpltu	r6,r2,r7
 1002ab0:	320d883a 	add	r6,r6,r8
 1002ab4:	100f883a 	mov	r7,r2
 1002ab8:	00840034 	movhi	r2,4096
 1002abc:	10bfffc4 	addi	r2,r2,-1
 1002ac0:	3011883a 	mov	r8,r6
 1002ac4:	0007883a 	mov	r3,zero
 1002ac8:	11801b36 	bltu	r2,r6,1002b38 <__pack_d+0x2d0>
 1002acc:	4004963a 	slli	r2,r8,24
 1002ad0:	3808d23a 	srli	r4,r7,8
 1002ad4:	400ad23a 	srli	r5,r8,8
 1002ad8:	1813883a 	mov	r9,r3
 1002adc:	1108b03a 	or	r4,r2,r4
 1002ae0:	00bfffc4 	movi	r2,-1
 1002ae4:	00c00434 	movhi	r3,16
 1002ae8:	18ffffc4 	addi	r3,r3,-1
 1002aec:	208c703a 	and	r6,r4,r2
 1002af0:	28ce703a 	and	r7,r5,r3
 1002af4:	4a01ffcc 	andi	r8,r9,2047
 1002af8:	003f7206 	br	10028c4 <__pack_d+0x5c>
 1002afc:	503fe91e 	bne	r10,zero,1002aa4 <__pack_d+0x23c>
 1002b00:	01004004 	movi	r4,256
 1002b04:	3904703a 	and	r2,r7,r4
 1002b08:	0007883a 	mov	r3,zero
 1002b0c:	10c4b03a 	or	r2,r2,r3
 1002b10:	10000626 	beq	r2,zero,1002b2c <__pack_d+0x2c4>
 1002b14:	3a45883a 	add	r2,r7,r9
 1002b18:	11cd803a 	cmpltu	r6,r2,r7
 1002b1c:	320d883a 	add	r6,r6,r8
 1002b20:	100f883a 	mov	r7,r2
 1002b24:	3011883a 	mov	r8,r6
 1002b28:	0007883a 	mov	r3,zero
 1002b2c:	00840034 	movhi	r2,4096
 1002b30:	10bfffc4 	addi	r2,r2,-1
 1002b34:	123fe52e 	bgeu	r2,r8,1002acc <__pack_d+0x264>
 1002b38:	00c00044 	movi	r3,1
 1002b3c:	003fe306 	br	1002acc <__pack_d+0x264>
 1002b40:	0009883a 	mov	r4,zero
 1002b44:	0013883a 	mov	r9,zero
 1002b48:	000b883a 	mov	r5,zero
 1002b4c:	003fe406 	br	1002ae0 <__pack_d+0x278>
 1002b50:	4a47883a 	add	r3,r9,r9
 1002b54:	008007c4 	movi	r2,31
 1002b58:	1105c83a 	sub	r2,r2,r4
 1002b5c:	1886983a 	sll	r3,r3,r2
 1002b60:	4118d83a 	srl	r12,r8,r4
 1002b64:	491ad83a 	srl	r13,r9,r4
 1002b68:	1b18b03a 	or	r12,r3,r12
 1002b6c:	003fb506 	br	1002a44 <__pack_d+0x1dc>
 1002b70:	2806d07a 	srli	r3,r5,1
 1002b74:	008007c4 	movi	r2,31
 1002b78:	1105c83a 	sub	r2,r2,r4
 1002b7c:	1896d83a 	srl	r11,r3,r2
 1002b80:	2914983a 	sll	r10,r5,r4
 1002b84:	003fb506 	br	1002a5c <__pack_d+0x1f4>

01002b88 <__unpack_d>:
 1002b88:	f811883a 	mov	r8,ra
 1002b8c:	100c3d80 	call	100c3d8 <_mcount>
 1002b90:	403f883a 	mov	ra,r8
 1002b94:	20c00117 	ldw	r3,4(r4)
 1002b98:	22400017 	ldw	r9,0(r4)
 1002b9c:	00800434 	movhi	r2,16
 1002ba0:	10bfffc4 	addi	r2,r2,-1
 1002ba4:	1808d53a 	srli	r4,r3,20
 1002ba8:	180cd7fa 	srli	r6,r3,31
 1002bac:	1894703a 	and	r10,r3,r2
 1002bb0:	2201ffcc 	andi	r8,r4,2047
 1002bb4:	281b883a 	mov	r13,r5
 1002bb8:	4817883a 	mov	r11,r9
 1002bbc:	29800115 	stw	r6,4(r5)
 1002bc0:	5019883a 	mov	r12,r10
 1002bc4:	40001e1e 	bne	r8,zero,1002c40 <__unpack_d+0xb8>
 1002bc8:	4a84b03a 	or	r2,r9,r10
 1002bcc:	10001926 	beq	r2,zero,1002c34 <__unpack_d+0xac>
 1002bd0:	4804d63a 	srli	r2,r9,24
 1002bd4:	500c923a 	slli	r6,r10,8
 1002bd8:	013f0084 	movi	r4,-1022
 1002bdc:	00c40034 	movhi	r3,4096
 1002be0:	18ffffc4 	addi	r3,r3,-1
 1002be4:	118cb03a 	or	r6,r2,r6
 1002be8:	008000c4 	movi	r2,3
 1002bec:	480a923a 	slli	r5,r9,8
 1002bf0:	68800015 	stw	r2,0(r13)
 1002bf4:	69000215 	stw	r4,8(r13)
 1002bf8:	19800b36 	bltu	r3,r6,1002c28 <__unpack_d+0xa0>
 1002bfc:	200f883a 	mov	r7,r4
 1002c00:	1811883a 	mov	r8,r3
 1002c04:	2945883a 	add	r2,r5,r5
 1002c08:	1149803a 	cmpltu	r4,r2,r5
 1002c0c:	3187883a 	add	r3,r6,r6
 1002c10:	20c9883a 	add	r4,r4,r3
 1002c14:	100b883a 	mov	r5,r2
 1002c18:	200d883a 	mov	r6,r4
 1002c1c:	39ffffc4 	addi	r7,r7,-1
 1002c20:	413ff82e 	bgeu	r8,r4,1002c04 <__unpack_d+0x7c>
 1002c24:	69c00215 	stw	r7,8(r13)
 1002c28:	69800415 	stw	r6,16(r13)
 1002c2c:	69400315 	stw	r5,12(r13)
 1002c30:	f800283a 	ret
 1002c34:	00800084 	movi	r2,2
 1002c38:	28800015 	stw	r2,0(r5)
 1002c3c:	f800283a 	ret
 1002c40:	0081ffc4 	movi	r2,2047
 1002c44:	40800f26 	beq	r8,r2,1002c84 <__unpack_d+0xfc>
 1002c48:	480cd63a 	srli	r6,r9,24
 1002c4c:	5006923a 	slli	r3,r10,8
 1002c50:	4804923a 	slli	r2,r9,8
 1002c54:	0009883a 	mov	r4,zero
 1002c58:	30c6b03a 	or	r3,r6,r3
 1002c5c:	01440034 	movhi	r5,4096
 1002c60:	110cb03a 	or	r6,r2,r4
 1002c64:	423f0044 	addi	r8,r8,-1023
 1002c68:	194eb03a 	or	r7,r3,r5
 1002c6c:	008000c4 	movi	r2,3
 1002c70:	69c00415 	stw	r7,16(r13)
 1002c74:	6a000215 	stw	r8,8(r13)
 1002c78:	68800015 	stw	r2,0(r13)
 1002c7c:	69800315 	stw	r6,12(r13)
 1002c80:	f800283a 	ret
 1002c84:	4a84b03a 	or	r2,r9,r10
 1002c88:	1000031e 	bne	r2,zero,1002c98 <__unpack_d+0x110>
 1002c8c:	00800104 	movi	r2,4
 1002c90:	28800015 	stw	r2,0(r5)
 1002c94:	f800283a 	ret
 1002c98:	0009883a 	mov	r4,zero
 1002c9c:	01400234 	movhi	r5,8
 1002ca0:	4904703a 	and	r2,r9,r4
 1002ca4:	5146703a 	and	r3,r10,r5
 1002ca8:	10c4b03a 	or	r2,r2,r3
 1002cac:	10000526 	beq	r2,zero,1002cc4 <__unpack_d+0x13c>
 1002cb0:	00800044 	movi	r2,1
 1002cb4:	68800015 	stw	r2,0(r13)
 1002cb8:	6b000415 	stw	r12,16(r13)
 1002cbc:	6ac00315 	stw	r11,12(r13)
 1002cc0:	f800283a 	ret
 1002cc4:	68000015 	stw	zero,0(r13)
 1002cc8:	003ffb06 	br	1002cb8 <__unpack_d+0x130>

01002ccc <printf>:
 1002ccc:	f811883a 	mov	r8,ra
 1002cd0:	100c3d80 	call	100c3d8 <_mcount>
 1002cd4:	403f883a 	mov	ra,r8
 1002cd8:	defffb04 	addi	sp,sp,-20
 1002cdc:	dfc00115 	stw	ra,4(sp)
 1002ce0:	d9400215 	stw	r5,8(sp)
 1002ce4:	d9800315 	stw	r6,12(sp)
 1002ce8:	d9c00415 	stw	r7,16(sp)
 1002cec:	008040f4 	movhi	r2,259
 1002cf0:	10a00704 	addi	r2,r2,-32740
 1002cf4:	10c00017 	ldw	r3,0(r2)
 1002cf8:	200b883a 	mov	r5,r4
 1002cfc:	d8800204 	addi	r2,sp,8
 1002d00:	19000217 	ldw	r4,8(r3)
 1002d04:	100d883a 	mov	r6,r2
 1002d08:	d8800015 	stw	r2,0(sp)
 1002d0c:	1004e180 	call	1004e18 <__vfprintf_internal>
 1002d10:	dfc00117 	ldw	ra,4(sp)
 1002d14:	dec00504 	addi	sp,sp,20
 1002d18:	f800283a 	ret

01002d1c <_printf_r>:
 1002d1c:	f811883a 	mov	r8,ra
 1002d20:	100c3d80 	call	100c3d8 <_mcount>
 1002d24:	403f883a 	mov	ra,r8
 1002d28:	defffc04 	addi	sp,sp,-16
 1002d2c:	dfc00115 	stw	ra,4(sp)
 1002d30:	d9800215 	stw	r6,8(sp)
 1002d34:	d9c00315 	stw	r7,12(sp)
 1002d38:	280d883a 	mov	r6,r5
 1002d3c:	21400217 	ldw	r5,8(r4)
 1002d40:	d8c00204 	addi	r3,sp,8
 1002d44:	180f883a 	mov	r7,r3
 1002d48:	d8c00015 	stw	r3,0(sp)
 1002d4c:	1002f480 	call	1002f48 <___vfprintf_internal_r>
 1002d50:	dfc00117 	ldw	ra,4(sp)
 1002d54:	dec00404 	addi	sp,sp,16
 1002d58:	f800283a 	ret

01002d5c <putchar>:
 1002d5c:	f811883a 	mov	r8,ra
 1002d60:	100c3d80 	call	100c3d8 <_mcount>
 1002d64:	403f883a 	mov	ra,r8
 1002d68:	008040f4 	movhi	r2,259
 1002d6c:	10a00704 	addi	r2,r2,-32740
 1002d70:	11800017 	ldw	r6,0(r2)
 1002d74:	200b883a 	mov	r5,r4
 1002d78:	3009883a 	mov	r4,r6
 1002d7c:	31800217 	ldw	r6,8(r6)
 1002d80:	10097b81 	jmpi	10097b8 <_putc_r>

01002d84 <_putchar_r>:
 1002d84:	f811883a 	mov	r8,ra
 1002d88:	100c3d80 	call	100c3d8 <_mcount>
 1002d8c:	403f883a 	mov	ra,r8
 1002d90:	21800217 	ldw	r6,8(r4)
 1002d94:	10097b81 	jmpi	10097b8 <_putc_r>

01002d98 <_puts_r>:
 1002d98:	f811883a 	mov	r8,ra
 1002d9c:	100c3d80 	call	100c3d8 <_mcount>
 1002da0:	403f883a 	mov	ra,r8
 1002da4:	defff604 	addi	sp,sp,-40
 1002da8:	dfc00915 	stw	ra,36(sp)
 1002dac:	dcc00815 	stw	r19,32(sp)
 1002db0:	dc400715 	stw	r17,28(sp)
 1002db4:	2023883a 	mov	r17,r4
 1002db8:	2809883a 	mov	r4,r5
 1002dbc:	2827883a 	mov	r19,r5
 1002dc0:	1002e640 	call	1002e64 <strlen>
 1002dc4:	89400217 	ldw	r5,8(r17)
 1002dc8:	00c040b4 	movhi	r3,258
 1002dcc:	18e7eb04 	addi	r3,r3,-24660
 1002dd0:	01c00044 	movi	r7,1
 1002dd4:	12000044 	addi	r8,r2,1
 1002dd8:	d8c00515 	stw	r3,20(sp)
 1002ddc:	d9c00615 	stw	r7,24(sp)
 1002de0:	d8c00304 	addi	r3,sp,12
 1002de4:	01c00084 	movi	r7,2
 1002de8:	8809883a 	mov	r4,r17
 1002dec:	d80d883a 	mov	r6,sp
 1002df0:	d8c00015 	stw	r3,0(sp)
 1002df4:	dcc00315 	stw	r19,12(sp)
 1002df8:	da000215 	stw	r8,8(sp)
 1002dfc:	d9c00115 	stw	r7,4(sp)
 1002e00:	d8800415 	stw	r2,16(sp)
 1002e04:	10071dc0 	call	10071dc <__sfvwrite_r>
 1002e08:	00ffffc4 	movi	r3,-1
 1002e0c:	10000626 	beq	r2,zero,1002e28 <_puts_r+0x90>
 1002e10:	1805883a 	mov	r2,r3
 1002e14:	dfc00917 	ldw	ra,36(sp)
 1002e18:	dcc00817 	ldw	r19,32(sp)
 1002e1c:	dc400717 	ldw	r17,28(sp)
 1002e20:	dec00a04 	addi	sp,sp,40
 1002e24:	f800283a 	ret
 1002e28:	00c00284 	movi	r3,10
 1002e2c:	1805883a 	mov	r2,r3
 1002e30:	dfc00917 	ldw	ra,36(sp)
 1002e34:	dcc00817 	ldw	r19,32(sp)
 1002e38:	dc400717 	ldw	r17,28(sp)
 1002e3c:	dec00a04 	addi	sp,sp,40
 1002e40:	f800283a 	ret

01002e44 <puts>:
 1002e44:	f811883a 	mov	r8,ra
 1002e48:	100c3d80 	call	100c3d8 <_mcount>
 1002e4c:	403f883a 	mov	ra,r8
 1002e50:	008040f4 	movhi	r2,259
 1002e54:	10a00704 	addi	r2,r2,-32740
 1002e58:	200b883a 	mov	r5,r4
 1002e5c:	11000017 	ldw	r4,0(r2)
 1002e60:	1002d981 	jmpi	1002d98 <_puts_r>

01002e64 <strlen>:
 1002e64:	f811883a 	mov	r8,ra
 1002e68:	100c3d80 	call	100c3d8 <_mcount>
 1002e6c:	403f883a 	mov	ra,r8
 1002e70:	208000cc 	andi	r2,r4,3
 1002e74:	2011883a 	mov	r8,r4
 1002e78:	1000161e 	bne	r2,zero,1002ed4 <strlen+0x70>
 1002e7c:	20c00017 	ldw	r3,0(r4)
 1002e80:	017fbff4 	movhi	r5,65279
 1002e84:	297fbfc4 	addi	r5,r5,-257
 1002e88:	01e02074 	movhi	r7,32897
 1002e8c:	39e02004 	addi	r7,r7,-32640
 1002e90:	1945883a 	add	r2,r3,r5
 1002e94:	11c4703a 	and	r2,r2,r7
 1002e98:	00c6303a 	nor	r3,zero,r3
 1002e9c:	1886703a 	and	r3,r3,r2
 1002ea0:	18000c1e 	bne	r3,zero,1002ed4 <strlen+0x70>
 1002ea4:	280d883a 	mov	r6,r5
 1002ea8:	380b883a 	mov	r5,r7
 1002eac:	21000104 	addi	r4,r4,4
 1002eb0:	20800017 	ldw	r2,0(r4)
 1002eb4:	1187883a 	add	r3,r2,r6
 1002eb8:	1946703a 	and	r3,r3,r5
 1002ebc:	0084303a 	nor	r2,zero,r2
 1002ec0:	10c4703a 	and	r2,r2,r3
 1002ec4:	103ff926 	beq	r2,zero,1002eac <strlen+0x48>
 1002ec8:	20800007 	ldb	r2,0(r4)
 1002ecc:	10000326 	beq	r2,zero,1002edc <strlen+0x78>
 1002ed0:	21000044 	addi	r4,r4,1
 1002ed4:	20800007 	ldb	r2,0(r4)
 1002ed8:	103ffd1e 	bne	r2,zero,1002ed0 <strlen+0x6c>
 1002edc:	2205c83a 	sub	r2,r4,r8
 1002ee0:	f800283a 	ret

01002ee4 <__sprint_r>:
 1002ee4:	f811883a 	mov	r8,ra
 1002ee8:	100c3d80 	call	100c3d8 <_mcount>
 1002eec:	403f883a 	mov	ra,r8
 1002ef0:	defffe04 	addi	sp,sp,-8
 1002ef4:	dfc00115 	stw	ra,4(sp)
 1002ef8:	dc000015 	stw	r16,0(sp)
 1002efc:	30800217 	ldw	r2,8(r6)
 1002f00:	3021883a 	mov	r16,r6
 1002f04:	0007883a 	mov	r3,zero
 1002f08:	1000061e 	bne	r2,zero,1002f24 <__sprint_r+0x40>
 1002f0c:	1805883a 	mov	r2,r3
 1002f10:	30000115 	stw	zero,4(r6)
 1002f14:	dfc00117 	ldw	ra,4(sp)
 1002f18:	dc000017 	ldw	r16,0(sp)
 1002f1c:	dec00204 	addi	sp,sp,8
 1002f20:	f800283a 	ret
 1002f24:	10071dc0 	call	10071dc <__sfvwrite_r>
 1002f28:	1007883a 	mov	r3,r2
 1002f2c:	1805883a 	mov	r2,r3
 1002f30:	80000115 	stw	zero,4(r16)
 1002f34:	80000215 	stw	zero,8(r16)
 1002f38:	dfc00117 	ldw	ra,4(sp)
 1002f3c:	dc000017 	ldw	r16,0(sp)
 1002f40:	dec00204 	addi	sp,sp,8
 1002f44:	f800283a 	ret

01002f48 <___vfprintf_internal_r>:
 1002f48:	f811883a 	mov	r8,ra
 1002f4c:	100c3d80 	call	100c3d8 <_mcount>
 1002f50:	403f883a 	mov	ra,r8
 1002f54:	defea404 	addi	sp,sp,-1392
 1002f58:	dfc15b15 	stw	ra,1388(sp)
 1002f5c:	df015a15 	stw	fp,1384(sp)
 1002f60:	ddc15915 	stw	r23,1380(sp)
 1002f64:	dd815815 	stw	r22,1376(sp)
 1002f68:	dd415715 	stw	r21,1372(sp)
 1002f6c:	dd015615 	stw	r20,1368(sp)
 1002f70:	dcc15515 	stw	r19,1364(sp)
 1002f74:	dc815415 	stw	r18,1360(sp)
 1002f78:	dc415315 	stw	r17,1356(sp)
 1002f7c:	dc015215 	stw	r16,1352(sp)
 1002f80:	d9c15115 	stw	r7,1348(sp)
 1002f84:	282d883a 	mov	r22,r5
 1002f88:	3021883a 	mov	r16,r6
 1002f8c:	d9014f15 	stw	r4,1340(sp)
 1002f90:	10078300 	call	1007830 <_localeconv_r>
 1002f94:	10800017 	ldw	r2,0(r2)
 1002f98:	d9c15117 	ldw	r7,1348(sp)
 1002f9c:	d8814915 	stw	r2,1316(sp)
 1002fa0:	d8814f17 	ldw	r2,1340(sp)
 1002fa4:	10000226 	beq	r2,zero,1002fb0 <___vfprintf_internal_r+0x68>
 1002fa8:	10800e17 	ldw	r2,56(r2)
 1002fac:	10020d26 	beq	r2,zero,10037e4 <___vfprintf_internal_r+0x89c>
 1002fb0:	b080030b 	ldhu	r2,12(r22)
 1002fb4:	1080020c 	andi	r2,r2,8
 1002fb8:	10020e26 	beq	r2,zero,10037f4 <___vfprintf_internal_r+0x8ac>
 1002fbc:	b0800417 	ldw	r2,16(r22)
 1002fc0:	10020c26 	beq	r2,zero,10037f4 <___vfprintf_internal_r+0x8ac>
 1002fc4:	b200030b 	ldhu	r8,12(r22)
 1002fc8:	00800284 	movi	r2,10
 1002fcc:	40c0068c 	andi	r3,r8,26
 1002fd0:	18802f1e 	bne	r3,r2,1003090 <___vfprintf_internal_r+0x148>
 1002fd4:	b080038f 	ldh	r2,14(r22)
 1002fd8:	10002d16 	blt	r2,zero,1003090 <___vfprintf_internal_r+0x148>
 1002fdc:	b240038b 	ldhu	r9,14(r22)
 1002fe0:	b2800717 	ldw	r10,28(r22)
 1002fe4:	b2c00917 	ldw	r11,36(r22)
 1002fe8:	d9014f17 	ldw	r4,1340(sp)
 1002fec:	dc402904 	addi	r17,sp,164
 1002ff0:	d8804004 	addi	r2,sp,256
 1002ff4:	00c10004 	movi	r3,1024
 1002ff8:	423fff4c 	andi	r8,r8,65533
 1002ffc:	800d883a 	mov	r6,r16
 1003000:	880b883a 	mov	r5,r17
 1003004:	da002c0d 	sth	r8,176(sp)
 1003008:	da402c8d 	sth	r9,178(sp)
 100300c:	da803015 	stw	r10,192(sp)
 1003010:	dac03215 	stw	r11,200(sp)
 1003014:	d8802d15 	stw	r2,180(sp)
 1003018:	d8c02e15 	stw	r3,184(sp)
 100301c:	d8802915 	stw	r2,164(sp)
 1003020:	d8c02b15 	stw	r3,172(sp)
 1003024:	d8002f15 	stw	zero,188(sp)
 1003028:	1002f480 	call	1002f48 <___vfprintf_internal_r>
 100302c:	d8814b15 	stw	r2,1324(sp)
 1003030:	10000416 	blt	r2,zero,1003044 <___vfprintf_internal_r+0xfc>
 1003034:	d9014f17 	ldw	r4,1340(sp)
 1003038:	880b883a 	mov	r5,r17
 100303c:	10067a00 	call	10067a0 <_fflush_r>
 1003040:	1002321e 	bne	r2,zero,100390c <___vfprintf_internal_r+0x9c4>
 1003044:	d8802c0b 	ldhu	r2,176(sp)
 1003048:	1080100c 	andi	r2,r2,64
 100304c:	10000326 	beq	r2,zero,100305c <___vfprintf_internal_r+0x114>
 1003050:	b080030b 	ldhu	r2,12(r22)
 1003054:	10801014 	ori	r2,r2,64
 1003058:	b080030d 	sth	r2,12(r22)
 100305c:	d8814b17 	ldw	r2,1324(sp)
 1003060:	dfc15b17 	ldw	ra,1388(sp)
 1003064:	df015a17 	ldw	fp,1384(sp)
 1003068:	ddc15917 	ldw	r23,1380(sp)
 100306c:	dd815817 	ldw	r22,1376(sp)
 1003070:	dd415717 	ldw	r21,1372(sp)
 1003074:	dd015617 	ldw	r20,1368(sp)
 1003078:	dcc15517 	ldw	r19,1364(sp)
 100307c:	dc815417 	ldw	r18,1360(sp)
 1003080:	dc415317 	ldw	r17,1356(sp)
 1003084:	dc015217 	ldw	r16,1352(sp)
 1003088:	dec15c04 	addi	sp,sp,1392
 100308c:	f800283a 	ret
 1003090:	0005883a 	mov	r2,zero
 1003094:	0007883a 	mov	r3,zero
 1003098:	dd401904 	addi	r21,sp,100
 100309c:	d8814215 	stw	r2,1288(sp)
 10030a0:	802f883a 	mov	r23,r16
 10030a4:	d8c14315 	stw	r3,1292(sp)
 10030a8:	d8014b15 	stw	zero,1324(sp)
 10030ac:	d8014815 	stw	zero,1312(sp)
 10030b0:	d8014415 	stw	zero,1296(sp)
 10030b4:	d8014715 	stw	zero,1308(sp)
 10030b8:	dd400c15 	stw	r21,48(sp)
 10030bc:	d8000e15 	stw	zero,56(sp)
 10030c0:	d8000d15 	stw	zero,52(sp)
 10030c4:	b8800007 	ldb	r2,0(r23)
 10030c8:	10001926 	beq	r2,zero,1003130 <___vfprintf_internal_r+0x1e8>
 10030cc:	00c00944 	movi	r3,37
 10030d0:	10c01726 	beq	r2,r3,1003130 <___vfprintf_internal_r+0x1e8>
 10030d4:	b821883a 	mov	r16,r23
 10030d8:	00000106 	br	10030e0 <___vfprintf_internal_r+0x198>
 10030dc:	10c00326 	beq	r2,r3,10030ec <___vfprintf_internal_r+0x1a4>
 10030e0:	84000044 	addi	r16,r16,1
 10030e4:	80800007 	ldb	r2,0(r16)
 10030e8:	103ffc1e 	bne	r2,zero,10030dc <___vfprintf_internal_r+0x194>
 10030ec:	85e7c83a 	sub	r19,r16,r23
 10030f0:	98000e26 	beq	r19,zero,100312c <___vfprintf_internal_r+0x1e4>
 10030f4:	dc800e17 	ldw	r18,56(sp)
 10030f8:	dc400d17 	ldw	r17,52(sp)
 10030fc:	008001c4 	movi	r2,7
 1003100:	94e5883a 	add	r18,r18,r19
 1003104:	8c400044 	addi	r17,r17,1
 1003108:	adc00015 	stw	r23,0(r21)
 100310c:	dc800e15 	stw	r18,56(sp)
 1003110:	acc00115 	stw	r19,4(r21)
 1003114:	dc400d15 	stw	r17,52(sp)
 1003118:	14428b16 	blt	r2,r17,1003b48 <___vfprintf_internal_r+0xc00>
 100311c:	ad400204 	addi	r21,r21,8
 1003120:	d9014b17 	ldw	r4,1324(sp)
 1003124:	24c9883a 	add	r4,r4,r19
 1003128:	d9014b15 	stw	r4,1324(sp)
 100312c:	802f883a 	mov	r23,r16
 1003130:	b8800007 	ldb	r2,0(r23)
 1003134:	10013c26 	beq	r2,zero,1003628 <___vfprintf_internal_r+0x6e0>
 1003138:	bdc00044 	addi	r23,r23,1
 100313c:	d8000405 	stb	zero,16(sp)
 1003140:	b8c00007 	ldb	r3,0(r23)
 1003144:	04ffffc4 	movi	r19,-1
 1003148:	d8014c15 	stw	zero,1328(sp)
 100314c:	d8014a15 	stw	zero,1320(sp)
 1003150:	d8c14d15 	stw	r3,1332(sp)
 1003154:	bdc00044 	addi	r23,r23,1
 1003158:	d9414d17 	ldw	r5,1332(sp)
 100315c:	00801604 	movi	r2,88
 1003160:	28fff804 	addi	r3,r5,-32
 1003164:	10c06036 	bltu	r2,r3,10032e8 <___vfprintf_internal_r+0x3a0>
 1003168:	18c5883a 	add	r2,r3,r3
 100316c:	1085883a 	add	r2,r2,r2
 1003170:	00c04034 	movhi	r3,256
 1003174:	18cc6104 	addi	r3,r3,12676
 1003178:	10c5883a 	add	r2,r2,r3
 100317c:	11000017 	ldw	r4,0(r2)
 1003180:	2000683a 	jmp	r4
 1003184:	010040f8 	rdprs	r4,zero,259
 1003188:	010032e8 	cmpgeui	r4,zero,203
 100318c:	010032e8 	cmpgeui	r4,zero,203
 1003190:	010040e4 	muli	r4,zero,259
 1003194:	010032e8 	cmpgeui	r4,zero,203
 1003198:	010032e8 	cmpgeui	r4,zero,203
 100319c:	010032e8 	cmpgeui	r4,zero,203
 10031a0:	010032e8 	cmpgeui	r4,zero,203
 10031a4:	010032e8 	cmpgeui	r4,zero,203
 10031a8:	010032e8 	cmpgeui	r4,zero,203
 10031ac:	01003ec4 	movi	r4,251
 10031b0:	010040d4 	movui	r4,259
 10031b4:	010032e8 	cmpgeui	r4,zero,203
 10031b8:	01003edc 	xori	r4,zero,251
 10031bc:	0100417c 	xorhi	r4,zero,261
 10031c0:	010032e8 	cmpgeui	r4,zero,203
 10031c4:	01004168 	cmpgeui	r4,zero,261
 10031c8:	01004124 	muli	r4,zero,260
 10031cc:	01004124 	muli	r4,zero,260
 10031d0:	01004124 	muli	r4,zero,260
 10031d4:	01004124 	muli	r4,zero,260
 10031d8:	01004124 	muli	r4,zero,260
 10031dc:	01004124 	muli	r4,zero,260
 10031e0:	01004124 	muli	r4,zero,260
 10031e4:	01004124 	muli	r4,zero,260
 10031e8:	01004124 	muli	r4,zero,260
 10031ec:	010032e8 	cmpgeui	r4,zero,203
 10031f0:	010032e8 	cmpgeui	r4,zero,203
 10031f4:	010032e8 	cmpgeui	r4,zero,203
 10031f8:	010032e8 	cmpgeui	r4,zero,203
 10031fc:	010032e8 	cmpgeui	r4,zero,203
 1003200:	010032e8 	cmpgeui	r4,zero,203
 1003204:	010032e8 	cmpgeui	r4,zero,203
 1003208:	010032e8 	cmpgeui	r4,zero,203
 100320c:	010032e8 	cmpgeui	r4,zero,203
 1003210:	010032e8 	cmpgeui	r4,zero,203
 1003214:	01003940 	call	100394 <__ram_exceptions_end+0x801c8>
 1003218:	01003fac 	andhi	r4,zero,254
 100321c:	010032e8 	cmpgeui	r4,zero,203
 1003220:	01003fac 	andhi	r4,zero,254
 1003224:	010032e8 	cmpgeui	r4,zero,203
 1003228:	010032e8 	cmpgeui	r4,zero,203
 100322c:	010032e8 	cmpgeui	r4,zero,203
 1003230:	010032e8 	cmpgeui	r4,zero,203
 1003234:	01004110 	cmplti	r4,zero,260
 1003238:	010032e8 	cmpgeui	r4,zero,203
 100323c:	010032e8 	cmpgeui	r4,zero,203
 1003240:	010039f4 	movhi	r4,231
 1003244:	010032e8 	cmpgeui	r4,zero,203
 1003248:	010032e8 	cmpgeui	r4,zero,203
 100324c:	010032e8 	cmpgeui	r4,zero,203
 1003250:	010032e8 	cmpgeui	r4,zero,203
 1003254:	010032e8 	cmpgeui	r4,zero,203
 1003258:	01003a40 	call	1003a4 <__ram_exceptions_end+0x801d8>
 100325c:	010032e8 	cmpgeui	r4,zero,203
 1003260:	010032e8 	cmpgeui	r4,zero,203
 1003264:	01004060 	cmpeqi	r4,zero,257
 1003268:	010032e8 	cmpgeui	r4,zero,203
 100326c:	010032e8 	cmpgeui	r4,zero,203
 1003270:	010032e8 	cmpgeui	r4,zero,203
 1003274:	010032e8 	cmpgeui	r4,zero,203
 1003278:	010032e8 	cmpgeui	r4,zero,203
 100327c:	010032e8 	cmpgeui	r4,zero,203
 1003280:	010032e8 	cmpgeui	r4,zero,203
 1003284:	010032e8 	cmpgeui	r4,zero,203
 1003288:	010032e8 	cmpgeui	r4,zero,203
 100328c:	010032e8 	cmpgeui	r4,zero,203
 1003290:	01004034 	movhi	r4,256
 1003294:	0100394c 	andi	r4,zero,229
 1003298:	01003fac 	andhi	r4,zero,254
 100329c:	01003fac 	andhi	r4,zero,254
 10032a0:	01003fac 	andhi	r4,zero,254
 10032a4:	01003f98 	cmpnei	r4,zero,254
 10032a8:	0100394c 	andi	r4,zero,229
 10032ac:	010032e8 	cmpgeui	r4,zero,203
 10032b0:	010032e8 	cmpgeui	r4,zero,203
 10032b4:	01003f20 	cmpeqi	r4,zero,252
 10032b8:	010032e8 	cmpgeui	r4,zero,203
 10032bc:	01003ef0 	cmpltui	r4,zero,251
 10032c0:	01003a00 	call	1003a0 <__ram_exceptions_end+0x801d4>
 10032c4:	01003f50 	cmplti	r4,zero,253
 10032c8:	01003f3c 	xorhi	r4,zero,252
 10032cc:	010032e8 	cmpgeui	r4,zero,203
 10032d0:	010041e4 	muli	r4,zero,263
 10032d4:	010032e8 	cmpgeui	r4,zero,203
 10032d8:	01003a4c 	andi	r4,zero,233
 10032dc:	010032e8 	cmpgeui	r4,zero,203
 10032e0:	010032e8 	cmpgeui	r4,zero,203
 10032e4:	010040c4 	movi	r4,259
 10032e8:	d9014d17 	ldw	r4,1332(sp)
 10032ec:	2000ce26 	beq	r4,zero,1003628 <___vfprintf_internal_r+0x6e0>
 10032f0:	01400044 	movi	r5,1
 10032f4:	d9800f04 	addi	r6,sp,60
 10032f8:	d9c14015 	stw	r7,1280(sp)
 10032fc:	d9414515 	stw	r5,1300(sp)
 1003300:	d9814115 	stw	r6,1284(sp)
 1003304:	280f883a 	mov	r7,r5
 1003308:	d9000f05 	stb	r4,60(sp)
 100330c:	d8000405 	stb	zero,16(sp)
 1003310:	d8014615 	stw	zero,1304(sp)
 1003314:	d8c14c17 	ldw	r3,1328(sp)
 1003318:	1880008c 	andi	r2,r3,2
 100331c:	1005003a 	cmpeq	r2,r2,zero
 1003320:	d8815015 	stw	r2,1344(sp)
 1003324:	1000031e 	bne	r2,zero,1003334 <___vfprintf_internal_r+0x3ec>
 1003328:	d9014517 	ldw	r4,1300(sp)
 100332c:	21000084 	addi	r4,r4,2
 1003330:	d9014515 	stw	r4,1300(sp)
 1003334:	d9414c17 	ldw	r5,1328(sp)
 1003338:	2940210c 	andi	r5,r5,132
 100333c:	d9414e15 	stw	r5,1336(sp)
 1003340:	28002d1e 	bne	r5,zero,10033f8 <___vfprintf_internal_r+0x4b0>
 1003344:	d9814a17 	ldw	r6,1320(sp)
 1003348:	d8814517 	ldw	r2,1300(sp)
 100334c:	30a1c83a 	sub	r16,r6,r2
 1003350:	0400290e 	bge	zero,r16,10033f8 <___vfprintf_internal_r+0x4b0>
 1003354:	00800404 	movi	r2,16
 1003358:	14045e0e 	bge	r2,r16,10044d4 <___vfprintf_internal_r+0x158c>
 100335c:	dc800e17 	ldw	r18,56(sp)
 1003360:	dc400d17 	ldw	r17,52(sp)
 1003364:	1027883a 	mov	r19,r2
 1003368:	070040b4 	movhi	fp,258
 100336c:	e7280784 	addi	fp,fp,-24546
 1003370:	050001c4 	movi	r20,7
 1003374:	00000306 	br	1003384 <___vfprintf_internal_r+0x43c>
 1003378:	843ffc04 	addi	r16,r16,-16
 100337c:	ad400204 	addi	r21,r21,8
 1003380:	9c00130e 	bge	r19,r16,10033d0 <___vfprintf_internal_r+0x488>
 1003384:	94800404 	addi	r18,r18,16
 1003388:	8c400044 	addi	r17,r17,1
 100338c:	af000015 	stw	fp,0(r21)
 1003390:	acc00115 	stw	r19,4(r21)
 1003394:	dc800e15 	stw	r18,56(sp)
 1003398:	dc400d15 	stw	r17,52(sp)
 100339c:	a47ff60e 	bge	r20,r17,1003378 <___vfprintf_internal_r+0x430>
 10033a0:	d9014f17 	ldw	r4,1340(sp)
 10033a4:	b00b883a 	mov	r5,r22
 10033a8:	d9800c04 	addi	r6,sp,48
 10033ac:	d9c15115 	stw	r7,1348(sp)
 10033b0:	1002ee40 	call	1002ee4 <__sprint_r>
 10033b4:	d9c15117 	ldw	r7,1348(sp)
 10033b8:	10009e1e 	bne	r2,zero,1003634 <___vfprintf_internal_r+0x6ec>
 10033bc:	843ffc04 	addi	r16,r16,-16
 10033c0:	dc800e17 	ldw	r18,56(sp)
 10033c4:	dc400d17 	ldw	r17,52(sp)
 10033c8:	dd401904 	addi	r21,sp,100
 10033cc:	9c3fed16 	blt	r19,r16,1003384 <___vfprintf_internal_r+0x43c>
 10033d0:	9425883a 	add	r18,r18,r16
 10033d4:	8c400044 	addi	r17,r17,1
 10033d8:	008001c4 	movi	r2,7
 10033dc:	af000015 	stw	fp,0(r21)
 10033e0:	ac000115 	stw	r16,4(r21)
 10033e4:	dc800e15 	stw	r18,56(sp)
 10033e8:	dc400d15 	stw	r17,52(sp)
 10033ec:	1441f516 	blt	r2,r17,1003bc4 <___vfprintf_internal_r+0xc7c>
 10033f0:	ad400204 	addi	r21,r21,8
 10033f4:	00000206 	br	1003400 <___vfprintf_internal_r+0x4b8>
 10033f8:	dc800e17 	ldw	r18,56(sp)
 10033fc:	dc400d17 	ldw	r17,52(sp)
 1003400:	d8800407 	ldb	r2,16(sp)
 1003404:	10000b26 	beq	r2,zero,1003434 <___vfprintf_internal_r+0x4ec>
 1003408:	00800044 	movi	r2,1
 100340c:	94800044 	addi	r18,r18,1
 1003410:	8c400044 	addi	r17,r17,1
 1003414:	a8800115 	stw	r2,4(r21)
 1003418:	d8c00404 	addi	r3,sp,16
 100341c:	008001c4 	movi	r2,7
 1003420:	a8c00015 	stw	r3,0(r21)
 1003424:	dc800e15 	stw	r18,56(sp)
 1003428:	dc400d15 	stw	r17,52(sp)
 100342c:	1441da16 	blt	r2,r17,1003b98 <___vfprintf_internal_r+0xc50>
 1003430:	ad400204 	addi	r21,r21,8
 1003434:	d9015017 	ldw	r4,1344(sp)
 1003438:	20000b1e 	bne	r4,zero,1003468 <___vfprintf_internal_r+0x520>
 100343c:	d8800444 	addi	r2,sp,17
 1003440:	94800084 	addi	r18,r18,2
 1003444:	8c400044 	addi	r17,r17,1
 1003448:	a8800015 	stw	r2,0(r21)
 100344c:	00c00084 	movi	r3,2
 1003450:	008001c4 	movi	r2,7
 1003454:	a8c00115 	stw	r3,4(r21)
 1003458:	dc800e15 	stw	r18,56(sp)
 100345c:	dc400d15 	stw	r17,52(sp)
 1003460:	1441c216 	blt	r2,r17,1003b6c <___vfprintf_internal_r+0xc24>
 1003464:	ad400204 	addi	r21,r21,8
 1003468:	d9414e17 	ldw	r5,1336(sp)
 100346c:	00802004 	movi	r2,128
 1003470:	2880b126 	beq	r5,r2,1003738 <___vfprintf_internal_r+0x7f0>
 1003474:	d8c14617 	ldw	r3,1304(sp)
 1003478:	19e1c83a 	sub	r16,r3,r7
 100347c:	0400260e 	bge	zero,r16,1003518 <___vfprintf_internal_r+0x5d0>
 1003480:	00800404 	movi	r2,16
 1003484:	1403cf0e 	bge	r2,r16,10043c4 <___vfprintf_internal_r+0x147c>
 1003488:	1027883a 	mov	r19,r2
 100348c:	070040b4 	movhi	fp,258
 1003490:	e7280384 	addi	fp,fp,-24562
 1003494:	050001c4 	movi	r20,7
 1003498:	00000306 	br	10034a8 <___vfprintf_internal_r+0x560>
 100349c:	843ffc04 	addi	r16,r16,-16
 10034a0:	ad400204 	addi	r21,r21,8
 10034a4:	9c00130e 	bge	r19,r16,10034f4 <___vfprintf_internal_r+0x5ac>
 10034a8:	94800404 	addi	r18,r18,16
 10034ac:	8c400044 	addi	r17,r17,1
 10034b0:	af000015 	stw	fp,0(r21)
 10034b4:	acc00115 	stw	r19,4(r21)
 10034b8:	dc800e15 	stw	r18,56(sp)
 10034bc:	dc400d15 	stw	r17,52(sp)
 10034c0:	a47ff60e 	bge	r20,r17,100349c <___vfprintf_internal_r+0x554>
 10034c4:	d9014f17 	ldw	r4,1340(sp)
 10034c8:	b00b883a 	mov	r5,r22
 10034cc:	d9800c04 	addi	r6,sp,48
 10034d0:	d9c15115 	stw	r7,1348(sp)
 10034d4:	1002ee40 	call	1002ee4 <__sprint_r>
 10034d8:	d9c15117 	ldw	r7,1348(sp)
 10034dc:	1000551e 	bne	r2,zero,1003634 <___vfprintf_internal_r+0x6ec>
 10034e0:	843ffc04 	addi	r16,r16,-16
 10034e4:	dc800e17 	ldw	r18,56(sp)
 10034e8:	dc400d17 	ldw	r17,52(sp)
 10034ec:	dd401904 	addi	r21,sp,100
 10034f0:	9c3fed16 	blt	r19,r16,10034a8 <___vfprintf_internal_r+0x560>
 10034f4:	9425883a 	add	r18,r18,r16
 10034f8:	8c400044 	addi	r17,r17,1
 10034fc:	008001c4 	movi	r2,7
 1003500:	af000015 	stw	fp,0(r21)
 1003504:	ac000115 	stw	r16,4(r21)
 1003508:	dc800e15 	stw	r18,56(sp)
 100350c:	dc400d15 	stw	r17,52(sp)
 1003510:	14418216 	blt	r2,r17,1003b1c <___vfprintf_internal_r+0xbd4>
 1003514:	ad400204 	addi	r21,r21,8
 1003518:	d9014c17 	ldw	r4,1328(sp)
 100351c:	2080400c 	andi	r2,r4,256
 1003520:	10004a1e 	bne	r2,zero,100364c <___vfprintf_internal_r+0x704>
 1003524:	d9414117 	ldw	r5,1284(sp)
 1003528:	91e5883a 	add	r18,r18,r7
 100352c:	8c400044 	addi	r17,r17,1
 1003530:	008001c4 	movi	r2,7
 1003534:	a9400015 	stw	r5,0(r21)
 1003538:	a9c00115 	stw	r7,4(r21)
 100353c:	dc800e15 	stw	r18,56(sp)
 1003540:	dc400d15 	stw	r17,52(sp)
 1003544:	14416716 	blt	r2,r17,1003ae4 <___vfprintf_internal_r+0xb9c>
 1003548:	a8c00204 	addi	r3,r21,8
 100354c:	d9814c17 	ldw	r6,1328(sp)
 1003550:	3080010c 	andi	r2,r6,4
 1003554:	10002826 	beq	r2,zero,10035f8 <___vfprintf_internal_r+0x6b0>
 1003558:	d8814a17 	ldw	r2,1320(sp)
 100355c:	d9014517 	ldw	r4,1300(sp)
 1003560:	1121c83a 	sub	r16,r2,r4
 1003564:	0400240e 	bge	zero,r16,10035f8 <___vfprintf_internal_r+0x6b0>
 1003568:	00800404 	movi	r2,16
 100356c:	1404550e 	bge	r2,r16,10046c4 <___vfprintf_internal_r+0x177c>
 1003570:	dc400d17 	ldw	r17,52(sp)
 1003574:	1027883a 	mov	r19,r2
 1003578:	070040b4 	movhi	fp,258
 100357c:	e7280784 	addi	fp,fp,-24546
 1003580:	050001c4 	movi	r20,7
 1003584:	00000306 	br	1003594 <___vfprintf_internal_r+0x64c>
 1003588:	843ffc04 	addi	r16,r16,-16
 100358c:	18c00204 	addi	r3,r3,8
 1003590:	9c00110e 	bge	r19,r16,10035d8 <___vfprintf_internal_r+0x690>
 1003594:	94800404 	addi	r18,r18,16
 1003598:	8c400044 	addi	r17,r17,1
 100359c:	1f000015 	stw	fp,0(r3)
 10035a0:	1cc00115 	stw	r19,4(r3)
 10035a4:	dc800e15 	stw	r18,56(sp)
 10035a8:	dc400d15 	stw	r17,52(sp)
 10035ac:	a47ff60e 	bge	r20,r17,1003588 <___vfprintf_internal_r+0x640>
 10035b0:	d9014f17 	ldw	r4,1340(sp)
 10035b4:	b00b883a 	mov	r5,r22
 10035b8:	d9800c04 	addi	r6,sp,48
 10035bc:	1002ee40 	call	1002ee4 <__sprint_r>
 10035c0:	10001c1e 	bne	r2,zero,1003634 <___vfprintf_internal_r+0x6ec>
 10035c4:	843ffc04 	addi	r16,r16,-16
 10035c8:	dc800e17 	ldw	r18,56(sp)
 10035cc:	dc400d17 	ldw	r17,52(sp)
 10035d0:	d8c01904 	addi	r3,sp,100
 10035d4:	9c3fef16 	blt	r19,r16,1003594 <___vfprintf_internal_r+0x64c>
 10035d8:	9425883a 	add	r18,r18,r16
 10035dc:	8c400044 	addi	r17,r17,1
 10035e0:	008001c4 	movi	r2,7
 10035e4:	1f000015 	stw	fp,0(r3)
 10035e8:	1c000115 	stw	r16,4(r3)
 10035ec:	dc800e15 	stw	r18,56(sp)
 10035f0:	dc400d15 	stw	r17,52(sp)
 10035f4:	1440cb16 	blt	r2,r17,1003924 <___vfprintf_internal_r+0x9dc>
 10035f8:	d8814a17 	ldw	r2,1320(sp)
 10035fc:	d9414517 	ldw	r5,1300(sp)
 1003600:	1140010e 	bge	r2,r5,1003608 <___vfprintf_internal_r+0x6c0>
 1003604:	2805883a 	mov	r2,r5
 1003608:	d9814b17 	ldw	r6,1324(sp)
 100360c:	308d883a 	add	r6,r6,r2
 1003610:	d9814b15 	stw	r6,1324(sp)
 1003614:	90013b1e 	bne	r18,zero,1003b04 <___vfprintf_internal_r+0xbbc>
 1003618:	d9c14017 	ldw	r7,1280(sp)
 100361c:	dd401904 	addi	r21,sp,100
 1003620:	d8000d15 	stw	zero,52(sp)
 1003624:	003ea706 	br	10030c4 <___vfprintf_internal_r+0x17c>
 1003628:	d8800e17 	ldw	r2,56(sp)
 100362c:	1005451e 	bne	r2,zero,1004b44 <___vfprintf_internal_r+0x1bfc>
 1003630:	d8000d15 	stw	zero,52(sp)
 1003634:	b080030b 	ldhu	r2,12(r22)
 1003638:	1080100c 	andi	r2,r2,64
 100363c:	103e8726 	beq	r2,zero,100305c <___vfprintf_internal_r+0x114>
 1003640:	00bfffc4 	movi	r2,-1
 1003644:	d8814b15 	stw	r2,1324(sp)
 1003648:	003e8406 	br	100305c <___vfprintf_internal_r+0x114>
 100364c:	d9814d17 	ldw	r6,1332(sp)
 1003650:	00801944 	movi	r2,101
 1003654:	11806e16 	blt	r2,r6,1003810 <___vfprintf_internal_r+0x8c8>
 1003658:	d9414717 	ldw	r5,1308(sp)
 100365c:	00c00044 	movi	r3,1
 1003660:	1943490e 	bge	r3,r5,1004388 <___vfprintf_internal_r+0x1440>
 1003664:	d8814117 	ldw	r2,1284(sp)
 1003668:	94800044 	addi	r18,r18,1
 100366c:	8c400044 	addi	r17,r17,1
 1003670:	a8800015 	stw	r2,0(r21)
 1003674:	008001c4 	movi	r2,7
 1003678:	a8c00115 	stw	r3,4(r21)
 100367c:	dc800e15 	stw	r18,56(sp)
 1003680:	dc400d15 	stw	r17,52(sp)
 1003684:	1441ca16 	blt	r2,r17,1003db0 <___vfprintf_internal_r+0xe68>
 1003688:	a8c00204 	addi	r3,r21,8
 100368c:	d9014917 	ldw	r4,1316(sp)
 1003690:	00800044 	movi	r2,1
 1003694:	94800044 	addi	r18,r18,1
 1003698:	8c400044 	addi	r17,r17,1
 100369c:	18800115 	stw	r2,4(r3)
 10036a0:	008001c4 	movi	r2,7
 10036a4:	19000015 	stw	r4,0(r3)
 10036a8:	dc800e15 	stw	r18,56(sp)
 10036ac:	dc400d15 	stw	r17,52(sp)
 10036b0:	1441b616 	blt	r2,r17,1003d8c <___vfprintf_internal_r+0xe44>
 10036b4:	1cc00204 	addi	r19,r3,8
 10036b8:	d9014217 	ldw	r4,1288(sp)
 10036bc:	d9414317 	ldw	r5,1292(sp)
 10036c0:	000d883a 	mov	r6,zero
 10036c4:	000f883a 	mov	r7,zero
 10036c8:	100b5e40 	call	100b5e4 <__nedf2>
 10036cc:	10017426 	beq	r2,zero,1003ca0 <___vfprintf_internal_r+0xd58>
 10036d0:	d9414717 	ldw	r5,1308(sp)
 10036d4:	d9814117 	ldw	r6,1284(sp)
 10036d8:	8c400044 	addi	r17,r17,1
 10036dc:	2c85883a 	add	r2,r5,r18
 10036e0:	14bfffc4 	addi	r18,r2,-1
 10036e4:	28bfffc4 	addi	r2,r5,-1
 10036e8:	30c00044 	addi	r3,r6,1
 10036ec:	98800115 	stw	r2,4(r19)
 10036f0:	008001c4 	movi	r2,7
 10036f4:	98c00015 	stw	r3,0(r19)
 10036f8:	dc800e15 	stw	r18,56(sp)
 10036fc:	dc400d15 	stw	r17,52(sp)
 1003700:	14418e16 	blt	r2,r17,1003d3c <___vfprintf_internal_r+0xdf4>
 1003704:	9cc00204 	addi	r19,r19,8
 1003708:	d9414817 	ldw	r5,1312(sp)
 100370c:	d8800804 	addi	r2,sp,32
 1003710:	8c400044 	addi	r17,r17,1
 1003714:	9165883a 	add	r18,r18,r5
 1003718:	98800015 	stw	r2,0(r19)
 100371c:	008001c4 	movi	r2,7
 1003720:	99400115 	stw	r5,4(r19)
 1003724:	dc800e15 	stw	r18,56(sp)
 1003728:	dc400d15 	stw	r17,52(sp)
 100372c:	1440ed16 	blt	r2,r17,1003ae4 <___vfprintf_internal_r+0xb9c>
 1003730:	98c00204 	addi	r3,r19,8
 1003734:	003f8506 	br	100354c <___vfprintf_internal_r+0x604>
 1003738:	d9814a17 	ldw	r6,1320(sp)
 100373c:	d8814517 	ldw	r2,1300(sp)
 1003740:	30a1c83a 	sub	r16,r6,r2
 1003744:	043f4b0e 	bge	zero,r16,1003474 <___vfprintf_internal_r+0x52c>
 1003748:	00800404 	movi	r2,16
 100374c:	14043a0e 	bge	r2,r16,1004838 <___vfprintf_internal_r+0x18f0>
 1003750:	1027883a 	mov	r19,r2
 1003754:	070040b4 	movhi	fp,258
 1003758:	e7280384 	addi	fp,fp,-24562
 100375c:	050001c4 	movi	r20,7
 1003760:	00000306 	br	1003770 <___vfprintf_internal_r+0x828>
 1003764:	843ffc04 	addi	r16,r16,-16
 1003768:	ad400204 	addi	r21,r21,8
 100376c:	9c00130e 	bge	r19,r16,10037bc <___vfprintf_internal_r+0x874>
 1003770:	94800404 	addi	r18,r18,16
 1003774:	8c400044 	addi	r17,r17,1
 1003778:	af000015 	stw	fp,0(r21)
 100377c:	acc00115 	stw	r19,4(r21)
 1003780:	dc800e15 	stw	r18,56(sp)
 1003784:	dc400d15 	stw	r17,52(sp)
 1003788:	a47ff60e 	bge	r20,r17,1003764 <___vfprintf_internal_r+0x81c>
 100378c:	d9014f17 	ldw	r4,1340(sp)
 1003790:	b00b883a 	mov	r5,r22
 1003794:	d9800c04 	addi	r6,sp,48
 1003798:	d9c15115 	stw	r7,1348(sp)
 100379c:	1002ee40 	call	1002ee4 <__sprint_r>
 10037a0:	d9c15117 	ldw	r7,1348(sp)
 10037a4:	103fa31e 	bne	r2,zero,1003634 <___vfprintf_internal_r+0x6ec>
 10037a8:	843ffc04 	addi	r16,r16,-16
 10037ac:	dc800e17 	ldw	r18,56(sp)
 10037b0:	dc400d17 	ldw	r17,52(sp)
 10037b4:	dd401904 	addi	r21,sp,100
 10037b8:	9c3fed16 	blt	r19,r16,1003770 <___vfprintf_internal_r+0x828>
 10037bc:	9425883a 	add	r18,r18,r16
 10037c0:	8c400044 	addi	r17,r17,1
 10037c4:	008001c4 	movi	r2,7
 10037c8:	af000015 	stw	fp,0(r21)
 10037cc:	ac000115 	stw	r16,4(r21)
 10037d0:	dc800e15 	stw	r18,56(sp)
 10037d4:	dc400d15 	stw	r17,52(sp)
 10037d8:	14416116 	blt	r2,r17,1003d60 <___vfprintf_internal_r+0xe18>
 10037dc:	ad400204 	addi	r21,r21,8
 10037e0:	003f2406 	br	1003474 <___vfprintf_internal_r+0x52c>
 10037e4:	d9014f17 	ldw	r4,1340(sp)
 10037e8:	1006a8c0 	call	1006a8c <__sinit>
 10037ec:	d9c15117 	ldw	r7,1348(sp)
 10037f0:	003def06 	br	1002fb0 <___vfprintf_internal_r+0x68>
 10037f4:	d9014f17 	ldw	r4,1340(sp)
 10037f8:	b00b883a 	mov	r5,r22
 10037fc:	d9c15115 	stw	r7,1348(sp)
 1003800:	1004e480 	call	1004e48 <__swsetup_r>
 1003804:	d9c15117 	ldw	r7,1348(sp)
 1003808:	103dee26 	beq	r2,zero,1002fc4 <___vfprintf_internal_r+0x7c>
 100380c:	003f8c06 	br	1003640 <___vfprintf_internal_r+0x6f8>
 1003810:	d9014217 	ldw	r4,1288(sp)
 1003814:	d9414317 	ldw	r5,1292(sp)
 1003818:	000d883a 	mov	r6,zero
 100381c:	000f883a 	mov	r7,zero
 1003820:	100b5500 	call	100b550 <__eqdf2>
 1003824:	1000f21e 	bne	r2,zero,1003bf0 <___vfprintf_internal_r+0xca8>
 1003828:	008040b4 	movhi	r2,258
 100382c:	10a80304 	addi	r2,r2,-24564
 1003830:	94800044 	addi	r18,r18,1
 1003834:	8c400044 	addi	r17,r17,1
 1003838:	a8800015 	stw	r2,0(r21)
 100383c:	00c00044 	movi	r3,1
 1003840:	008001c4 	movi	r2,7
 1003844:	a8c00115 	stw	r3,4(r21)
 1003848:	dc800e15 	stw	r18,56(sp)
 100384c:	dc400d15 	stw	r17,52(sp)
 1003850:	14430016 	blt	r2,r17,1004454 <___vfprintf_internal_r+0x150c>
 1003854:	a8c00204 	addi	r3,r21,8
 1003858:	d8800517 	ldw	r2,20(sp)
 100385c:	d9014717 	ldw	r4,1308(sp)
 1003860:	11015c0e 	bge	r2,r4,1003dd4 <___vfprintf_internal_r+0xe8c>
 1003864:	dc400d17 	ldw	r17,52(sp)
 1003868:	d9814917 	ldw	r6,1316(sp)
 100386c:	00800044 	movi	r2,1
 1003870:	94800044 	addi	r18,r18,1
 1003874:	8c400044 	addi	r17,r17,1
 1003878:	18800115 	stw	r2,4(r3)
 100387c:	008001c4 	movi	r2,7
 1003880:	19800015 	stw	r6,0(r3)
 1003884:	dc800e15 	stw	r18,56(sp)
 1003888:	dc400d15 	stw	r17,52(sp)
 100388c:	14431616 	blt	r2,r17,10044e8 <___vfprintf_internal_r+0x15a0>
 1003890:	18c00204 	addi	r3,r3,8
 1003894:	d8814717 	ldw	r2,1308(sp)
 1003898:	143fffc4 	addi	r16,r2,-1
 100389c:	043f2b0e 	bge	zero,r16,100354c <___vfprintf_internal_r+0x604>
 10038a0:	00800404 	movi	r2,16
 10038a4:	1402a80e 	bge	r2,r16,1004348 <___vfprintf_internal_r+0x1400>
 10038a8:	dc400d17 	ldw	r17,52(sp)
 10038ac:	1027883a 	mov	r19,r2
 10038b0:	070040b4 	movhi	fp,258
 10038b4:	e7280384 	addi	fp,fp,-24562
 10038b8:	050001c4 	movi	r20,7
 10038bc:	00000306 	br	10038cc <___vfprintf_internal_r+0x984>
 10038c0:	18c00204 	addi	r3,r3,8
 10038c4:	843ffc04 	addi	r16,r16,-16
 10038c8:	9c02a20e 	bge	r19,r16,1004354 <___vfprintf_internal_r+0x140c>
 10038cc:	94800404 	addi	r18,r18,16
 10038d0:	8c400044 	addi	r17,r17,1
 10038d4:	1f000015 	stw	fp,0(r3)
 10038d8:	1cc00115 	stw	r19,4(r3)
 10038dc:	dc800e15 	stw	r18,56(sp)
 10038e0:	dc400d15 	stw	r17,52(sp)
 10038e4:	a47ff60e 	bge	r20,r17,10038c0 <___vfprintf_internal_r+0x978>
 10038e8:	d9014f17 	ldw	r4,1340(sp)
 10038ec:	b00b883a 	mov	r5,r22
 10038f0:	d9800c04 	addi	r6,sp,48
 10038f4:	1002ee40 	call	1002ee4 <__sprint_r>
 10038f8:	103f4e1e 	bne	r2,zero,1003634 <___vfprintf_internal_r+0x6ec>
 10038fc:	dc800e17 	ldw	r18,56(sp)
 1003900:	dc400d17 	ldw	r17,52(sp)
 1003904:	d8c01904 	addi	r3,sp,100
 1003908:	003fee06 	br	10038c4 <___vfprintf_internal_r+0x97c>
 100390c:	d8802c0b 	ldhu	r2,176(sp)
 1003910:	00ffffc4 	movi	r3,-1
 1003914:	d8c14b15 	stw	r3,1324(sp)
 1003918:	1080100c 	andi	r2,r2,64
 100391c:	103dcc1e 	bne	r2,zero,1003050 <___vfprintf_internal_r+0x108>
 1003920:	003dce06 	br	100305c <___vfprintf_internal_r+0x114>
 1003924:	d9014f17 	ldw	r4,1340(sp)
 1003928:	b00b883a 	mov	r5,r22
 100392c:	d9800c04 	addi	r6,sp,48
 1003930:	1002ee40 	call	1002ee4 <__sprint_r>
 1003934:	103f3f1e 	bne	r2,zero,1003634 <___vfprintf_internal_r+0x6ec>
 1003938:	dc800e17 	ldw	r18,56(sp)
 100393c:	003f2e06 	br	10035f8 <___vfprintf_internal_r+0x6b0>
 1003940:	d9414c17 	ldw	r5,1328(sp)
 1003944:	29400414 	ori	r5,r5,16
 1003948:	d9414c15 	stw	r5,1328(sp)
 100394c:	d9814c17 	ldw	r6,1328(sp)
 1003950:	3080080c 	andi	r2,r6,32
 1003954:	10014f1e 	bne	r2,zero,1003e94 <___vfprintf_internal_r+0xf4c>
 1003958:	d8c14c17 	ldw	r3,1328(sp)
 100395c:	1880040c 	andi	r2,r3,16
 1003960:	1002f01e 	bne	r2,zero,1004524 <___vfprintf_internal_r+0x15dc>
 1003964:	d9014c17 	ldw	r4,1328(sp)
 1003968:	2080100c 	andi	r2,r4,64
 100396c:	1002ed26 	beq	r2,zero,1004524 <___vfprintf_internal_r+0x15dc>
 1003970:	3880000f 	ldh	r2,0(r7)
 1003974:	39c00104 	addi	r7,r7,4
 1003978:	d9c14015 	stw	r7,1280(sp)
 100397c:	1023d7fa 	srai	r17,r2,31
 1003980:	1021883a 	mov	r16,r2
 1003984:	88037816 	blt	r17,zero,1004768 <___vfprintf_internal_r+0x1820>
 1003988:	01000044 	movi	r4,1
 100398c:	98000416 	blt	r19,zero,10039a0 <___vfprintf_internal_r+0xa58>
 1003990:	d8c14c17 	ldw	r3,1328(sp)
 1003994:	00bfdfc4 	movi	r2,-129
 1003998:	1886703a 	and	r3,r3,r2
 100399c:	d8c14c15 	stw	r3,1328(sp)
 10039a0:	8444b03a 	or	r2,r16,r17
 10039a4:	10022c1e 	bne	r2,zero,1004258 <___vfprintf_internal_r+0x1310>
 10039a8:	98022b1e 	bne	r19,zero,1004258 <___vfprintf_internal_r+0x1310>
 10039ac:	20803fcc 	andi	r2,r4,255
 10039b0:	1002a126 	beq	r2,zero,1004438 <___vfprintf_internal_r+0x14f0>
 10039b4:	d8c01904 	addi	r3,sp,100
 10039b8:	dd000f04 	addi	r20,sp,60
 10039bc:	d8c14115 	stw	r3,1284(sp)
 10039c0:	d8c14117 	ldw	r3,1284(sp)
 10039c4:	dcc14515 	stw	r19,1300(sp)
 10039c8:	a0c5c83a 	sub	r2,r20,r3
 10039cc:	11c00a04 	addi	r7,r2,40
 10039d0:	99c0010e 	bge	r19,r7,10039d8 <___vfprintf_internal_r+0xa90>
 10039d4:	d9c14515 	stw	r7,1300(sp)
 10039d8:	dcc14615 	stw	r19,1304(sp)
 10039dc:	d8800407 	ldb	r2,16(sp)
 10039e0:	103e4c26 	beq	r2,zero,1003314 <___vfprintf_internal_r+0x3cc>
 10039e4:	d8814517 	ldw	r2,1300(sp)
 10039e8:	10800044 	addi	r2,r2,1
 10039ec:	d8814515 	stw	r2,1300(sp)
 10039f0:	003e4806 	br	1003314 <___vfprintf_internal_r+0x3cc>
 10039f4:	d9814c17 	ldw	r6,1328(sp)
 10039f8:	31800414 	ori	r6,r6,16
 10039fc:	d9814c15 	stw	r6,1328(sp)
 1003a00:	d8c14c17 	ldw	r3,1328(sp)
 1003a04:	1880080c 	andi	r2,r3,32
 1003a08:	1001271e 	bne	r2,zero,1003ea8 <___vfprintf_internal_r+0xf60>
 1003a0c:	d9414c17 	ldw	r5,1328(sp)
 1003a10:	2880040c 	andi	r2,r5,16
 1003a14:	1002bc1e 	bne	r2,zero,1004508 <___vfprintf_internal_r+0x15c0>
 1003a18:	d9814c17 	ldw	r6,1328(sp)
 1003a1c:	3080100c 	andi	r2,r6,64
 1003a20:	1002b926 	beq	r2,zero,1004508 <___vfprintf_internal_r+0x15c0>
 1003a24:	3c00000b 	ldhu	r16,0(r7)
 1003a28:	0009883a 	mov	r4,zero
 1003a2c:	39c00104 	addi	r7,r7,4
 1003a30:	0023883a 	mov	r17,zero
 1003a34:	d9c14015 	stw	r7,1280(sp)
 1003a38:	d8000405 	stb	zero,16(sp)
 1003a3c:	003fd306 	br	100398c <___vfprintf_internal_r+0xa44>
 1003a40:	d9014c17 	ldw	r4,1328(sp)
 1003a44:	21000414 	ori	r4,r4,16
 1003a48:	d9014c15 	stw	r4,1328(sp)
 1003a4c:	d9414c17 	ldw	r5,1328(sp)
 1003a50:	2880080c 	andi	r2,r5,32
 1003a54:	1001081e 	bne	r2,zero,1003e78 <___vfprintf_internal_r+0xf30>
 1003a58:	d8c14c17 	ldw	r3,1328(sp)
 1003a5c:	1880040c 	andi	r2,r3,16
 1003a60:	1002b61e 	bne	r2,zero,100453c <___vfprintf_internal_r+0x15f4>
 1003a64:	d9014c17 	ldw	r4,1328(sp)
 1003a68:	2080100c 	andi	r2,r4,64
 1003a6c:	1002b326 	beq	r2,zero,100453c <___vfprintf_internal_r+0x15f4>
 1003a70:	3c00000b 	ldhu	r16,0(r7)
 1003a74:	01000044 	movi	r4,1
 1003a78:	39c00104 	addi	r7,r7,4
 1003a7c:	0023883a 	mov	r17,zero
 1003a80:	d9c14015 	stw	r7,1280(sp)
 1003a84:	d8000405 	stb	zero,16(sp)
 1003a88:	003fc006 	br	100398c <___vfprintf_internal_r+0xa44>
 1003a8c:	d9014f17 	ldw	r4,1340(sp)
 1003a90:	b00b883a 	mov	r5,r22
 1003a94:	d9800c04 	addi	r6,sp,48
 1003a98:	1002ee40 	call	1002ee4 <__sprint_r>
 1003a9c:	103ee51e 	bne	r2,zero,1003634 <___vfprintf_internal_r+0x6ec>
 1003aa0:	dc800e17 	ldw	r18,56(sp)
 1003aa4:	d8c01904 	addi	r3,sp,100
 1003aa8:	d9814c17 	ldw	r6,1328(sp)
 1003aac:	3080004c 	andi	r2,r6,1
 1003ab0:	1005003a 	cmpeq	r2,r2,zero
 1003ab4:	103ea51e 	bne	r2,zero,100354c <___vfprintf_internal_r+0x604>
 1003ab8:	00800044 	movi	r2,1
 1003abc:	dc400d17 	ldw	r17,52(sp)
 1003ac0:	18800115 	stw	r2,4(r3)
 1003ac4:	d8814917 	ldw	r2,1316(sp)
 1003ac8:	94800044 	addi	r18,r18,1
 1003acc:	8c400044 	addi	r17,r17,1
 1003ad0:	18800015 	stw	r2,0(r3)
 1003ad4:	008001c4 	movi	r2,7
 1003ad8:	dc800e15 	stw	r18,56(sp)
 1003adc:	dc400d15 	stw	r17,52(sp)
 1003ae0:	1442240e 	bge	r2,r17,1004374 <___vfprintf_internal_r+0x142c>
 1003ae4:	d9014f17 	ldw	r4,1340(sp)
 1003ae8:	b00b883a 	mov	r5,r22
 1003aec:	d9800c04 	addi	r6,sp,48
 1003af0:	1002ee40 	call	1002ee4 <__sprint_r>
 1003af4:	103ecf1e 	bne	r2,zero,1003634 <___vfprintf_internal_r+0x6ec>
 1003af8:	dc800e17 	ldw	r18,56(sp)
 1003afc:	d8c01904 	addi	r3,sp,100
 1003b00:	003e9206 	br	100354c <___vfprintf_internal_r+0x604>
 1003b04:	d9014f17 	ldw	r4,1340(sp)
 1003b08:	b00b883a 	mov	r5,r22
 1003b0c:	d9800c04 	addi	r6,sp,48
 1003b10:	1002ee40 	call	1002ee4 <__sprint_r>
 1003b14:	103ec026 	beq	r2,zero,1003618 <___vfprintf_internal_r+0x6d0>
 1003b18:	003ec606 	br	1003634 <___vfprintf_internal_r+0x6ec>
 1003b1c:	d9014f17 	ldw	r4,1340(sp)
 1003b20:	b00b883a 	mov	r5,r22
 1003b24:	d9800c04 	addi	r6,sp,48
 1003b28:	d9c15115 	stw	r7,1348(sp)
 1003b2c:	1002ee40 	call	1002ee4 <__sprint_r>
 1003b30:	d9c15117 	ldw	r7,1348(sp)
 1003b34:	103ebf1e 	bne	r2,zero,1003634 <___vfprintf_internal_r+0x6ec>
 1003b38:	dc800e17 	ldw	r18,56(sp)
 1003b3c:	dc400d17 	ldw	r17,52(sp)
 1003b40:	dd401904 	addi	r21,sp,100
 1003b44:	003e7406 	br	1003518 <___vfprintf_internal_r+0x5d0>
 1003b48:	d9014f17 	ldw	r4,1340(sp)
 1003b4c:	b00b883a 	mov	r5,r22
 1003b50:	d9800c04 	addi	r6,sp,48
 1003b54:	d9c15115 	stw	r7,1348(sp)
 1003b58:	1002ee40 	call	1002ee4 <__sprint_r>
 1003b5c:	d9c15117 	ldw	r7,1348(sp)
 1003b60:	103eb41e 	bne	r2,zero,1003634 <___vfprintf_internal_r+0x6ec>
 1003b64:	dd401904 	addi	r21,sp,100
 1003b68:	003d6d06 	br	1003120 <___vfprintf_internal_r+0x1d8>
 1003b6c:	d9014f17 	ldw	r4,1340(sp)
 1003b70:	b00b883a 	mov	r5,r22
 1003b74:	d9800c04 	addi	r6,sp,48
 1003b78:	d9c15115 	stw	r7,1348(sp)
 1003b7c:	1002ee40 	call	1002ee4 <__sprint_r>
 1003b80:	d9c15117 	ldw	r7,1348(sp)
 1003b84:	103eab1e 	bne	r2,zero,1003634 <___vfprintf_internal_r+0x6ec>
 1003b88:	dc800e17 	ldw	r18,56(sp)
 1003b8c:	dc400d17 	ldw	r17,52(sp)
 1003b90:	dd401904 	addi	r21,sp,100
 1003b94:	003e3406 	br	1003468 <___vfprintf_internal_r+0x520>
 1003b98:	d9014f17 	ldw	r4,1340(sp)
 1003b9c:	b00b883a 	mov	r5,r22
 1003ba0:	d9800c04 	addi	r6,sp,48
 1003ba4:	d9c15115 	stw	r7,1348(sp)
 1003ba8:	1002ee40 	call	1002ee4 <__sprint_r>
 1003bac:	d9c15117 	ldw	r7,1348(sp)
 1003bb0:	103ea01e 	bne	r2,zero,1003634 <___vfprintf_internal_r+0x6ec>
 1003bb4:	dc800e17 	ldw	r18,56(sp)
 1003bb8:	dc400d17 	ldw	r17,52(sp)
 1003bbc:	dd401904 	addi	r21,sp,100
 1003bc0:	003e1c06 	br	1003434 <___vfprintf_internal_r+0x4ec>
 1003bc4:	d9014f17 	ldw	r4,1340(sp)
 1003bc8:	b00b883a 	mov	r5,r22
 1003bcc:	d9800c04 	addi	r6,sp,48
 1003bd0:	d9c15115 	stw	r7,1348(sp)
 1003bd4:	1002ee40 	call	1002ee4 <__sprint_r>
 1003bd8:	d9c15117 	ldw	r7,1348(sp)
 1003bdc:	103e951e 	bne	r2,zero,1003634 <___vfprintf_internal_r+0x6ec>
 1003be0:	dc800e17 	ldw	r18,56(sp)
 1003be4:	dc400d17 	ldw	r17,52(sp)
 1003be8:	dd401904 	addi	r21,sp,100
 1003bec:	003e0406 	br	1003400 <___vfprintf_internal_r+0x4b8>
 1003bf0:	d9000517 	ldw	r4,20(sp)
 1003bf4:	0102580e 	bge	zero,r4,1004558 <___vfprintf_internal_r+0x1610>
 1003bf8:	d9814717 	ldw	r6,1308(sp)
 1003bfc:	21807a16 	blt	r4,r6,1003de8 <___vfprintf_internal_r+0xea0>
 1003c00:	d8814117 	ldw	r2,1284(sp)
 1003c04:	91a5883a 	add	r18,r18,r6
 1003c08:	8c400044 	addi	r17,r17,1
 1003c0c:	a8800015 	stw	r2,0(r21)
 1003c10:	008001c4 	movi	r2,7
 1003c14:	a9800115 	stw	r6,4(r21)
 1003c18:	dc800e15 	stw	r18,56(sp)
 1003c1c:	dc400d15 	stw	r17,52(sp)
 1003c20:	1442fc16 	blt	r2,r17,1004814 <___vfprintf_internal_r+0x18cc>
 1003c24:	a8c00204 	addi	r3,r21,8
 1003c28:	d9414717 	ldw	r5,1308(sp)
 1003c2c:	2161c83a 	sub	r16,r4,r5
 1003c30:	043f9d0e 	bge	zero,r16,1003aa8 <___vfprintf_internal_r+0xb60>
 1003c34:	00800404 	movi	r2,16
 1003c38:	1402190e 	bge	r2,r16,10044a0 <___vfprintf_internal_r+0x1558>
 1003c3c:	dc400d17 	ldw	r17,52(sp)
 1003c40:	1027883a 	mov	r19,r2
 1003c44:	070040b4 	movhi	fp,258
 1003c48:	e7280384 	addi	fp,fp,-24562
 1003c4c:	050001c4 	movi	r20,7
 1003c50:	00000306 	br	1003c60 <___vfprintf_internal_r+0xd18>
 1003c54:	18c00204 	addi	r3,r3,8
 1003c58:	843ffc04 	addi	r16,r16,-16
 1003c5c:	9c02130e 	bge	r19,r16,10044ac <___vfprintf_internal_r+0x1564>
 1003c60:	94800404 	addi	r18,r18,16
 1003c64:	8c400044 	addi	r17,r17,1
 1003c68:	1f000015 	stw	fp,0(r3)
 1003c6c:	1cc00115 	stw	r19,4(r3)
 1003c70:	dc800e15 	stw	r18,56(sp)
 1003c74:	dc400d15 	stw	r17,52(sp)
 1003c78:	a47ff60e 	bge	r20,r17,1003c54 <___vfprintf_internal_r+0xd0c>
 1003c7c:	d9014f17 	ldw	r4,1340(sp)
 1003c80:	b00b883a 	mov	r5,r22
 1003c84:	d9800c04 	addi	r6,sp,48
 1003c88:	1002ee40 	call	1002ee4 <__sprint_r>
 1003c8c:	103e691e 	bne	r2,zero,1003634 <___vfprintf_internal_r+0x6ec>
 1003c90:	dc800e17 	ldw	r18,56(sp)
 1003c94:	dc400d17 	ldw	r17,52(sp)
 1003c98:	d8c01904 	addi	r3,sp,100
 1003c9c:	003fee06 	br	1003c58 <___vfprintf_internal_r+0xd10>
 1003ca0:	d8814717 	ldw	r2,1308(sp)
 1003ca4:	143fffc4 	addi	r16,r2,-1
 1003ca8:	043e970e 	bge	zero,r16,1003708 <___vfprintf_internal_r+0x7c0>
 1003cac:	00800404 	movi	r2,16
 1003cb0:	1400180e 	bge	r2,r16,1003d14 <___vfprintf_internal_r+0xdcc>
 1003cb4:	1029883a 	mov	r20,r2
 1003cb8:	070040b4 	movhi	fp,258
 1003cbc:	e7280384 	addi	fp,fp,-24562
 1003cc0:	054001c4 	movi	r21,7
 1003cc4:	00000306 	br	1003cd4 <___vfprintf_internal_r+0xd8c>
 1003cc8:	9cc00204 	addi	r19,r19,8
 1003ccc:	843ffc04 	addi	r16,r16,-16
 1003cd0:	a400120e 	bge	r20,r16,1003d1c <___vfprintf_internal_r+0xdd4>
 1003cd4:	94800404 	addi	r18,r18,16
 1003cd8:	8c400044 	addi	r17,r17,1
 1003cdc:	9f000015 	stw	fp,0(r19)
 1003ce0:	9d000115 	stw	r20,4(r19)
 1003ce4:	dc800e15 	stw	r18,56(sp)
 1003ce8:	dc400d15 	stw	r17,52(sp)
 1003cec:	ac7ff60e 	bge	r21,r17,1003cc8 <___vfprintf_internal_r+0xd80>
 1003cf0:	d9014f17 	ldw	r4,1340(sp)
 1003cf4:	b00b883a 	mov	r5,r22
 1003cf8:	d9800c04 	addi	r6,sp,48
 1003cfc:	1002ee40 	call	1002ee4 <__sprint_r>
 1003d00:	103e4c1e 	bne	r2,zero,1003634 <___vfprintf_internal_r+0x6ec>
 1003d04:	dc800e17 	ldw	r18,56(sp)
 1003d08:	dc400d17 	ldw	r17,52(sp)
 1003d0c:	dcc01904 	addi	r19,sp,100
 1003d10:	003fee06 	br	1003ccc <___vfprintf_internal_r+0xd84>
 1003d14:	070040b4 	movhi	fp,258
 1003d18:	e7280384 	addi	fp,fp,-24562
 1003d1c:	9425883a 	add	r18,r18,r16
 1003d20:	8c400044 	addi	r17,r17,1
 1003d24:	008001c4 	movi	r2,7
 1003d28:	9f000015 	stw	fp,0(r19)
 1003d2c:	9c000115 	stw	r16,4(r19)
 1003d30:	dc800e15 	stw	r18,56(sp)
 1003d34:	dc400d15 	stw	r17,52(sp)
 1003d38:	147e720e 	bge	r2,r17,1003704 <___vfprintf_internal_r+0x7bc>
 1003d3c:	d9014f17 	ldw	r4,1340(sp)
 1003d40:	b00b883a 	mov	r5,r22
 1003d44:	d9800c04 	addi	r6,sp,48
 1003d48:	1002ee40 	call	1002ee4 <__sprint_r>
 1003d4c:	103e391e 	bne	r2,zero,1003634 <___vfprintf_internal_r+0x6ec>
 1003d50:	dc800e17 	ldw	r18,56(sp)
 1003d54:	dc400d17 	ldw	r17,52(sp)
 1003d58:	dcc01904 	addi	r19,sp,100
 1003d5c:	003e6a06 	br	1003708 <___vfprintf_internal_r+0x7c0>
 1003d60:	d9014f17 	ldw	r4,1340(sp)
 1003d64:	b00b883a 	mov	r5,r22
 1003d68:	d9800c04 	addi	r6,sp,48
 1003d6c:	d9c15115 	stw	r7,1348(sp)
 1003d70:	1002ee40 	call	1002ee4 <__sprint_r>
 1003d74:	d9c15117 	ldw	r7,1348(sp)
 1003d78:	103e2e1e 	bne	r2,zero,1003634 <___vfprintf_internal_r+0x6ec>
 1003d7c:	dc800e17 	ldw	r18,56(sp)
 1003d80:	dc400d17 	ldw	r17,52(sp)
 1003d84:	dd401904 	addi	r21,sp,100
 1003d88:	003dba06 	br	1003474 <___vfprintf_internal_r+0x52c>
 1003d8c:	d9014f17 	ldw	r4,1340(sp)
 1003d90:	b00b883a 	mov	r5,r22
 1003d94:	d9800c04 	addi	r6,sp,48
 1003d98:	1002ee40 	call	1002ee4 <__sprint_r>
 1003d9c:	103e251e 	bne	r2,zero,1003634 <___vfprintf_internal_r+0x6ec>
 1003da0:	dc800e17 	ldw	r18,56(sp)
 1003da4:	dc400d17 	ldw	r17,52(sp)
 1003da8:	dcc01904 	addi	r19,sp,100
 1003dac:	003e4206 	br	10036b8 <___vfprintf_internal_r+0x770>
 1003db0:	d9014f17 	ldw	r4,1340(sp)
 1003db4:	b00b883a 	mov	r5,r22
 1003db8:	d9800c04 	addi	r6,sp,48
 1003dbc:	1002ee40 	call	1002ee4 <__sprint_r>
 1003dc0:	103e1c1e 	bne	r2,zero,1003634 <___vfprintf_internal_r+0x6ec>
 1003dc4:	dc800e17 	ldw	r18,56(sp)
 1003dc8:	dc400d17 	ldw	r17,52(sp)
 1003dcc:	d8c01904 	addi	r3,sp,100
 1003dd0:	003e2e06 	br	100368c <___vfprintf_internal_r+0x744>
 1003dd4:	d9414c17 	ldw	r5,1328(sp)
 1003dd8:	2880004c 	andi	r2,r5,1
 1003ddc:	1005003a 	cmpeq	r2,r2,zero
 1003de0:	103dda1e 	bne	r2,zero,100354c <___vfprintf_internal_r+0x604>
 1003de4:	003e9f06 	br	1003864 <___vfprintf_internal_r+0x91c>
 1003de8:	d8c14117 	ldw	r3,1284(sp)
 1003dec:	9125883a 	add	r18,r18,r4
 1003df0:	8c400044 	addi	r17,r17,1
 1003df4:	008001c4 	movi	r2,7
 1003df8:	a8c00015 	stw	r3,0(r21)
 1003dfc:	a9000115 	stw	r4,4(r21)
 1003e00:	dc800e15 	stw	r18,56(sp)
 1003e04:	dc400d15 	stw	r17,52(sp)
 1003e08:	14426c16 	blt	r2,r17,10047bc <___vfprintf_internal_r+0x1874>
 1003e0c:	a8c00204 	addi	r3,r21,8
 1003e10:	d9414917 	ldw	r5,1316(sp)
 1003e14:	00800044 	movi	r2,1
 1003e18:	94800044 	addi	r18,r18,1
 1003e1c:	8c400044 	addi	r17,r17,1
 1003e20:	18800115 	stw	r2,4(r3)
 1003e24:	008001c4 	movi	r2,7
 1003e28:	19400015 	stw	r5,0(r3)
 1003e2c:	dc800e15 	stw	r18,56(sp)
 1003e30:	dc400d15 	stw	r17,52(sp)
 1003e34:	2021883a 	mov	r16,r4
 1003e38:	14425616 	blt	r2,r17,1004794 <___vfprintf_internal_r+0x184c>
 1003e3c:	19400204 	addi	r5,r3,8
 1003e40:	d9814717 	ldw	r6,1308(sp)
 1003e44:	8c400044 	addi	r17,r17,1
 1003e48:	dc400d15 	stw	r17,52(sp)
 1003e4c:	3107c83a 	sub	r3,r6,r4
 1003e50:	d9014117 	ldw	r4,1284(sp)
 1003e54:	90e5883a 	add	r18,r18,r3
 1003e58:	28c00115 	stw	r3,4(r5)
 1003e5c:	8105883a 	add	r2,r16,r4
 1003e60:	28800015 	stw	r2,0(r5)
 1003e64:	008001c4 	movi	r2,7
 1003e68:	dc800e15 	stw	r18,56(sp)
 1003e6c:	147f1d16 	blt	r2,r17,1003ae4 <___vfprintf_internal_r+0xb9c>
 1003e70:	28c00204 	addi	r3,r5,8
 1003e74:	003db506 	br	100354c <___vfprintf_internal_r+0x604>
 1003e78:	3c000017 	ldw	r16,0(r7)
 1003e7c:	3c400117 	ldw	r17,4(r7)
 1003e80:	39800204 	addi	r6,r7,8
 1003e84:	01000044 	movi	r4,1
 1003e88:	d9814015 	stw	r6,1280(sp)
 1003e8c:	d8000405 	stb	zero,16(sp)
 1003e90:	003ebe06 	br	100398c <___vfprintf_internal_r+0xa44>
 1003e94:	3c000017 	ldw	r16,0(r7)
 1003e98:	3c400117 	ldw	r17,4(r7)
 1003e9c:	38800204 	addi	r2,r7,8
 1003ea0:	d8814015 	stw	r2,1280(sp)
 1003ea4:	003eb706 	br	1003984 <___vfprintf_internal_r+0xa3c>
 1003ea8:	3c000017 	ldw	r16,0(r7)
 1003eac:	3c400117 	ldw	r17,4(r7)
 1003eb0:	39000204 	addi	r4,r7,8
 1003eb4:	d9014015 	stw	r4,1280(sp)
 1003eb8:	0009883a 	mov	r4,zero
 1003ebc:	d8000405 	stb	zero,16(sp)
 1003ec0:	003eb206 	br	100398c <___vfprintf_internal_r+0xa44>
 1003ec4:	38c00017 	ldw	r3,0(r7)
 1003ec8:	39c00104 	addi	r7,r7,4
 1003ecc:	d8c14a15 	stw	r3,1320(sp)
 1003ed0:	1800d70e 	bge	r3,zero,1004230 <___vfprintf_internal_r+0x12e8>
 1003ed4:	00c7c83a 	sub	r3,zero,r3
 1003ed8:	d8c14a15 	stw	r3,1320(sp)
 1003edc:	d9014c17 	ldw	r4,1328(sp)
 1003ee0:	b8c00007 	ldb	r3,0(r23)
 1003ee4:	21000114 	ori	r4,r4,4
 1003ee8:	d9014c15 	stw	r4,1328(sp)
 1003eec:	003c9806 	br	1003150 <___vfprintf_internal_r+0x208>
 1003ef0:	d9814c17 	ldw	r6,1328(sp)
 1003ef4:	3080080c 	andi	r2,r6,32
 1003ef8:	1001f626 	beq	r2,zero,10046d4 <___vfprintf_internal_r+0x178c>
 1003efc:	d9014b17 	ldw	r4,1324(sp)
 1003f00:	38800017 	ldw	r2,0(r7)
 1003f04:	39c00104 	addi	r7,r7,4
 1003f08:	d9c14015 	stw	r7,1280(sp)
 1003f0c:	2007d7fa 	srai	r3,r4,31
 1003f10:	d9c14017 	ldw	r7,1280(sp)
 1003f14:	11000015 	stw	r4,0(r2)
 1003f18:	10c00115 	stw	r3,4(r2)
 1003f1c:	003c6906 	br	10030c4 <___vfprintf_internal_r+0x17c>
 1003f20:	b8c00007 	ldb	r3,0(r23)
 1003f24:	00801b04 	movi	r2,108
 1003f28:	18825526 	beq	r3,r2,1004880 <___vfprintf_internal_r+0x1938>
 1003f2c:	d9414c17 	ldw	r5,1328(sp)
 1003f30:	29400414 	ori	r5,r5,16
 1003f34:	d9414c15 	stw	r5,1328(sp)
 1003f38:	003c8506 	br	1003150 <___vfprintf_internal_r+0x208>
 1003f3c:	d9814c17 	ldw	r6,1328(sp)
 1003f40:	b8c00007 	ldb	r3,0(r23)
 1003f44:	31800814 	ori	r6,r6,32
 1003f48:	d9814c15 	stw	r6,1328(sp)
 1003f4c:	003c8006 	br	1003150 <___vfprintf_internal_r+0x208>
 1003f50:	d8814c17 	ldw	r2,1328(sp)
 1003f54:	3c000017 	ldw	r16,0(r7)
 1003f58:	00c01e04 	movi	r3,120
 1003f5c:	10800094 	ori	r2,r2,2
 1003f60:	d8814c15 	stw	r2,1328(sp)
 1003f64:	39c00104 	addi	r7,r7,4
 1003f68:	014040b4 	movhi	r5,258
 1003f6c:	2967ec04 	addi	r5,r5,-24656
 1003f70:	00800c04 	movi	r2,48
 1003f74:	0023883a 	mov	r17,zero
 1003f78:	01000084 	movi	r4,2
 1003f7c:	d9c14015 	stw	r7,1280(sp)
 1003f80:	d8c14d15 	stw	r3,1332(sp)
 1003f84:	d9414415 	stw	r5,1296(sp)
 1003f88:	d8800445 	stb	r2,17(sp)
 1003f8c:	d8c00485 	stb	r3,18(sp)
 1003f90:	d8000405 	stb	zero,16(sp)
 1003f94:	003e7d06 	br	100398c <___vfprintf_internal_r+0xa44>
 1003f98:	d8814c17 	ldw	r2,1328(sp)
 1003f9c:	b8c00007 	ldb	r3,0(r23)
 1003fa0:	10801014 	ori	r2,r2,64
 1003fa4:	d8814c15 	stw	r2,1328(sp)
 1003fa8:	003c6906 	br	1003150 <___vfprintf_internal_r+0x208>
 1003fac:	d9414c17 	ldw	r5,1328(sp)
 1003fb0:	2880020c 	andi	r2,r5,8
 1003fb4:	1001e526 	beq	r2,zero,100474c <___vfprintf_internal_r+0x1804>
 1003fb8:	39800017 	ldw	r6,0(r7)
 1003fbc:	38800204 	addi	r2,r7,8
 1003fc0:	d8814015 	stw	r2,1280(sp)
 1003fc4:	d9814215 	stw	r6,1288(sp)
 1003fc8:	39c00117 	ldw	r7,4(r7)
 1003fcc:	d9c14315 	stw	r7,1292(sp)
 1003fd0:	d9014217 	ldw	r4,1288(sp)
 1003fd4:	d9414317 	ldw	r5,1292(sp)
 1003fd8:	1009eac0 	call	1009eac <__isinfd>
 1003fdc:	10021d26 	beq	r2,zero,1004854 <___vfprintf_internal_r+0x190c>
 1003fe0:	d9014217 	ldw	r4,1288(sp)
 1003fe4:	d9414317 	ldw	r5,1292(sp)
 1003fe8:	000d883a 	mov	r6,zero
 1003fec:	000f883a 	mov	r7,zero
 1003ff0:	100b7a00 	call	100b7a0 <__ltdf2>
 1003ff4:	1002d016 	blt	r2,zero,1004b38 <___vfprintf_internal_r+0x1bf0>
 1003ff8:	d9414d17 	ldw	r5,1332(sp)
 1003ffc:	008011c4 	movi	r2,71
 1004000:	11421016 	blt	r2,r5,1004844 <___vfprintf_internal_r+0x18fc>
 1004004:	018040b4 	movhi	r6,258
 1004008:	31a7f104 	addi	r6,r6,-24636
 100400c:	d9814115 	stw	r6,1284(sp)
 1004010:	d9014c17 	ldw	r4,1328(sp)
 1004014:	00c000c4 	movi	r3,3
 1004018:	00bfdfc4 	movi	r2,-129
 100401c:	2088703a 	and	r4,r4,r2
 1004020:	180f883a 	mov	r7,r3
 1004024:	d8c14515 	stw	r3,1300(sp)
 1004028:	d9014c15 	stw	r4,1328(sp)
 100402c:	d8014615 	stw	zero,1304(sp)
 1004030:	003e6a06 	br	10039dc <___vfprintf_internal_r+0xa94>
 1004034:	38800017 	ldw	r2,0(r7)
 1004038:	00c00044 	movi	r3,1
 100403c:	39c00104 	addi	r7,r7,4
 1004040:	d9c14015 	stw	r7,1280(sp)
 1004044:	d9000f04 	addi	r4,sp,60
 1004048:	180f883a 	mov	r7,r3
 100404c:	d8c14515 	stw	r3,1300(sp)
 1004050:	d9014115 	stw	r4,1284(sp)
 1004054:	d8800f05 	stb	r2,60(sp)
 1004058:	d8000405 	stb	zero,16(sp)
 100405c:	003cac06 	br	1003310 <___vfprintf_internal_r+0x3c8>
 1004060:	014040b4 	movhi	r5,258
 1004064:	2967f704 	addi	r5,r5,-24612
 1004068:	d9414415 	stw	r5,1296(sp)
 100406c:	d9814c17 	ldw	r6,1328(sp)
 1004070:	3080080c 	andi	r2,r6,32
 1004074:	1000ff26 	beq	r2,zero,1004474 <___vfprintf_internal_r+0x152c>
 1004078:	3c000017 	ldw	r16,0(r7)
 100407c:	3c400117 	ldw	r17,4(r7)
 1004080:	38800204 	addi	r2,r7,8
 1004084:	d8814015 	stw	r2,1280(sp)
 1004088:	d9414c17 	ldw	r5,1328(sp)
 100408c:	2880004c 	andi	r2,r5,1
 1004090:	1005003a 	cmpeq	r2,r2,zero
 1004094:	1000b91e 	bne	r2,zero,100437c <___vfprintf_internal_r+0x1434>
 1004098:	8444b03a 	or	r2,r16,r17
 100409c:	1000b726 	beq	r2,zero,100437c <___vfprintf_internal_r+0x1434>
 10040a0:	d9814d17 	ldw	r6,1332(sp)
 10040a4:	29400094 	ori	r5,r5,2
 10040a8:	00800c04 	movi	r2,48
 10040ac:	01000084 	movi	r4,2
 10040b0:	d9414c15 	stw	r5,1328(sp)
 10040b4:	d8800445 	stb	r2,17(sp)
 10040b8:	d9800485 	stb	r6,18(sp)
 10040bc:	d8000405 	stb	zero,16(sp)
 10040c0:	003e3206 	br	100398c <___vfprintf_internal_r+0xa44>
 10040c4:	018040b4 	movhi	r6,258
 10040c8:	31a7ec04 	addi	r6,r6,-24656
 10040cc:	d9814415 	stw	r6,1296(sp)
 10040d0:	003fe606 	br	100406c <___vfprintf_internal_r+0x1124>
 10040d4:	00800ac4 	movi	r2,43
 10040d8:	d8800405 	stb	r2,16(sp)
 10040dc:	b8c00007 	ldb	r3,0(r23)
 10040e0:	003c1b06 	br	1003150 <___vfprintf_internal_r+0x208>
 10040e4:	d8814c17 	ldw	r2,1328(sp)
 10040e8:	b8c00007 	ldb	r3,0(r23)
 10040ec:	10800054 	ori	r2,r2,1
 10040f0:	d8814c15 	stw	r2,1328(sp)
 10040f4:	003c1606 	br	1003150 <___vfprintf_internal_r+0x208>
 10040f8:	d8800407 	ldb	r2,16(sp)
 10040fc:	10004c1e 	bne	r2,zero,1004230 <___vfprintf_internal_r+0x12e8>
 1004100:	00800804 	movi	r2,32
 1004104:	d8800405 	stb	r2,16(sp)
 1004108:	b8c00007 	ldb	r3,0(r23)
 100410c:	003c1006 	br	1003150 <___vfprintf_internal_r+0x208>
 1004110:	d9814c17 	ldw	r6,1328(sp)
 1004114:	b8c00007 	ldb	r3,0(r23)
 1004118:	31800214 	ori	r6,r6,8
 100411c:	d9814c15 	stw	r6,1328(sp)
 1004120:	003c0b06 	br	1003150 <___vfprintf_internal_r+0x208>
 1004124:	0009883a 	mov	r4,zero
 1004128:	04000244 	movi	r16,9
 100412c:	01400284 	movi	r5,10
 1004130:	d9c15115 	stw	r7,1348(sp)
 1004134:	10026680 	call	1002668 <__mulsi3>
 1004138:	b9000007 	ldb	r4,0(r23)
 100413c:	d8c14d17 	ldw	r3,1332(sp)
 1004140:	bdc00044 	addi	r23,r23,1
 1004144:	d9014d15 	stw	r4,1332(sp)
 1004148:	d9414d17 	ldw	r5,1332(sp)
 100414c:	1885883a 	add	r2,r3,r2
 1004150:	113ff404 	addi	r4,r2,-48
 1004154:	28bff404 	addi	r2,r5,-48
 1004158:	d9c15117 	ldw	r7,1348(sp)
 100415c:	80bff32e 	bgeu	r16,r2,100412c <___vfprintf_internal_r+0x11e4>
 1004160:	d9014a15 	stw	r4,1320(sp)
 1004164:	003bfc06 	br	1003158 <___vfprintf_internal_r+0x210>
 1004168:	d8814c17 	ldw	r2,1328(sp)
 100416c:	b8c00007 	ldb	r3,0(r23)
 1004170:	10802014 	ori	r2,r2,128
 1004174:	d8814c15 	stw	r2,1328(sp)
 1004178:	003bf506 	br	1003150 <___vfprintf_internal_r+0x208>
 100417c:	b8c00007 	ldb	r3,0(r23)
 1004180:	00800a84 	movi	r2,42
 1004184:	bdc00044 	addi	r23,r23,1
 1004188:	18831826 	beq	r3,r2,1004dec <___vfprintf_internal_r+0x1ea4>
 100418c:	d8c14d15 	stw	r3,1332(sp)
 1004190:	18bff404 	addi	r2,r3,-48
 1004194:	00c00244 	movi	r3,9
 1004198:	18827b36 	bltu	r3,r2,1004b88 <___vfprintf_internal_r+0x1c40>
 100419c:	1821883a 	mov	r16,r3
 10041a0:	0009883a 	mov	r4,zero
 10041a4:	01400284 	movi	r5,10
 10041a8:	d9c15115 	stw	r7,1348(sp)
 10041ac:	10026680 	call	1002668 <__mulsi3>
 10041b0:	d9414d17 	ldw	r5,1332(sp)
 10041b4:	b9800007 	ldb	r6,0(r23)
 10041b8:	d9c15117 	ldw	r7,1348(sp)
 10041bc:	1145883a 	add	r2,r2,r5
 10041c0:	113ff404 	addi	r4,r2,-48
 10041c4:	30bff404 	addi	r2,r6,-48
 10041c8:	d9814d15 	stw	r6,1332(sp)
 10041cc:	bdc00044 	addi	r23,r23,1
 10041d0:	80bff42e 	bgeu	r16,r2,10041a4 <___vfprintf_internal_r+0x125c>
 10041d4:	2027883a 	mov	r19,r4
 10041d8:	203bdf0e 	bge	r4,zero,1003158 <___vfprintf_internal_r+0x210>
 10041dc:	04ffffc4 	movi	r19,-1
 10041e0:	003bdd06 	br	1003158 <___vfprintf_internal_r+0x210>
 10041e4:	d8000405 	stb	zero,16(sp)
 10041e8:	39800017 	ldw	r6,0(r7)
 10041ec:	39c00104 	addi	r7,r7,4
 10041f0:	d9c14015 	stw	r7,1280(sp)
 10041f4:	d9814115 	stw	r6,1284(sp)
 10041f8:	3001c926 	beq	r6,zero,1004920 <___vfprintf_internal_r+0x19d8>
 10041fc:	98000e16 	blt	r19,zero,1004238 <___vfprintf_internal_r+0x12f0>
 1004200:	d9014117 	ldw	r4,1284(sp)
 1004204:	000b883a 	mov	r5,zero
 1004208:	980d883a 	mov	r6,r19
 100420c:	10082080 	call	1008208 <memchr>
 1004210:	10025926 	beq	r2,zero,1004b78 <___vfprintf_internal_r+0x1c30>
 1004214:	d8c14117 	ldw	r3,1284(sp)
 1004218:	10cfc83a 	sub	r7,r2,r3
 100421c:	99c19e16 	blt	r19,r7,1004898 <___vfprintf_internal_r+0x1950>
 1004220:	d9c14515 	stw	r7,1300(sp)
 1004224:	38000916 	blt	r7,zero,100424c <___vfprintf_internal_r+0x1304>
 1004228:	d8014615 	stw	zero,1304(sp)
 100422c:	003deb06 	br	10039dc <___vfprintf_internal_r+0xa94>
 1004230:	b8c00007 	ldb	r3,0(r23)
 1004234:	003bc606 	br	1003150 <___vfprintf_internal_r+0x208>
 1004238:	d9014117 	ldw	r4,1284(sp)
 100423c:	1002e640 	call	1002e64 <strlen>
 1004240:	d8814515 	stw	r2,1300(sp)
 1004244:	100f883a 	mov	r7,r2
 1004248:	103ff70e 	bge	r2,zero,1004228 <___vfprintf_internal_r+0x12e0>
 100424c:	d8014515 	stw	zero,1300(sp)
 1004250:	d8014615 	stw	zero,1304(sp)
 1004254:	003de106 	br	10039dc <___vfprintf_internal_r+0xa94>
 1004258:	20c03fcc 	andi	r3,r4,255
 100425c:	00800044 	movi	r2,1
 1004260:	18802d26 	beq	r3,r2,1004318 <___vfprintf_internal_r+0x13d0>
 1004264:	18800e36 	bltu	r3,r2,10042a0 <___vfprintf_internal_r+0x1358>
 1004268:	00800084 	movi	r2,2
 100426c:	1880fa26 	beq	r3,r2,1004658 <___vfprintf_internal_r+0x1710>
 1004270:	010040b4 	movhi	r4,258
 1004274:	2127fc04 	addi	r4,r4,-24592
 1004278:	1002e640 	call	1002e64 <strlen>
 100427c:	100f883a 	mov	r7,r2
 1004280:	dcc14515 	stw	r19,1300(sp)
 1004284:	9880010e 	bge	r19,r2,100428c <___vfprintf_internal_r+0x1344>
 1004288:	d8814515 	stw	r2,1300(sp)
 100428c:	008040b4 	movhi	r2,258
 1004290:	10a7fc04 	addi	r2,r2,-24592
 1004294:	dcc14615 	stw	r19,1304(sp)
 1004298:	d8814115 	stw	r2,1284(sp)
 100429c:	003dcf06 	br	10039dc <___vfprintf_internal_r+0xa94>
 10042a0:	d9401904 	addi	r5,sp,100
 10042a4:	dd000f04 	addi	r20,sp,60
 10042a8:	d9414115 	stw	r5,1284(sp)
 10042ac:	880a977a 	slli	r5,r17,29
 10042b0:	d9814117 	ldw	r6,1284(sp)
 10042b4:	8004d0fa 	srli	r2,r16,3
 10042b8:	8806d0fa 	srli	r3,r17,3
 10042bc:	810001cc 	andi	r4,r16,7
 10042c0:	2884b03a 	or	r2,r5,r2
 10042c4:	31bfffc4 	addi	r6,r6,-1
 10042c8:	21000c04 	addi	r4,r4,48
 10042cc:	d9814115 	stw	r6,1284(sp)
 10042d0:	10cab03a 	or	r5,r2,r3
 10042d4:	31000005 	stb	r4,0(r6)
 10042d8:	1021883a 	mov	r16,r2
 10042dc:	1823883a 	mov	r17,r3
 10042e0:	283ff21e 	bne	r5,zero,10042ac <___vfprintf_internal_r+0x1364>
 10042e4:	d8c14c17 	ldw	r3,1328(sp)
 10042e8:	1880004c 	andi	r2,r3,1
 10042ec:	1005003a 	cmpeq	r2,r2,zero
 10042f0:	103db31e 	bne	r2,zero,10039c0 <___vfprintf_internal_r+0xa78>
 10042f4:	20803fcc 	andi	r2,r4,255
 10042f8:	1080201c 	xori	r2,r2,128
 10042fc:	10bfe004 	addi	r2,r2,-128
 1004300:	00c00c04 	movi	r3,48
 1004304:	10fdae26 	beq	r2,r3,10039c0 <___vfprintf_internal_r+0xa78>
 1004308:	31bfffc4 	addi	r6,r6,-1
 100430c:	d9814115 	stw	r6,1284(sp)
 1004310:	30c00005 	stb	r3,0(r6)
 1004314:	003daa06 	br	10039c0 <___vfprintf_internal_r+0xa78>
 1004318:	88800068 	cmpgeui	r2,r17,1
 100431c:	10002c1e 	bne	r2,zero,10043d0 <___vfprintf_internal_r+0x1488>
 1004320:	8800021e 	bne	r17,zero,100432c <___vfprintf_internal_r+0x13e4>
 1004324:	00800244 	movi	r2,9
 1004328:	14002936 	bltu	r2,r16,10043d0 <___vfprintf_internal_r+0x1488>
 100432c:	d90018c4 	addi	r4,sp,99
 1004330:	dd000f04 	addi	r20,sp,60
 1004334:	d9014115 	stw	r4,1284(sp)
 1004338:	d9014117 	ldw	r4,1284(sp)
 100433c:	80800c04 	addi	r2,r16,48
 1004340:	20800005 	stb	r2,0(r4)
 1004344:	003d9e06 	br	10039c0 <___vfprintf_internal_r+0xa78>
 1004348:	dc400d17 	ldw	r17,52(sp)
 100434c:	070040b4 	movhi	fp,258
 1004350:	e7280384 	addi	fp,fp,-24562
 1004354:	9425883a 	add	r18,r18,r16
 1004358:	8c400044 	addi	r17,r17,1
 100435c:	008001c4 	movi	r2,7
 1004360:	1f000015 	stw	fp,0(r3)
 1004364:	1c000115 	stw	r16,4(r3)
 1004368:	dc800e15 	stw	r18,56(sp)
 100436c:	dc400d15 	stw	r17,52(sp)
 1004370:	147ddc16 	blt	r2,r17,1003ae4 <___vfprintf_internal_r+0xb9c>
 1004374:	18c00204 	addi	r3,r3,8
 1004378:	003c7406 	br	100354c <___vfprintf_internal_r+0x604>
 100437c:	01000084 	movi	r4,2
 1004380:	d8000405 	stb	zero,16(sp)
 1004384:	003d8106 	br	100398c <___vfprintf_internal_r+0xa44>
 1004388:	d9814c17 	ldw	r6,1328(sp)
 100438c:	30c4703a 	and	r2,r6,r3
 1004390:	1005003a 	cmpeq	r2,r2,zero
 1004394:	103cb326 	beq	r2,zero,1003664 <___vfprintf_internal_r+0x71c>
 1004398:	d9014117 	ldw	r4,1284(sp)
 100439c:	94800044 	addi	r18,r18,1
 10043a0:	8c400044 	addi	r17,r17,1
 10043a4:	008001c4 	movi	r2,7
 10043a8:	a9000015 	stw	r4,0(r21)
 10043ac:	a8c00115 	stw	r3,4(r21)
 10043b0:	dc800e15 	stw	r18,56(sp)
 10043b4:	dc400d15 	stw	r17,52(sp)
 10043b8:	147e6016 	blt	r2,r17,1003d3c <___vfprintf_internal_r+0xdf4>
 10043bc:	acc00204 	addi	r19,r21,8
 10043c0:	003cd106 	br	1003708 <___vfprintf_internal_r+0x7c0>
 10043c4:	070040b4 	movhi	fp,258
 10043c8:	e7280384 	addi	fp,fp,-24562
 10043cc:	003c4906 	br	10034f4 <___vfprintf_internal_r+0x5ac>
 10043d0:	dd000f04 	addi	r20,sp,60
 10043d4:	dc801904 	addi	r18,sp,100
 10043d8:	8009883a 	mov	r4,r16
 10043dc:	880b883a 	mov	r5,r17
 10043e0:	01800284 	movi	r6,10
 10043e4:	000f883a 	mov	r7,zero
 10043e8:	100aee40 	call	100aee4 <__umoddi3>
 10043ec:	12000c04 	addi	r8,r2,48
 10043f0:	94bfffc4 	addi	r18,r18,-1
 10043f4:	8009883a 	mov	r4,r16
 10043f8:	880b883a 	mov	r5,r17
 10043fc:	01800284 	movi	r6,10
 1004400:	000f883a 	mov	r7,zero
 1004404:	92000005 	stb	r8,0(r18)
 1004408:	100a86c0 	call	100a86c <__udivdi3>
 100440c:	1009883a 	mov	r4,r2
 1004410:	1021883a 	mov	r16,r2
 1004414:	18800068 	cmpgeui	r2,r3,1
 1004418:	1823883a 	mov	r17,r3
 100441c:	103fee1e 	bne	r2,zero,10043d8 <___vfprintf_internal_r+0x1490>
 1004420:	1800021e 	bne	r3,zero,100442c <___vfprintf_internal_r+0x14e4>
 1004424:	00800244 	movi	r2,9
 1004428:	113feb36 	bltu	r2,r4,10043d8 <___vfprintf_internal_r+0x1490>
 100442c:	94bfffc4 	addi	r18,r18,-1
 1004430:	dc814115 	stw	r18,1284(sp)
 1004434:	003fc006 	br	1004338 <___vfprintf_internal_r+0x13f0>
 1004438:	d9014c17 	ldw	r4,1328(sp)
 100443c:	2080004c 	andi	r2,r4,1
 1004440:	10009a1e 	bne	r2,zero,10046ac <___vfprintf_internal_r+0x1764>
 1004444:	d9401904 	addi	r5,sp,100
 1004448:	dd000f04 	addi	r20,sp,60
 100444c:	d9414115 	stw	r5,1284(sp)
 1004450:	003d5b06 	br	10039c0 <___vfprintf_internal_r+0xa78>
 1004454:	d9014f17 	ldw	r4,1340(sp)
 1004458:	b00b883a 	mov	r5,r22
 100445c:	d9800c04 	addi	r6,sp,48
 1004460:	1002ee40 	call	1002ee4 <__sprint_r>
 1004464:	103c731e 	bne	r2,zero,1003634 <___vfprintf_internal_r+0x6ec>
 1004468:	dc800e17 	ldw	r18,56(sp)
 100446c:	d8c01904 	addi	r3,sp,100
 1004470:	003cf906 	br	1003858 <___vfprintf_internal_r+0x910>
 1004474:	d8c14c17 	ldw	r3,1328(sp)
 1004478:	1880040c 	andi	r2,r3,16
 100447c:	1000711e 	bne	r2,zero,1004644 <___vfprintf_internal_r+0x16fc>
 1004480:	d9014c17 	ldw	r4,1328(sp)
 1004484:	2080100c 	andi	r2,r4,64
 1004488:	10006e26 	beq	r2,zero,1004644 <___vfprintf_internal_r+0x16fc>
 100448c:	3c00000b 	ldhu	r16,0(r7)
 1004490:	0023883a 	mov	r17,zero
 1004494:	39c00104 	addi	r7,r7,4
 1004498:	d9c14015 	stw	r7,1280(sp)
 100449c:	003efa06 	br	1004088 <___vfprintf_internal_r+0x1140>
 10044a0:	dc400d17 	ldw	r17,52(sp)
 10044a4:	070040b4 	movhi	fp,258
 10044a8:	e7280384 	addi	fp,fp,-24562
 10044ac:	9425883a 	add	r18,r18,r16
 10044b0:	8c400044 	addi	r17,r17,1
 10044b4:	008001c4 	movi	r2,7
 10044b8:	1f000015 	stw	fp,0(r3)
 10044bc:	1c000115 	stw	r16,4(r3)
 10044c0:	dc800e15 	stw	r18,56(sp)
 10044c4:	dc400d15 	stw	r17,52(sp)
 10044c8:	147d7016 	blt	r2,r17,1003a8c <___vfprintf_internal_r+0xb44>
 10044cc:	18c00204 	addi	r3,r3,8
 10044d0:	003d7506 	br	1003aa8 <___vfprintf_internal_r+0xb60>
 10044d4:	dc800e17 	ldw	r18,56(sp)
 10044d8:	dc400d17 	ldw	r17,52(sp)
 10044dc:	070040b4 	movhi	fp,258
 10044e0:	e7280784 	addi	fp,fp,-24546
 10044e4:	003bba06 	br	10033d0 <___vfprintf_internal_r+0x488>
 10044e8:	d9014f17 	ldw	r4,1340(sp)
 10044ec:	b00b883a 	mov	r5,r22
 10044f0:	d9800c04 	addi	r6,sp,48
 10044f4:	1002ee40 	call	1002ee4 <__sprint_r>
 10044f8:	103c4e1e 	bne	r2,zero,1003634 <___vfprintf_internal_r+0x6ec>
 10044fc:	dc800e17 	ldw	r18,56(sp)
 1004500:	d8c01904 	addi	r3,sp,100
 1004504:	003ce306 	br	1003894 <___vfprintf_internal_r+0x94c>
 1004508:	3c000017 	ldw	r16,0(r7)
 100450c:	0009883a 	mov	r4,zero
 1004510:	39c00104 	addi	r7,r7,4
 1004514:	0023883a 	mov	r17,zero
 1004518:	d9c14015 	stw	r7,1280(sp)
 100451c:	d8000405 	stb	zero,16(sp)
 1004520:	003d1a06 	br	100398c <___vfprintf_internal_r+0xa44>
 1004524:	38800017 	ldw	r2,0(r7)
 1004528:	39c00104 	addi	r7,r7,4
 100452c:	d9c14015 	stw	r7,1280(sp)
 1004530:	1023d7fa 	srai	r17,r2,31
 1004534:	1021883a 	mov	r16,r2
 1004538:	003d1206 	br	1003984 <___vfprintf_internal_r+0xa3c>
 100453c:	3c000017 	ldw	r16,0(r7)
 1004540:	01000044 	movi	r4,1
 1004544:	39c00104 	addi	r7,r7,4
 1004548:	0023883a 	mov	r17,zero
 100454c:	d9c14015 	stw	r7,1280(sp)
 1004550:	d8000405 	stb	zero,16(sp)
 1004554:	003d0d06 	br	100398c <___vfprintf_internal_r+0xa44>
 1004558:	008040b4 	movhi	r2,258
 100455c:	10a80304 	addi	r2,r2,-24564
 1004560:	94800044 	addi	r18,r18,1
 1004564:	8c400044 	addi	r17,r17,1
 1004568:	a8800015 	stw	r2,0(r21)
 100456c:	00c00044 	movi	r3,1
 1004570:	008001c4 	movi	r2,7
 1004574:	a8c00115 	stw	r3,4(r21)
 1004578:	dc800e15 	stw	r18,56(sp)
 100457c:	dc400d15 	stw	r17,52(sp)
 1004580:	1440ca16 	blt	r2,r17,10048ac <___vfprintf_internal_r+0x1964>
 1004584:	a8c00204 	addi	r3,r21,8
 1004588:	2000061e 	bne	r4,zero,10045a4 <___vfprintf_internal_r+0x165c>
 100458c:	d9414717 	ldw	r5,1308(sp)
 1004590:	2800041e 	bne	r5,zero,10045a4 <___vfprintf_internal_r+0x165c>
 1004594:	d9814c17 	ldw	r6,1328(sp)
 1004598:	3080004c 	andi	r2,r6,1
 100459c:	1005003a 	cmpeq	r2,r2,zero
 10045a0:	103bea1e 	bne	r2,zero,100354c <___vfprintf_internal_r+0x604>
 10045a4:	00800044 	movi	r2,1
 10045a8:	dc400d17 	ldw	r17,52(sp)
 10045ac:	18800115 	stw	r2,4(r3)
 10045b0:	d8814917 	ldw	r2,1316(sp)
 10045b4:	94800044 	addi	r18,r18,1
 10045b8:	8c400044 	addi	r17,r17,1
 10045bc:	18800015 	stw	r2,0(r3)
 10045c0:	008001c4 	movi	r2,7
 10045c4:	dc800e15 	stw	r18,56(sp)
 10045c8:	dc400d15 	stw	r17,52(sp)
 10045cc:	1440ca16 	blt	r2,r17,10048f8 <___vfprintf_internal_r+0x19b0>
 10045d0:	18c00204 	addi	r3,r3,8
 10045d4:	0121c83a 	sub	r16,zero,r4
 10045d8:	0400500e 	bge	zero,r16,100471c <___vfprintf_internal_r+0x17d4>
 10045dc:	00800404 	movi	r2,16
 10045e0:	1400800e 	bge	r2,r16,10047e4 <___vfprintf_internal_r+0x189c>
 10045e4:	1027883a 	mov	r19,r2
 10045e8:	070040b4 	movhi	fp,258
 10045ec:	e7280384 	addi	fp,fp,-24562
 10045f0:	050001c4 	movi	r20,7
 10045f4:	00000306 	br	1004604 <___vfprintf_internal_r+0x16bc>
 10045f8:	18c00204 	addi	r3,r3,8
 10045fc:	843ffc04 	addi	r16,r16,-16
 1004600:	9c007a0e 	bge	r19,r16,10047ec <___vfprintf_internal_r+0x18a4>
 1004604:	94800404 	addi	r18,r18,16
 1004608:	8c400044 	addi	r17,r17,1
 100460c:	1f000015 	stw	fp,0(r3)
 1004610:	1cc00115 	stw	r19,4(r3)
 1004614:	dc800e15 	stw	r18,56(sp)
 1004618:	dc400d15 	stw	r17,52(sp)
 100461c:	a47ff60e 	bge	r20,r17,10045f8 <___vfprintf_internal_r+0x16b0>
 1004620:	d9014f17 	ldw	r4,1340(sp)
 1004624:	b00b883a 	mov	r5,r22
 1004628:	d9800c04 	addi	r6,sp,48
 100462c:	1002ee40 	call	1002ee4 <__sprint_r>
 1004630:	103c001e 	bne	r2,zero,1003634 <___vfprintf_internal_r+0x6ec>
 1004634:	dc800e17 	ldw	r18,56(sp)
 1004638:	dc400d17 	ldw	r17,52(sp)
 100463c:	d8c01904 	addi	r3,sp,100
 1004640:	003fee06 	br	10045fc <___vfprintf_internal_r+0x16b4>
 1004644:	3c000017 	ldw	r16,0(r7)
 1004648:	0023883a 	mov	r17,zero
 100464c:	39c00104 	addi	r7,r7,4
 1004650:	d9c14015 	stw	r7,1280(sp)
 1004654:	003e8c06 	br	1004088 <___vfprintf_internal_r+0x1140>
 1004658:	d9401904 	addi	r5,sp,100
 100465c:	dd000f04 	addi	r20,sp,60
 1004660:	d9414115 	stw	r5,1284(sp)
 1004664:	d9814417 	ldw	r6,1296(sp)
 1004668:	880a973a 	slli	r5,r17,28
 100466c:	8004d13a 	srli	r2,r16,4
 1004670:	810003cc 	andi	r4,r16,15
 1004674:	3109883a 	add	r4,r6,r4
 1004678:	2884b03a 	or	r2,r5,r2
 100467c:	21400003 	ldbu	r5,0(r4)
 1004680:	d9014117 	ldw	r4,1284(sp)
 1004684:	8806d13a 	srli	r3,r17,4
 1004688:	1021883a 	mov	r16,r2
 100468c:	213fffc4 	addi	r4,r4,-1
 1004690:	d9014115 	stw	r4,1284(sp)
 1004694:	d9814117 	ldw	r6,1284(sp)
 1004698:	10c8b03a 	or	r4,r2,r3
 100469c:	1823883a 	mov	r17,r3
 10046a0:	31400005 	stb	r5,0(r6)
 10046a4:	203fef1e 	bne	r4,zero,1004664 <___vfprintf_internal_r+0x171c>
 10046a8:	003cc506 	br	10039c0 <___vfprintf_internal_r+0xa78>
 10046ac:	00800c04 	movi	r2,48
 10046b0:	d98018c4 	addi	r6,sp,99
 10046b4:	dd000f04 	addi	r20,sp,60
 10046b8:	d88018c5 	stb	r2,99(sp)
 10046bc:	d9814115 	stw	r6,1284(sp)
 10046c0:	003cbf06 	br	10039c0 <___vfprintf_internal_r+0xa78>
 10046c4:	dc400d17 	ldw	r17,52(sp)
 10046c8:	070040b4 	movhi	fp,258
 10046cc:	e7280784 	addi	fp,fp,-24546
 10046d0:	003bc106 	br	10035d8 <___vfprintf_internal_r+0x690>
 10046d4:	d9414c17 	ldw	r5,1328(sp)
 10046d8:	2880040c 	andi	r2,r5,16
 10046dc:	10007c26 	beq	r2,zero,10048d0 <___vfprintf_internal_r+0x1988>
 10046e0:	38800017 	ldw	r2,0(r7)
 10046e4:	39c00104 	addi	r7,r7,4
 10046e8:	d9c14015 	stw	r7,1280(sp)
 10046ec:	d9814b17 	ldw	r6,1324(sp)
 10046f0:	d9c14017 	ldw	r7,1280(sp)
 10046f4:	11800015 	stw	r6,0(r2)
 10046f8:	003a7206 	br	10030c4 <___vfprintf_internal_r+0x17c>
 10046fc:	d9014f17 	ldw	r4,1340(sp)
 1004700:	b00b883a 	mov	r5,r22
 1004704:	d9800c04 	addi	r6,sp,48
 1004708:	1002ee40 	call	1002ee4 <__sprint_r>
 100470c:	103bc91e 	bne	r2,zero,1003634 <___vfprintf_internal_r+0x6ec>
 1004710:	dc800e17 	ldw	r18,56(sp)
 1004714:	dc400d17 	ldw	r17,52(sp)
 1004718:	d8c01904 	addi	r3,sp,100
 100471c:	d9014717 	ldw	r4,1308(sp)
 1004720:	d9414117 	ldw	r5,1284(sp)
 1004724:	8c400044 	addi	r17,r17,1
 1004728:	9125883a 	add	r18,r18,r4
 100472c:	008001c4 	movi	r2,7
 1004730:	19400015 	stw	r5,0(r3)
 1004734:	19000115 	stw	r4,4(r3)
 1004738:	dc800e15 	stw	r18,56(sp)
 100473c:	dc400d15 	stw	r17,52(sp)
 1004740:	147ce816 	blt	r2,r17,1003ae4 <___vfprintf_internal_r+0xb9c>
 1004744:	18c00204 	addi	r3,r3,8
 1004748:	003b8006 	br	100354c <___vfprintf_internal_r+0x604>
 100474c:	38c00017 	ldw	r3,0(r7)
 1004750:	39000204 	addi	r4,r7,8
 1004754:	d9014015 	stw	r4,1280(sp)
 1004758:	d8c14215 	stw	r3,1288(sp)
 100475c:	39c00117 	ldw	r7,4(r7)
 1004760:	d9c14315 	stw	r7,1292(sp)
 1004764:	003e1a06 	br	1003fd0 <___vfprintf_internal_r+0x1088>
 1004768:	0005883a 	mov	r2,zero
 100476c:	1409c83a 	sub	r4,r2,r16
 1004770:	1105803a 	cmpltu	r2,r2,r4
 1004774:	044bc83a 	sub	r5,zero,r17
 1004778:	2885c83a 	sub	r2,r5,r2
 100477c:	2021883a 	mov	r16,r4
 1004780:	1023883a 	mov	r17,r2
 1004784:	01000044 	movi	r4,1
 1004788:	00800b44 	movi	r2,45
 100478c:	d8800405 	stb	r2,16(sp)
 1004790:	003c7e06 	br	100398c <___vfprintf_internal_r+0xa44>
 1004794:	d9014f17 	ldw	r4,1340(sp)
 1004798:	b00b883a 	mov	r5,r22
 100479c:	d9800c04 	addi	r6,sp,48
 10047a0:	1002ee40 	call	1002ee4 <__sprint_r>
 10047a4:	103ba31e 	bne	r2,zero,1003634 <___vfprintf_internal_r+0x6ec>
 10047a8:	dc800e17 	ldw	r18,56(sp)
 10047ac:	dc400d17 	ldw	r17,52(sp)
 10047b0:	d9000517 	ldw	r4,20(sp)
 10047b4:	d9401904 	addi	r5,sp,100
 10047b8:	003da106 	br	1003e40 <___vfprintf_internal_r+0xef8>
 10047bc:	d9014f17 	ldw	r4,1340(sp)
 10047c0:	b00b883a 	mov	r5,r22
 10047c4:	d9800c04 	addi	r6,sp,48
 10047c8:	1002ee40 	call	1002ee4 <__sprint_r>
 10047cc:	103b991e 	bne	r2,zero,1003634 <___vfprintf_internal_r+0x6ec>
 10047d0:	dc800e17 	ldw	r18,56(sp)
 10047d4:	dc400d17 	ldw	r17,52(sp)
 10047d8:	d9000517 	ldw	r4,20(sp)
 10047dc:	d8c01904 	addi	r3,sp,100
 10047e0:	003d8b06 	br	1003e10 <___vfprintf_internal_r+0xec8>
 10047e4:	070040b4 	movhi	fp,258
 10047e8:	e7280384 	addi	fp,fp,-24562
 10047ec:	9425883a 	add	r18,r18,r16
 10047f0:	8c400044 	addi	r17,r17,1
 10047f4:	008001c4 	movi	r2,7
 10047f8:	1f000015 	stw	fp,0(r3)
 10047fc:	1c000115 	stw	r16,4(r3)
 1004800:	dc800e15 	stw	r18,56(sp)
 1004804:	dc400d15 	stw	r17,52(sp)
 1004808:	147fbc16 	blt	r2,r17,10046fc <___vfprintf_internal_r+0x17b4>
 100480c:	18c00204 	addi	r3,r3,8
 1004810:	003fc206 	br	100471c <___vfprintf_internal_r+0x17d4>
 1004814:	d9014f17 	ldw	r4,1340(sp)
 1004818:	b00b883a 	mov	r5,r22
 100481c:	d9800c04 	addi	r6,sp,48
 1004820:	1002ee40 	call	1002ee4 <__sprint_r>
 1004824:	103b831e 	bne	r2,zero,1003634 <___vfprintf_internal_r+0x6ec>
 1004828:	dc800e17 	ldw	r18,56(sp)
 100482c:	d9000517 	ldw	r4,20(sp)
 1004830:	d8c01904 	addi	r3,sp,100
 1004834:	003cfc06 	br	1003c28 <___vfprintf_internal_r+0xce0>
 1004838:	070040b4 	movhi	fp,258
 100483c:	e7280384 	addi	fp,fp,-24562
 1004840:	003bde06 	br	10037bc <___vfprintf_internal_r+0x874>
 1004844:	008040b4 	movhi	r2,258
 1004848:	10a7f204 	addi	r2,r2,-24632
 100484c:	d8814115 	stw	r2,1284(sp)
 1004850:	003def06 	br	1004010 <___vfprintf_internal_r+0x10c8>
 1004854:	d9014217 	ldw	r4,1288(sp)
 1004858:	d9414317 	ldw	r5,1292(sp)
 100485c:	1009ef80 	call	1009ef8 <__isnand>
 1004860:	10003926 	beq	r2,zero,1004948 <___vfprintf_internal_r+0x1a00>
 1004864:	d9414d17 	ldw	r5,1332(sp)
 1004868:	008011c4 	movi	r2,71
 100486c:	1140ce16 	blt	r2,r5,1004ba8 <___vfprintf_internal_r+0x1c60>
 1004870:	018040b4 	movhi	r6,258
 1004874:	31a7f304 	addi	r6,r6,-24628
 1004878:	d9814115 	stw	r6,1284(sp)
 100487c:	003de406 	br	1004010 <___vfprintf_internal_r+0x10c8>
 1004880:	d9014c17 	ldw	r4,1328(sp)
 1004884:	bdc00044 	addi	r23,r23,1
 1004888:	b8c00007 	ldb	r3,0(r23)
 100488c:	21000814 	ori	r4,r4,32
 1004890:	d9014c15 	stw	r4,1328(sp)
 1004894:	003a2e06 	br	1003150 <___vfprintf_internal_r+0x208>
 1004898:	dcc14515 	stw	r19,1300(sp)
 100489c:	98011016 	blt	r19,zero,1004ce0 <___vfprintf_internal_r+0x1d98>
 10048a0:	980f883a 	mov	r7,r19
 10048a4:	d8014615 	stw	zero,1304(sp)
 10048a8:	003c4c06 	br	10039dc <___vfprintf_internal_r+0xa94>
 10048ac:	d9014f17 	ldw	r4,1340(sp)
 10048b0:	b00b883a 	mov	r5,r22
 10048b4:	d9800c04 	addi	r6,sp,48
 10048b8:	1002ee40 	call	1002ee4 <__sprint_r>
 10048bc:	103b5d1e 	bne	r2,zero,1003634 <___vfprintf_internal_r+0x6ec>
 10048c0:	dc800e17 	ldw	r18,56(sp)
 10048c4:	d9000517 	ldw	r4,20(sp)
 10048c8:	d8c01904 	addi	r3,sp,100
 10048cc:	003f2e06 	br	1004588 <___vfprintf_internal_r+0x1640>
 10048d0:	d8c14c17 	ldw	r3,1328(sp)
 10048d4:	1880100c 	andi	r2,r3,64
 10048d8:	1000a026 	beq	r2,zero,1004b5c <___vfprintf_internal_r+0x1c14>
 10048dc:	38800017 	ldw	r2,0(r7)
 10048e0:	39c00104 	addi	r7,r7,4
 10048e4:	d9c14015 	stw	r7,1280(sp)
 10048e8:	d9014b17 	ldw	r4,1324(sp)
 10048ec:	d9c14017 	ldw	r7,1280(sp)
 10048f0:	1100000d 	sth	r4,0(r2)
 10048f4:	0039f306 	br	10030c4 <___vfprintf_internal_r+0x17c>
 10048f8:	d9014f17 	ldw	r4,1340(sp)
 10048fc:	b00b883a 	mov	r5,r22
 1004900:	d9800c04 	addi	r6,sp,48
 1004904:	1002ee40 	call	1002ee4 <__sprint_r>
 1004908:	103b4a1e 	bne	r2,zero,1003634 <___vfprintf_internal_r+0x6ec>
 100490c:	dc800e17 	ldw	r18,56(sp)
 1004910:	dc400d17 	ldw	r17,52(sp)
 1004914:	d9000517 	ldw	r4,20(sp)
 1004918:	d8c01904 	addi	r3,sp,100
 100491c:	003f2d06 	br	10045d4 <___vfprintf_internal_r+0x168c>
 1004920:	00800184 	movi	r2,6
 1004924:	14c09a36 	bltu	r2,r19,1004b90 <___vfprintf_internal_r+0x1c48>
 1004928:	dcc14515 	stw	r19,1300(sp)
 100492c:	9800010e 	bge	r19,zero,1004934 <___vfprintf_internal_r+0x19ec>
 1004930:	d8014515 	stw	zero,1300(sp)
 1004934:	008040b4 	movhi	r2,258
 1004938:	10a7f504 	addi	r2,r2,-24620
 100493c:	980f883a 	mov	r7,r19
 1004940:	d8814115 	stw	r2,1284(sp)
 1004944:	003a7206 	br	1003310 <___vfprintf_internal_r+0x3c8>
 1004948:	00bfffc4 	movi	r2,-1
 100494c:	9880e226 	beq	r19,r2,1004cd8 <___vfprintf_internal_r+0x1d90>
 1004950:	d9414d17 	ldw	r5,1332(sp)
 1004954:	008019c4 	movi	r2,103
 1004958:	2880dc26 	beq	r5,r2,1004ccc <___vfprintf_internal_r+0x1d84>
 100495c:	008011c4 	movi	r2,71
 1004960:	2880da26 	beq	r5,r2,1004ccc <___vfprintf_internal_r+0x1d84>
 1004964:	d9414c17 	ldw	r5,1328(sp)
 1004968:	d9014317 	ldw	r4,1292(sp)
 100496c:	d9814217 	ldw	r6,1288(sp)
 1004970:	29404014 	ori	r5,r5,256
 1004974:	d9414c15 	stw	r5,1328(sp)
 1004978:	2000cc16 	blt	r4,zero,1004cac <___vfprintf_internal_r+0x1d64>
 100497c:	3021883a 	mov	r16,r6
 1004980:	2023883a 	mov	r17,r4
 1004984:	0039883a 	mov	fp,zero
 1004988:	d9414d17 	ldw	r5,1332(sp)
 100498c:	00801984 	movi	r2,102
 1004990:	2880b726 	beq	r5,r2,1004c70 <___vfprintf_internal_r+0x1d28>
 1004994:	00801184 	movi	r2,70
 1004998:	2880b526 	beq	r5,r2,1004c70 <___vfprintf_internal_r+0x1d28>
 100499c:	00801944 	movi	r2,101
 10049a0:	2880c826 	beq	r5,r2,1004cc4 <___vfprintf_internal_r+0x1d7c>
 10049a4:	00801144 	movi	r2,69
 10049a8:	2880c626 	beq	r5,r2,1004cc4 <___vfprintf_internal_r+0x1d7c>
 10049ac:	9829883a 	mov	r20,r19
 10049b0:	d9014f17 	ldw	r4,1340(sp)
 10049b4:	d8800504 	addi	r2,sp,20
 10049b8:	880d883a 	mov	r6,r17
 10049bc:	d8800115 	stw	r2,4(sp)
 10049c0:	d8c00604 	addi	r3,sp,24
 10049c4:	d8800704 	addi	r2,sp,28
 10049c8:	800b883a 	mov	r5,r16
 10049cc:	01c00084 	movi	r7,2
 10049d0:	d8c00215 	stw	r3,8(sp)
 10049d4:	d8800315 	stw	r2,12(sp)
 10049d8:	dd000015 	stw	r20,0(sp)
 10049dc:	10051e00 	call	10051e0 <_dtoa_r>
 10049e0:	d9814d17 	ldw	r6,1332(sp)
 10049e4:	d8814115 	stw	r2,1284(sp)
 10049e8:	008019c4 	movi	r2,103
 10049ec:	30809526 	beq	r6,r2,1004c44 <___vfprintf_internal_r+0x1cfc>
 10049f0:	d8c14d17 	ldw	r3,1332(sp)
 10049f4:	008011c4 	movi	r2,71
 10049f8:	18809226 	beq	r3,r2,1004c44 <___vfprintf_internal_r+0x1cfc>
 10049fc:	d9414117 	ldw	r5,1284(sp)
 1004a00:	d9814d17 	ldw	r6,1332(sp)
 1004a04:	00801984 	movi	r2,102
 1004a08:	2d25883a 	add	r18,r5,r20
 1004a0c:	30808626 	beq	r6,r2,1004c28 <___vfprintf_internal_r+0x1ce0>
 1004a10:	00801184 	movi	r2,70
 1004a14:	30808426 	beq	r6,r2,1004c28 <___vfprintf_internal_r+0x1ce0>
 1004a18:	000d883a 	mov	r6,zero
 1004a1c:	000f883a 	mov	r7,zero
 1004a20:	880b883a 	mov	r5,r17
 1004a24:	8009883a 	mov	r4,r16
 1004a28:	100b5500 	call	100b550 <__eqdf2>
 1004a2c:	1000751e 	bne	r2,zero,1004c04 <___vfprintf_internal_r+0x1cbc>
 1004a30:	9005883a 	mov	r2,r18
 1004a34:	dc800715 	stw	r18,28(sp)
 1004a38:	d9014117 	ldw	r4,1284(sp)
 1004a3c:	d9414d17 	ldw	r5,1332(sp)
 1004a40:	00c019c4 	movi	r3,103
 1004a44:	1125c83a 	sub	r18,r2,r4
 1004a48:	28c06826 	beq	r5,r3,1004bec <___vfprintf_internal_r+0x1ca4>
 1004a4c:	008011c4 	movi	r2,71
 1004a50:	28806626 	beq	r5,r2,1004bec <___vfprintf_internal_r+0x1ca4>
 1004a54:	d9000517 	ldw	r4,20(sp)
 1004a58:	d8c14d17 	ldw	r3,1332(sp)
 1004a5c:	00801944 	movi	r2,101
 1004a60:	10c05516 	blt	r2,r3,1004bb8 <___vfprintf_internal_r+0x1c70>
 1004a64:	213fffc4 	addi	r4,r4,-1
 1004a68:	d9000515 	stw	r4,20(sp)
 1004a6c:	d8c00805 	stb	r3,32(sp)
 1004a70:	2021883a 	mov	r16,r4
 1004a74:	2000c116 	blt	r4,zero,1004d7c <___vfprintf_internal_r+0x1e34>
 1004a78:	00800ac4 	movi	r2,43
 1004a7c:	d8800845 	stb	r2,33(sp)
 1004a80:	00800244 	movi	r2,9
 1004a84:	1400af0e 	bge	r2,r16,1004d44 <___vfprintf_internal_r+0x1dfc>
 1004a88:	1027883a 	mov	r19,r2
 1004a8c:	dc400b84 	addi	r17,sp,46
 1004a90:	8009883a 	mov	r4,r16
 1004a94:	01400284 	movi	r5,10
 1004a98:	10025d40 	call	10025d4 <__modsi3>
 1004a9c:	10800c04 	addi	r2,r2,48
 1004aa0:	8c7fffc4 	addi	r17,r17,-1
 1004aa4:	8009883a 	mov	r4,r16
 1004aa8:	01400284 	movi	r5,10
 1004aac:	88800005 	stb	r2,0(r17)
 1004ab0:	10025680 	call	1002568 <__divsi3>
 1004ab4:	1021883a 	mov	r16,r2
 1004ab8:	98bff516 	blt	r19,r2,1004a90 <___vfprintf_internal_r+0x1b48>
 1004abc:	10c00c04 	addi	r3,r2,48
 1004ac0:	d88009c4 	addi	r2,sp,39
 1004ac4:	108001c4 	addi	r2,r2,7
 1004ac8:	897fffc4 	addi	r5,r17,-1
 1004acc:	88ffffc5 	stb	r3,-1(r17)
 1004ad0:	2880a72e 	bgeu	r5,r2,1004d70 <___vfprintf_internal_r+0x1e28>
 1004ad4:	1009883a 	mov	r4,r2
 1004ad8:	d9800804 	addi	r6,sp,32
 1004adc:	d8c00884 	addi	r3,sp,34
 1004ae0:	28800003 	ldbu	r2,0(r5)
 1004ae4:	29400044 	addi	r5,r5,1
 1004ae8:	18800005 	stb	r2,0(r3)
 1004aec:	18c00044 	addi	r3,r3,1
 1004af0:	293ffb36 	bltu	r5,r4,1004ae0 <___vfprintf_internal_r+0x1b98>
 1004af4:	1987c83a 	sub	r3,r3,r6
 1004af8:	00800044 	movi	r2,1
 1004afc:	d8c14815 	stw	r3,1312(sp)
 1004b00:	90cf883a 	add	r7,r18,r3
 1004b04:	1480960e 	bge	r2,r18,1004d60 <___vfprintf_internal_r+0x1e18>
 1004b08:	39c00044 	addi	r7,r7,1
 1004b0c:	d9c14515 	stw	r7,1300(sp)
 1004b10:	38003416 	blt	r7,zero,1004be4 <___vfprintf_internal_r+0x1c9c>
 1004b14:	e0803fcc 	andi	r2,fp,255
 1004b18:	1080201c 	xori	r2,r2,128
 1004b1c:	10bfe004 	addi	r2,r2,-128
 1004b20:	10004e26 	beq	r2,zero,1004c5c <___vfprintf_internal_r+0x1d14>
 1004b24:	00800b44 	movi	r2,45
 1004b28:	dc814715 	stw	r18,1308(sp)
 1004b2c:	d8014615 	stw	zero,1304(sp)
 1004b30:	d8800405 	stb	r2,16(sp)
 1004b34:	003bab06 	br	10039e4 <___vfprintf_internal_r+0xa9c>
 1004b38:	00800b44 	movi	r2,45
 1004b3c:	d8800405 	stb	r2,16(sp)
 1004b40:	003d2d06 	br	1003ff8 <___vfprintf_internal_r+0x10b0>
 1004b44:	d9014f17 	ldw	r4,1340(sp)
 1004b48:	b00b883a 	mov	r5,r22
 1004b4c:	d9800c04 	addi	r6,sp,48
 1004b50:	1002ee40 	call	1002ee4 <__sprint_r>
 1004b54:	103ab71e 	bne	r2,zero,1003634 <___vfprintf_internal_r+0x6ec>
 1004b58:	003ab506 	br	1003630 <___vfprintf_internal_r+0x6e8>
 1004b5c:	38800017 	ldw	r2,0(r7)
 1004b60:	39c00104 	addi	r7,r7,4
 1004b64:	d9c14015 	stw	r7,1280(sp)
 1004b68:	d9414b17 	ldw	r5,1324(sp)
 1004b6c:	d9c14017 	ldw	r7,1280(sp)
 1004b70:	11400015 	stw	r5,0(r2)
 1004b74:	00395306 	br	10030c4 <___vfprintf_internal_r+0x17c>
 1004b78:	980f883a 	mov	r7,r19
 1004b7c:	dcc14515 	stw	r19,1300(sp)
 1004b80:	d8014615 	stw	zero,1304(sp)
 1004b84:	003b9506 	br	10039dc <___vfprintf_internal_r+0xa94>
 1004b88:	0027883a 	mov	r19,zero
 1004b8c:	00397206 	br	1003158 <___vfprintf_internal_r+0x210>
 1004b90:	00c040b4 	movhi	r3,258
 1004b94:	18e7f504 	addi	r3,r3,-24620
 1004b98:	100f883a 	mov	r7,r2
 1004b9c:	d8814515 	stw	r2,1300(sp)
 1004ba0:	d8c14115 	stw	r3,1284(sp)
 1004ba4:	0039da06 	br	1003310 <___vfprintf_internal_r+0x3c8>
 1004ba8:	008040b4 	movhi	r2,258
 1004bac:	10a7f404 	addi	r2,r2,-24624
 1004bb0:	d8814115 	stw	r2,1284(sp)
 1004bb4:	003d1606 	br	1004010 <___vfprintf_internal_r+0x10c8>
 1004bb8:	d9414d17 	ldw	r5,1332(sp)
 1004bbc:	00801984 	movi	r2,102
 1004bc0:	28804926 	beq	r5,r2,1004ce8 <___vfprintf_internal_r+0x1da0>
 1004bc4:	200f883a 	mov	r7,r4
 1004bc8:	24805716 	blt	r4,r18,1004d28 <___vfprintf_internal_r+0x1de0>
 1004bcc:	d9414c17 	ldw	r5,1328(sp)
 1004bd0:	2880004c 	andi	r2,r5,1
 1004bd4:	10000126 	beq	r2,zero,1004bdc <___vfprintf_internal_r+0x1c94>
 1004bd8:	21c00044 	addi	r7,r4,1
 1004bdc:	d9c14515 	stw	r7,1300(sp)
 1004be0:	383fcc0e 	bge	r7,zero,1004b14 <___vfprintf_internal_r+0x1bcc>
 1004be4:	d8014515 	stw	zero,1300(sp)
 1004be8:	003fca06 	br	1004b14 <___vfprintf_internal_r+0x1bcc>
 1004bec:	d9000517 	ldw	r4,20(sp)
 1004bf0:	00bfff04 	movi	r2,-4
 1004bf4:	1100480e 	bge	r2,r4,1004d18 <___vfprintf_internal_r+0x1dd0>
 1004bf8:	99004716 	blt	r19,r4,1004d18 <___vfprintf_internal_r+0x1dd0>
 1004bfc:	d8c14d15 	stw	r3,1332(sp)
 1004c00:	003ff006 	br	1004bc4 <___vfprintf_internal_r+0x1c7c>
 1004c04:	d8800717 	ldw	r2,28(sp)
 1004c08:	14bf8b2e 	bgeu	r2,r18,1004a38 <___vfprintf_internal_r+0x1af0>
 1004c0c:	9007883a 	mov	r3,r18
 1004c10:	01000c04 	movi	r4,48
 1004c14:	11000005 	stb	r4,0(r2)
 1004c18:	10800044 	addi	r2,r2,1
 1004c1c:	d8800715 	stw	r2,28(sp)
 1004c20:	18bffc1e 	bne	r3,r2,1004c14 <___vfprintf_internal_r+0x1ccc>
 1004c24:	003f8406 	br	1004a38 <___vfprintf_internal_r+0x1af0>
 1004c28:	d8814117 	ldw	r2,1284(sp)
 1004c2c:	10c00007 	ldb	r3,0(r2)
 1004c30:	00800c04 	movi	r2,48
 1004c34:	18805b26 	beq	r3,r2,1004da4 <___vfprintf_internal_r+0x1e5c>
 1004c38:	d9000517 	ldw	r4,20(sp)
 1004c3c:	9125883a 	add	r18,r18,r4
 1004c40:	003f7506 	br	1004a18 <___vfprintf_internal_r+0x1ad0>
 1004c44:	d9014c17 	ldw	r4,1328(sp)
 1004c48:	2080004c 	andi	r2,r4,1
 1004c4c:	1005003a 	cmpeq	r2,r2,zero
 1004c50:	103f6a26 	beq	r2,zero,10049fc <___vfprintf_internal_r+0x1ab4>
 1004c54:	d8800717 	ldw	r2,28(sp)
 1004c58:	003f7706 	br	1004a38 <___vfprintf_internal_r+0x1af0>
 1004c5c:	d9c14515 	stw	r7,1300(sp)
 1004c60:	38004d16 	blt	r7,zero,1004d98 <___vfprintf_internal_r+0x1e50>
 1004c64:	dc814715 	stw	r18,1308(sp)
 1004c68:	d8014615 	stw	zero,1304(sp)
 1004c6c:	003b5b06 	br	10039dc <___vfprintf_internal_r+0xa94>
 1004c70:	d9014f17 	ldw	r4,1340(sp)
 1004c74:	d8800504 	addi	r2,sp,20
 1004c78:	d8800115 	stw	r2,4(sp)
 1004c7c:	d8c00604 	addi	r3,sp,24
 1004c80:	d8800704 	addi	r2,sp,28
 1004c84:	800b883a 	mov	r5,r16
 1004c88:	880d883a 	mov	r6,r17
 1004c8c:	01c000c4 	movi	r7,3
 1004c90:	d8c00215 	stw	r3,8(sp)
 1004c94:	d8800315 	stw	r2,12(sp)
 1004c98:	dcc00015 	stw	r19,0(sp)
 1004c9c:	9829883a 	mov	r20,r19
 1004ca0:	10051e00 	call	10051e0 <_dtoa_r>
 1004ca4:	d8814115 	stw	r2,1284(sp)
 1004ca8:	003f5106 	br	10049f0 <___vfprintf_internal_r+0x1aa8>
 1004cac:	d8c14217 	ldw	r3,1288(sp)
 1004cb0:	d9014317 	ldw	r4,1292(sp)
 1004cb4:	07000b44 	movi	fp,45
 1004cb8:	1821883a 	mov	r16,r3
 1004cbc:	2460003c 	xorhi	r17,r4,32768
 1004cc0:	003f3106 	br	1004988 <___vfprintf_internal_r+0x1a40>
 1004cc4:	9d000044 	addi	r20,r19,1
 1004cc8:	003f3906 	br	10049b0 <___vfprintf_internal_r+0x1a68>
 1004ccc:	983f251e 	bne	r19,zero,1004964 <___vfprintf_internal_r+0x1a1c>
 1004cd0:	04c00044 	movi	r19,1
 1004cd4:	003f2306 	br	1004964 <___vfprintf_internal_r+0x1a1c>
 1004cd8:	04c00184 	movi	r19,6
 1004cdc:	003f2106 	br	1004964 <___vfprintf_internal_r+0x1a1c>
 1004ce0:	d8014515 	stw	zero,1300(sp)
 1004ce4:	003eee06 	br	10048a0 <___vfprintf_internal_r+0x1958>
 1004ce8:	200f883a 	mov	r7,r4
 1004cec:	0100370e 	bge	zero,r4,1004dcc <___vfprintf_internal_r+0x1e84>
 1004cf0:	9800031e 	bne	r19,zero,1004d00 <___vfprintf_internal_r+0x1db8>
 1004cf4:	d9814c17 	ldw	r6,1328(sp)
 1004cf8:	3080004c 	andi	r2,r6,1
 1004cfc:	103fb726 	beq	r2,zero,1004bdc <___vfprintf_internal_r+0x1c94>
 1004d00:	20800044 	addi	r2,r4,1
 1004d04:	98a7883a 	add	r19,r19,r2
 1004d08:	dcc14515 	stw	r19,1300(sp)
 1004d0c:	980f883a 	mov	r7,r19
 1004d10:	983f800e 	bge	r19,zero,1004b14 <___vfprintf_internal_r+0x1bcc>
 1004d14:	003fb306 	br	1004be4 <___vfprintf_internal_r+0x1c9c>
 1004d18:	d9814d17 	ldw	r6,1332(sp)
 1004d1c:	31bfff84 	addi	r6,r6,-2
 1004d20:	d9814d15 	stw	r6,1332(sp)
 1004d24:	003f4c06 	br	1004a58 <___vfprintf_internal_r+0x1b10>
 1004d28:	0100180e 	bge	zero,r4,1004d8c <___vfprintf_internal_r+0x1e44>
 1004d2c:	00800044 	movi	r2,1
 1004d30:	1485883a 	add	r2,r2,r18
 1004d34:	d8814515 	stw	r2,1300(sp)
 1004d38:	100f883a 	mov	r7,r2
 1004d3c:	103f750e 	bge	r2,zero,1004b14 <___vfprintf_internal_r+0x1bcc>
 1004d40:	003fa806 	br	1004be4 <___vfprintf_internal_r+0x1c9c>
 1004d44:	80c00c04 	addi	r3,r16,48
 1004d48:	00800c04 	movi	r2,48
 1004d4c:	d8c008c5 	stb	r3,35(sp)
 1004d50:	d9800804 	addi	r6,sp,32
 1004d54:	d8c00904 	addi	r3,sp,36
 1004d58:	d8800885 	stb	r2,34(sp)
 1004d5c:	003f6506 	br	1004af4 <___vfprintf_internal_r+0x1bac>
 1004d60:	d9014c17 	ldw	r4,1328(sp)
 1004d64:	2084703a 	and	r2,r4,r2
 1004d68:	103f9c26 	beq	r2,zero,1004bdc <___vfprintf_internal_r+0x1c94>
 1004d6c:	003f6606 	br	1004b08 <___vfprintf_internal_r+0x1bc0>
 1004d70:	d9800804 	addi	r6,sp,32
 1004d74:	d8c00884 	addi	r3,sp,34
 1004d78:	003f5e06 	br	1004af4 <___vfprintf_internal_r+0x1bac>
 1004d7c:	00800b44 	movi	r2,45
 1004d80:	0121c83a 	sub	r16,zero,r4
 1004d84:	d8800845 	stb	r2,33(sp)
 1004d88:	003f3d06 	br	1004a80 <___vfprintf_internal_r+0x1b38>
 1004d8c:	00800084 	movi	r2,2
 1004d90:	1105c83a 	sub	r2,r2,r4
 1004d94:	003fe606 	br	1004d30 <___vfprintf_internal_r+0x1de8>
 1004d98:	d8014515 	stw	zero,1300(sp)
 1004d9c:	dc814715 	stw	r18,1308(sp)
 1004da0:	003fb106 	br	1004c68 <___vfprintf_internal_r+0x1d20>
 1004da4:	000d883a 	mov	r6,zero
 1004da8:	000f883a 	mov	r7,zero
 1004dac:	8009883a 	mov	r4,r16
 1004db0:	880b883a 	mov	r5,r17
 1004db4:	100b5e40 	call	100b5e4 <__nedf2>
 1004db8:	103f9f26 	beq	r2,zero,1004c38 <___vfprintf_internal_r+0x1cf0>
 1004dbc:	00800044 	movi	r2,1
 1004dc0:	1509c83a 	sub	r4,r2,r20
 1004dc4:	d9000515 	stw	r4,20(sp)
 1004dc8:	003f9b06 	br	1004c38 <___vfprintf_internal_r+0x1cf0>
 1004dcc:	98000d1e 	bne	r19,zero,1004e04 <___vfprintf_internal_r+0x1ebc>
 1004dd0:	d8c14c17 	ldw	r3,1328(sp)
 1004dd4:	1880004c 	andi	r2,r3,1
 1004dd8:	10000a1e 	bne	r2,zero,1004e04 <___vfprintf_internal_r+0x1ebc>
 1004ddc:	01000044 	movi	r4,1
 1004de0:	200f883a 	mov	r7,r4
 1004de4:	d9014515 	stw	r4,1300(sp)
